 PhysX_32

 Timestamp is 5f539c9c (Sat Sep  5 16:11:40 2020)

 Preferred load address is 10000000

 Start         Length     Name                   Class
 0001:00000000 00004e00H .text$di                CODE
 0001:00004e00 001e4c5bH .text$mn                CODE
 0001:001e9a5b 00000055H .text$x                 CODE
 0001:001e9ab0 0000001bH .text$yd                CODE
 0002:00000000 00000170H .idata$5                DATA
 0002:00000170 00000008H .00cfg                  DATA
 0002:00000178 00000004H .CRT$XCA                DATA
 0002:0000017c 00000b9cH .CRT$XCU                DATA
 0002:00000d18 00000004H .CRT$XCZ                DATA
 0002:00000d1c 00000004H .CRT$XIA                DATA
 0002:00000d20 0000000cH .CRT$XIC                DATA
 0002:00000d2c 00000004H .CRT$XIZ                DATA
 0002:00000d30 00000004H .CRT$XPA                DATA
 0002:00000d34 00000008H .CRT$XPX                DATA
 0002:00000d3c 00000004H .CRT$XPXA               DATA
 0002:00000d40 00000004H .CRT$XPZ                DATA
 0002:00000d44 00000004H .CRT$XTA                DATA
 0002:00000d48 00000008H .CRT$XTZ                DATA
 0002:00000d4c 00000000H .gfids$y                DATA
 0002:00000d50 0002a1d0H .rdata                  DATA
 0002:0002af20 000002a0H .rdata$r                DATA
 0002:0002b1c0 0000001cH .rdata$sxdata           DATA
 0002:0002b1dc 000003dcH .rdata$zzzdbg           DATA
 0002:0002b5b8 00000004H .rtc$IAA                DATA
 0002:0002b5bc 00000004H .rtc$IZZ                DATA
 0002:0002b5c0 00000004H .rtc$TAA                DATA
 0002:0002b5c4 00000004H .rtc$TZZ                DATA
 0002:0002b5c8 000008acH .xdata$x                DATA
 0002:0002be74 00000040H .didat$2                DATA
 0002:0002beb4 00000020H .didat$3                DATA
 0002:0002bed4 0000037cH .didat$4                DATA
 0002:0002c250 000049b0H .didat$6                DATA
 0002:00030c00 00000380H .didat$7                DATA
 0002:00030f80 00002840H .edata                  DATA
 0002:000337c0 00000014H .idata$2                DATA
 0002:000337d4 00000014H .idata$3                DATA
 0002:000337e8 00000170H .idata$4                DATA
 0002:00033958 000006b2H .idata$6                DATA
 0003:00000000 000011d0H .data                   DATA
 0003:000011d0 00000f54H .data$r                 DATA
 0003:00002124 0000037cH .didat$5                DATA
 0003:000024a0 00004370H .bss                    DATA
 0004:00000000 00002608H _RDATA                  DATA
 0005:00000000 000000a0H .rsrc$01                DATA
 0005:000000a0 00000488H .rsrc$02                DATA

  Address         Publics by Value              Rva+Base       Lib:Object

 0000:00000000       ___hybrid_code_map         00000000     <absolute>
 0000:00000000       ___guard_eh_cont_count     00000000     <absolute>
 0000:00000000       ___guard_longjmp_table     00000000     <absolute>
 0000:00000000       ___x64_code_ranges_to_entry_points 00000000     <absolute>
 0000:00000000       ___hybrid_code_map_count   00000000     <absolute>
 0000:00000000       ___arm64x_redirection_metadata 00000000     <absolute>
 0000:00000000       ___AbsoluteZero            00000000     <absolute>
 0000:00000000       __except_list              00000000     <absolute>
 0000:00000000       ___dynamic_value_reloc_table 00000000     <absolute>
 0000:00000000       ___arm64x_redirection_metadata_count 00000000     <absolute>
 0000:00000000       ___enclave_config          00000000     <absolute>
 0000:00000000       ___guard_longjmp_count     00000000     <absolute>
 0000:00000000       ___guard_fids_table        00000000     <absolute>
 0000:00000000       ___guard_fids_count        00000000     <absolute>
 0000:00000000       ___guard_eh_cont_table     00000000     <absolute>
 0000:00000000       ___arm64x_native_entrypoint 00000000     <absolute>
 0000:00000000       ___arm64x_extra_rfe_table  00000000     <absolute>
 0000:00000000       ___guard_iat_table         00000000     <absolute>
 0000:00000000       ___x64_code_ranges_to_entry_points_count 00000000     <absolute>
 0000:00000000       ___hybrid_auxiliary_iat    00000000     <absolute>
 0000:00000000       ___guard_iat_count         00000000     <absolute>
 0000:00000000       ___arm64x_extra_rfe_table_size 00000000     <absolute>
 0000:00000000       ___volatile_metadata       00000000     <absolute>
 0000:00000007       ___safe_se_handler_count   00000007     <absolute>
 0000:00000100       ___guard_flags             00000100     <absolute>
 0000:00000000       ___ImageBase               10000000     <linker-defined>
 0001:00004e40       ??0PxPhysicsGeneratedValues@physx@@QAE@PBVPxPhysics@1@@Z 10005e40 f   PxAutoGeneratedMetaDataObjects.obj
 0001:00004e60       ??0PxPhysicsGeneratedInfo@physx@@QAE@XZ 10005e60 f   PxAutoGeneratedMetaDataObjects.obj
 0001:00004f70       ??0PxMaterialGeneratedValues@physx@@QAE@PBVPxMaterial@1@@Z 10005f70 f   PxAutoGeneratedMetaDataObjects.obj
 0001:00004fe0       ??0PxMaterialGeneratedInfo@physx@@QAE@XZ 10005fe0 f   PxAutoGeneratedMetaDataObjects.obj
 0001:000050e0       ??0PxActorGeneratedValues@physx@@QAE@PBVPxActor@1@@Z 100060e0 f   PxAutoGeneratedMetaDataObjects.obj
 0001:00005140       ??0PxActorGeneratedInfo@physx@@QAE@XZ 10006140 f   PxAutoGeneratedMetaDataObjects.obj
 0001:00005200       ??0PxRigidActorGeneratedValues@physx@@QAE@PBVPxRigidActor@1@@Z 10006200 f   PxAutoGeneratedMetaDataObjects.obj
 0001:00005260       ??0PxRigidActorGeneratedInfo@physx@@QAE@XZ 10006260 f   PxAutoGeneratedMetaDataObjects.obj
 0001:000052e0       ??0PxRigidBodyGeneratedValues@physx@@QAE@PBVPxRigidBody@1@@Z 100062e0 f   PxAutoGeneratedMetaDataObjects.obj
 0001:000053e0       ??0PxRigidBodyGeneratedInfo@physx@@QAE@XZ 100063e0 f   PxAutoGeneratedMetaDataObjects.obj
 0001:00005630       ??0PxRigidDynamicGeneratedValues@physx@@QAE@PBVPxRigidDynamic@1@@Z 10006630 f   PxAutoGeneratedMetaDataObjects.obj
 0001:000056e0       ??0PxRigidDynamicGeneratedInfo@physx@@QAE@XZ 100066e0 f   PxAutoGeneratedMetaDataObjects.obj
 0001:00005830       ??0PxRigidStaticGeneratedValues@physx@@QAE@PBVPxRigidStatic@1@@Z 10006830 f   PxAutoGeneratedMetaDataObjects.obj
 0001:00005850       ??0PxRigidStaticGeneratedInfo@physx@@QAE@XZ 10006850 f   PxAutoGeneratedMetaDataObjects.obj
 0001:00005880       ??0PxArticulationLinkGeneratedValues@physx@@QAE@PBVPxArticulationLink@1@@Z 10006880 f   PxAutoGeneratedMetaDataObjects.obj
 0001:000058e0       ??0PxArticulationLinkGeneratedInfo@physx@@QAE@XZ 100068e0 f   PxAutoGeneratedMetaDataObjects.obj
 0001:00005990       ??0PxArticulationJointBaseGeneratedValues@physx@@QAE@PBVPxArticulationJointBase@1@@Z 10006990 f   PxAutoGeneratedMetaDataObjects.obj
 0001:000059c0       ??0PxArticulationJointBaseGeneratedInfo@physx@@QAE@XZ 100069c0 f   PxAutoGeneratedMetaDataObjects.obj
 0001:00005a00       ??0PxArticulationJointGeneratedValues@physx@@QAE@PBVPxArticulationJoint@1@@Z 10006a00 f   PxAutoGeneratedMetaDataObjects.obj
 0001:00005b10       ??0PxArticulationJointGeneratedInfo@physx@@QAE@XZ 10006b10 f   PxAutoGeneratedMetaDataObjects.obj
 0001:00005da0       ??0PxArticulationJointReducedCoordinateGeneratedValues@physx@@QAE@PBVPxArticulationJointReducedCoordinate@1@@Z 10006da0 f   PxAutoGeneratedMetaDataObjects.obj
 0001:00005e10       ??0PxArticulationJointReducedCoordinateGeneratedInfo@physx@@QAE@XZ 10006e10 f   PxAutoGeneratedMetaDataObjects.obj
 0001:00005ed0       ??0PxArticulationBaseGeneratedValues@physx@@QAE@PBVPxArticulationBase@1@@Z 10006ed0 f   PxAutoGeneratedMetaDataObjects.obj
 0001:00005f50       ??0PxArticulationBaseGeneratedInfo@physx@@QAE@XZ 10006f50 f   PxAutoGeneratedMetaDataObjects.obj
 0001:00006080       ??0PxArticulationGeneratedValues@physx@@QAE@PBVPxArticulation@1@@Z 10007080 f   PxAutoGeneratedMetaDataObjects.obj
 0001:000060d0       ??0PxArticulationGeneratedInfo@physx@@QAE@XZ 100070d0 f   PxAutoGeneratedMetaDataObjects.obj
 0001:00006180       ??0PxArticulationReducedCoordinateGeneratedValues@physx@@QAE@PBVPxArticulationReducedCoordinate@1@@Z 10007180 f   PxAutoGeneratedMetaDataObjects.obj
 0001:000061d0       ??0PxArticulationReducedCoordinateGeneratedInfo@physx@@QAE@XZ 100071d0 f   PxAutoGeneratedMetaDataObjects.obj
 0001:00006260       ??0PxAggregateGeneratedValues@physx@@QAE@PBVPxAggregate@1@@Z 10007260 f   PxAutoGeneratedMetaDataObjects.obj
 0001:00006290       ??0PxAggregateGeneratedInfo@physx@@QAE@XZ 10007290 f   PxAutoGeneratedMetaDataObjects.obj
 0001:000062f0       ??0PxConstraintGeneratedValues@physx@@QAE@PBVPxConstraint@1@@Z 100072f0 f   PxAutoGeneratedMetaDataObjects.obj
 0001:00006360       ??0PxConstraintGeneratedInfo@physx@@QAE@XZ 10007360 f   PxAutoGeneratedMetaDataObjects.obj
 0001:00006430       ??0PxShapeGeneratedValues@physx@@QAE@PBVPxShape@1@@Z 10007430 f   PxAutoGeneratedMetaDataObjects.obj
 0001:00006500       ??0PxShapeGeneratedInfo@physx@@QAE@XZ 10007500 f   PxAutoGeneratedMetaDataObjects.obj
 0001:000066f0       ??0PxPruningStructureGeneratedValues@physx@@QAE@PBVPxPruningStructure@1@@Z 100076f0 f   PxAutoGeneratedMetaDataObjects.obj
 0001:00006710       ??0PxPruningStructureGeneratedInfo@physx@@QAE@XZ 10007710 f   PxAutoGeneratedMetaDataObjects.obj
 0001:00006750       ??0PxTolerancesScaleGeneratedValues@physx@@QAE@PBVPxTolerancesScale@1@@Z 10007750 f   PxAutoGeneratedMetaDataObjects.obj
 0001:00006780       ??0PxTolerancesScaleGeneratedInfo@physx@@QAE@XZ 10007780 f   PxAutoGeneratedMetaDataObjects.obj
 0001:000067d0       ??0PxGeometryGeneratedValues@physx@@QAE@PBVPxGeometry@1@@Z 100077d0 f   PxAutoGeneratedMetaDataObjects.obj
 0001:000067e0       ??0PxGeometryGeneratedInfo@physx@@QAE@XZ 100077e0 f   PxAutoGeneratedMetaDataObjects.obj
 0001:000067f0       ??0PxBoxGeometryGeneratedValues@physx@@QAE@PBVPxBoxGeometry@1@@Z 100077f0 f   PxAutoGeneratedMetaDataObjects.obj
 0001:00006810       ??0PxBoxGeometryGeneratedInfo@physx@@QAE@XZ 10007810 f   PxAutoGeneratedMetaDataObjects.obj
 0001:00006830       ??0PxCapsuleGeometryGeneratedValues@physx@@QAE@PBVPxCapsuleGeometry@1@@Z 10007830 f   PxAutoGeneratedMetaDataObjects.obj
 0001:00006850       ??0PxCapsuleGeometryGeneratedInfo@physx@@QAE@XZ 10007850 f   PxAutoGeneratedMetaDataObjects.obj
 0001:00006890       ??0PxMeshScaleGeneratedValues@physx@@QAE@PBVPxMeshScale@1@@Z 10007890 f   PxAutoGeneratedMetaDataObjects.obj
 0001:000068d0       ??0PxMeshScaleGeneratedInfo@physx@@QAE@XZ 100078d0 f   PxAutoGeneratedMetaDataObjects.obj
 0001:00006910       ??0PxConvexMeshGeometryGeneratedValues@physx@@QAE@PBVPxConvexMeshGeometry@1@@Z 10007910 f   PxAutoGeneratedMetaDataObjects.obj
 0001:00006950       ??0PxConvexMeshGeometryGeneratedInfo@physx@@QAE@XZ 10007950 f   PxAutoGeneratedMetaDataObjects.obj
 0001:000069b0       ??0PxSphereGeometryGeneratedValues@physx@@QAE@PBVPxSphereGeometry@1@@Z 100079b0 f   PxAutoGeneratedMetaDataObjects.obj
 0001:000069c0       ??0PxSphereGeometryGeneratedInfo@physx@@QAE@XZ 100079c0 f   PxAutoGeneratedMetaDataObjects.obj
 0001:000069e0       ??0PxPlaneGeometryGeneratedValues@physx@@QAE@PBVPxPlaneGeometry@1@@Z 100079e0 f   PxAutoGeneratedMetaDataObjects.obj
 0001:000069f0       ??0PxPlaneGeometryGeneratedInfo@physx@@QAE@XZ 100079f0 f   PxAutoGeneratedMetaDataObjects.obj
 0001:00006a00       ??0PxTriangleMeshGeometryGeneratedValues@physx@@QAE@PBVPxTriangleMeshGeometry@1@@Z 10007a00 f   PxAutoGeneratedMetaDataObjects.obj
 0001:00006a40       ??0PxTriangleMeshGeometryGeneratedInfo@physx@@QAE@XZ 10007a40 f   PxAutoGeneratedMetaDataObjects.obj
 0001:00006aa0       ??0PxHeightFieldGeometryGeneratedValues@physx@@QAE@PBVPxHeightFieldGeometry@1@@Z 10007aa0 f   PxAutoGeneratedMetaDataObjects.obj
 0001:00006ad0       ??0PxHeightFieldGeometryGeneratedInfo@physx@@QAE@XZ 10007ad0 f   PxAutoGeneratedMetaDataObjects.obj
 0001:00006b60       ??0PxHeightFieldDescGeneratedValues@physx@@QAE@PBVPxHeightFieldDesc@1@@Z 10007b60 f   PxAutoGeneratedMetaDataObjects.obj
 0001:00006ba0       ??0PxHeightFieldDescGeneratedInfo@physx@@QAE@XZ 10007ba0 f   PxAutoGeneratedMetaDataObjects.obj
 0001:00006c50       ??0PxSceneGeneratedValues@physx@@QAE@PBVPxScene@1@@Z 10007c50 f   PxAutoGeneratedMetaDataObjects.obj
 0001:00006f40       ??0PxSceneGeneratedInfo@physx@@QAE@XZ 10007f40 f   PxAutoGeneratedMetaDataObjects.obj
 0001:00007450       ??0PxSceneLimitsGeneratedValues@physx@@QAE@PBVPxSceneLimits@1@@Z 10008450 f   PxAutoGeneratedMetaDataObjects.obj
 0001:00007490       ??0PxSceneLimitsGeneratedInfo@physx@@QAE@XZ 10008490 f   PxAutoGeneratedMetaDataObjects.obj
 0001:00007580       ??0PxgDynamicsMemoryConfigGeneratedValues@physx@@QAE@PBUPxgDynamicsMemoryConfig@1@@Z 10008580 f   PxAutoGeneratedMetaDataObjects.obj
 0001:000075c0       ??0PxgDynamicsMemoryConfigGeneratedInfo@physx@@QAE@XZ 100085c0 f   PxAutoGeneratedMetaDataObjects.obj
 0001:000076b0       ??0PxSceneDescGeneratedValues@physx@@QAE@PBVPxSceneDesc@1@@Z 100086b0 f   PxAutoGeneratedMetaDataObjects.obj
 0001:00007870       ??0PxSceneDescGeneratedInfo@physx@@QAE@XZ 10008870 f   PxAutoGeneratedMetaDataObjects.obj
 0001:00007e70       ??0PxSimulationStatisticsGeneratedValues@physx@@QAE@PBVPxSimulationStatistics@1@@Z 10008e70 f   PxAutoGeneratedMetaDataObjects.obj
 0001:00007f70       ??0PxSimulationStatisticsGeneratedInfo@physx@@QAE@XZ 10008f70 f   PxAutoGeneratedMetaDataObjects.obj
 0001:000082c0       ?getPxPhysics_TolerancesScale@@YA?BVPxTolerancesScale@physx@@PBVPxPhysics@2@@Z 100092c0 f   PxAutoGeneratedMetaDataObjects.obj
 0001:000082e0       ?getPxPhysics_TriangleMeshes@@YAIPBVPxPhysics@physx@@PAPAVPxTriangleMesh@2@I@Z 100092e0 f   PxAutoGeneratedMetaDataObjects.obj
 0001:00008300       ?getNbPxPhysics_TriangleMeshes@@YAIPBVPxPhysics@physx@@@Z 10009300 f   PxAutoGeneratedMetaDataObjects.obj
 0001:00008310       ?createPxPhysics_TriangleMeshes@@YAPAVPxTriangleMesh@physx@@PAVPxPhysics@2@AAVPxInputStream@2@@Z 10009310 f   PxAutoGeneratedMetaDataObjects.obj
 0001:00008320       ?getPxPhysics_HeightFields@@YAIPBVPxPhysics@physx@@PAPAVPxHeightField@2@I@Z 10009320 f   PxAutoGeneratedMetaDataObjects.obj
 0001:00008340       ?getNbPxPhysics_HeightFields@@YAIPBVPxPhysics@physx@@@Z 10009340 f   PxAutoGeneratedMetaDataObjects.obj
 0001:00008350       ?createPxPhysics_HeightFields@@YAPAVPxHeightField@physx@@PAVPxPhysics@2@AAVPxInputStream@2@@Z 10009350 f   PxAutoGeneratedMetaDataObjects.obj
 0001:00008360       ?getPxPhysics_ConvexMeshes@@YAIPBVPxPhysics@physx@@PAPAVPxConvexMesh@2@I@Z 10009360 f   PxAutoGeneratedMetaDataObjects.obj
 0001:00008380       ?getNbPxPhysics_ConvexMeshes@@YAIPBVPxPhysics@physx@@@Z 10009380 f   PxAutoGeneratedMetaDataObjects.obj
 0001:00008390       ?createPxPhysics_ConvexMeshes@@YAPAVPxConvexMesh@physx@@PAVPxPhysics@2@AAVPxInputStream@2@@Z 10009390 f   PxAutoGeneratedMetaDataObjects.obj
 0001:000083a0       ?getPxPhysics_BVHStructures@@YAIPBVPxPhysics@physx@@PAPAVPxBVHStructure@2@I@Z 100093a0 f   PxAutoGeneratedMetaDataObjects.obj
 0001:000083c0       ?getNbPxPhysics_BVHStructures@@YAIPBVPxPhysics@physx@@@Z 100093c0 f   PxAutoGeneratedMetaDataObjects.obj
 0001:000083d0       ?createPxPhysics_BVHStructures@@YAPAVPxBVHStructure@physx@@PAVPxPhysics@2@AAVPxInputStream@2@@Z 100093d0 f   PxAutoGeneratedMetaDataObjects.obj
 0001:000083e0       ?getPxPhysics_Scenes@@YAIPBVPxPhysics@physx@@PAPAVPxScene@2@I@Z 100093e0 f   PxAutoGeneratedMetaDataObjects.obj
 0001:00008400       ?getNbPxPhysics_Scenes@@YAIPBVPxPhysics@physx@@@Z 10009400 f   PxAutoGeneratedMetaDataObjects.obj
 0001:00008410       ?createPxPhysics_Scenes@@YAPAVPxScene@physx@@PAVPxPhysics@2@ABVPxSceneDesc@2@@Z 10009410 f   PxAutoGeneratedMetaDataObjects.obj
 0001:00008420       ?getPxPhysics_Shapes@@YAIPBVPxPhysics@physx@@PAPAVPxShape@2@I@Z 10009420 f   PxAutoGeneratedMetaDataObjects.obj
 0001:00008440       ?getNbPxPhysics_Shapes@@YAIPBVPxPhysics@physx@@@Z 10009440 f   PxAutoGeneratedMetaDataObjects.obj
 0001:00008450       ?getPxPhysics_Materials@@YAIPBVPxPhysics@physx@@PAPAVPxMaterial@2@I@Z 10009450 f   PxAutoGeneratedMetaDataObjects.obj
 0001:00008470       ?getNbPxPhysics_Materials@@YAIPBVPxPhysics@physx@@@Z 10009470 f   PxAutoGeneratedMetaDataObjects.obj
 0001:00008480       ?getPxMaterial_ReferenceCount@@YAIPBVPxMaterial@physx@@@Z 10009480 f   PxAutoGeneratedMetaDataObjects.obj
 0001:00008490       ?setPxMaterial_DynamicFriction@@YAXPAVPxMaterial@physx@@M@Z 10009490 f   PxAutoGeneratedMetaDataObjects.obj
 0001:000084b0       ?getPxMaterial_DynamicFriction@@YAMPBVPxMaterial@physx@@@Z 100094b0 f   PxAutoGeneratedMetaDataObjects.obj
 0001:000084c0       ?setPxMaterial_StaticFriction@@YAXPAVPxMaterial@physx@@M@Z 100094c0 f   PxAutoGeneratedMetaDataObjects.obj
 0001:000084e0       ?getPxMaterial_StaticFriction@@YAMPBVPxMaterial@physx@@@Z 100094e0 f   PxAutoGeneratedMetaDataObjects.obj
 0001:000084f0       ?setPxMaterial_Restitution@@YAXPAVPxMaterial@physx@@M@Z 100094f0 f   PxAutoGeneratedMetaDataObjects.obj
 0001:00008510       ?getPxMaterial_Restitution@@YAMPBVPxMaterial@physx@@@Z 10009510 f   PxAutoGeneratedMetaDataObjects.obj
 0001:00008520       ?setPxMaterial_Flags@@YAXPAVPxMaterial@physx@@V?$PxFlags@W4Enum@PxMaterialFlag@physx@@G@2@@Z 10009520 f   PxAutoGeneratedMetaDataObjects.obj
 0001:00008540       ?getPxMaterial_Flags@@YA?AV?$PxFlags@W4Enum@PxMaterialFlag@physx@@G@physx@@PBVPxMaterial@2@@Z 10009540 f   PxAutoGeneratedMetaDataObjects.obj
 0001:00008560       ?setPxMaterial_FrictionCombineMode@@YAXPAVPxMaterial@physx@@W4Enum@PxCombineMode@2@@Z 10009560 f   PxAutoGeneratedMetaDataObjects.obj
 0001:00008570       ?getPxMaterial_FrictionCombineMode@@YA?AW4Enum@PxCombineMode@physx@@PBVPxMaterial@3@@Z 10009570 f   PxAutoGeneratedMetaDataObjects.obj
 0001:00008580       ?setPxMaterial_RestitutionCombineMode@@YAXPAVPxMaterial@physx@@W4Enum@PxCombineMode@2@@Z 10009580 f   PxAutoGeneratedMetaDataObjects.obj
 0001:00008590       ?getPxMaterial_RestitutionCombineMode@@YA?AW4Enum@PxCombineMode@physx@@PBVPxMaterial@3@@Z 10009590 f   PxAutoGeneratedMetaDataObjects.obj
 0001:000085a0       ?getPxMaterial_ConcreteTypeName@@YAPBDPBVPxMaterial@physx@@@Z 100095a0 f   PxAutoGeneratedMetaDataObjects.obj
 0001:000085b0       ?getPxActor_Scene@@YAPAVPxScene@physx@@PBVPxActor@2@@Z 100095b0 f   PxAutoGeneratedMetaDataObjects.obj
 0001:000085c0       ?setPxActor_Name@@YAXPAVPxActor@physx@@PBD@Z 100095c0 f   PxAutoGeneratedMetaDataObjects.obj
 0001:000085d0       ?getPxActor_Name@@YAPBDPBVPxActor@physx@@@Z 100095d0 f   PxAutoGeneratedMetaDataObjects.obj
 0001:000085e0       ?setPxActor_ActorFlags@@YAXPAVPxActor@physx@@V?$PxFlags@W4Enum@PxActorFlag@physx@@E@2@@Z 100095e0 f   PxAutoGeneratedMetaDataObjects.obj
 0001:00008600       ?getPxActor_ActorFlags@@YA?AV?$PxFlags@W4Enum@PxActorFlag@physx@@E@physx@@PBVPxActor@2@@Z 10009600 f   PxAutoGeneratedMetaDataObjects.obj
 0001:00008620       ?setPxActor_DominanceGroup@@YAXPAVPxActor@physx@@E@Z 10009620 f   PxAutoGeneratedMetaDataObjects.obj
 0001:00008630       ?getPxActor_DominanceGroup@@YAEPBVPxActor@physx@@@Z 10009630 f   PxAutoGeneratedMetaDataObjects.obj
 0001:00008640       ?setPxActor_OwnerClient@@YAXPAVPxActor@physx@@E@Z 10009640 f   PxAutoGeneratedMetaDataObjects.obj
 0001:00008650       ?getPxActor_OwnerClient@@YAEPBVPxActor@physx@@@Z 10009650 f   PxAutoGeneratedMetaDataObjects.obj
 0001:00008660       ?getPxActor_Aggregate@@YAPAVPxAggregate@physx@@PBVPxActor@2@@Z 10009660 f   PxAutoGeneratedMetaDataObjects.obj
 0001:00008670       ?setPxRigidActor_GlobalPose@@YAXPAVPxRigidActor@physx@@ABVPxTransform@2@@Z 10009670 f   PxAutoGeneratedMetaDataObjects.obj
 0001:00008680       ?getPxRigidActor_GlobalPose@@YA?AVPxTransform@physx@@PBVPxRigidActor@2@@Z 10009680 f   PxAutoGeneratedMetaDataObjects.obj
 0001:000086a0       ?getPxRigidActor_Shapes@@YAIPBVPxRigidActor@physx@@PAPAVPxShape@2@I@Z 100096a0 f   PxAutoGeneratedMetaDataObjects.obj
 0001:000086c0       ?getNbPxRigidActor_Shapes@@YAIPBVPxRigidActor@physx@@@Z 100096c0 f   PxAutoGeneratedMetaDataObjects.obj
 0001:000086d0       ?getPxRigidActor_Constraints@@YAIPBVPxRigidActor@physx@@PAPAVPxConstraint@2@I@Z 100096d0 f   PxAutoGeneratedMetaDataObjects.obj
 0001:000086f0       ?getNbPxRigidActor_Constraints@@YAIPBVPxRigidActor@physx@@@Z 100096f0 f   PxAutoGeneratedMetaDataObjects.obj
 0001:00008700       ?setPxRigidBody_CMassLocalPose@@YAXPAVPxRigidBody@physx@@ABVPxTransform@2@@Z 10009700 f   PxAutoGeneratedMetaDataObjects.obj
 0001:00008710       ?getPxRigidBody_CMassLocalPose@@YA?AVPxTransform@physx@@PBVPxRigidBody@2@@Z 10009710 f   PxAutoGeneratedMetaDataObjects.obj
 0001:00008730       ?setPxRigidBody_Mass@@YAXPAVPxRigidBody@physx@@M@Z 10009730 f   PxAutoGeneratedMetaDataObjects.obj
 0001:00008750       ?getPxRigidBody_Mass@@YAMPBVPxRigidBody@physx@@@Z 10009750 f   PxAutoGeneratedMetaDataObjects.obj
 0001:00008760       ?getPxRigidBody_InvMass@@YAMPBVPxRigidBody@physx@@@Z 10009760 f   PxAutoGeneratedMetaDataObjects.obj
 0001:00008770       ?setPxRigidBody_MassSpaceInertiaTensor@@YAXPAVPxRigidBody@physx@@ABVPxVec3@2@@Z 10009770 f   PxAutoGeneratedMetaDataObjects.obj
 0001:00008780       ?getPxRigidBody_MassSpaceInertiaTensor@@YA?AVPxVec3@physx@@PBVPxRigidBody@2@@Z 10009780 f   PxAutoGeneratedMetaDataObjects.obj
 0001:000087a0       ?getPxRigidBody_MassSpaceInvInertiaTensor@@YA?AVPxVec3@physx@@PBVPxRigidBody@2@@Z 100097a0 f   PxAutoGeneratedMetaDataObjects.obj
 0001:000087c0       ?setPxRigidBody_LinearDamping@@YAXPAVPxRigidBody@physx@@M@Z 100097c0 f   PxAutoGeneratedMetaDataObjects.obj
 0001:000087e0       ?getPxRigidBody_LinearDamping@@YAMPBVPxRigidBody@physx@@@Z 100097e0 f   PxAutoGeneratedMetaDataObjects.obj
 0001:000087f0       ?setPxRigidBody_AngularDamping@@YAXPAVPxRigidBody@physx@@M@Z 100097f0 f   PxAutoGeneratedMetaDataObjects.obj
 0001:00008810       ?getPxRigidBody_AngularDamping@@YAMPBVPxRigidBody@physx@@@Z 10009810 f   PxAutoGeneratedMetaDataObjects.obj
 0001:00008820       ?setPxRigidBody_LinearVelocity@@YAXPAVPxRigidBody@physx@@ABVPxVec3@2@@Z 10009820 f   PxAutoGeneratedMetaDataObjects.obj
 0001:00008840       ?getPxRigidBody_LinearVelocity@@YA?AVPxVec3@physx@@PBVPxRigidBody@2@@Z 10009840 f   PxAutoGeneratedMetaDataObjects.obj
 0001:00008860       ?setPxRigidBody_AngularVelocity@@YAXPAVPxRigidBody@physx@@ABVPxVec3@2@@Z 10009860 f   PxAutoGeneratedMetaDataObjects.obj
 0001:00008880       ?getPxRigidBody_AngularVelocity@@YA?AVPxVec3@physx@@PBVPxRigidBody@2@@Z 10009880 f   PxAutoGeneratedMetaDataObjects.obj
 0001:000088a0       ?setPxRigidBody_MaxAngularVelocity@@YAXPAVPxRigidBody@physx@@M@Z 100098a0 f   PxAutoGeneratedMetaDataObjects.obj
 0001:000088c0       ?getPxRigidBody_MaxAngularVelocity@@YAMPBVPxRigidBody@physx@@@Z 100098c0 f   PxAutoGeneratedMetaDataObjects.obj
 0001:000088d0       ?setPxRigidBody_MaxLinearVelocity@@YAXPAVPxRigidBody@physx@@M@Z 100098d0 f   PxAutoGeneratedMetaDataObjects.obj
 0001:000088f0       ?getPxRigidBody_MaxLinearVelocity@@YAMPBVPxRigidBody@physx@@@Z 100098f0 f   PxAutoGeneratedMetaDataObjects.obj
 0001:00008900       ?setPxRigidBody_RigidBodyFlags@@YAXPAVPxRigidBody@physx@@V?$PxFlags@W4Enum@PxRigidBodyFlag@physx@@E@2@@Z 10009900 f   PxAutoGeneratedMetaDataObjects.obj
 0001:00008920       ?getPxRigidBody_RigidBodyFlags@@YA?AV?$PxFlags@W4Enum@PxRigidBodyFlag@physx@@E@physx@@PBVPxRigidBody@2@@Z 10009920 f   PxAutoGeneratedMetaDataObjects.obj
 0001:00008940       ?setPxRigidBody_MinCCDAdvanceCoefficient@@YAXPAVPxRigidBody@physx@@M@Z 10009940 f   PxAutoGeneratedMetaDataObjects.obj
 0001:00008960       ?getPxRigidBody_MinCCDAdvanceCoefficient@@YAMPBVPxRigidBody@physx@@@Z 10009960 f   PxAutoGeneratedMetaDataObjects.obj
 0001:00008970       ?setPxRigidBody_MaxDepenetrationVelocity@@YAXPAVPxRigidBody@physx@@M@Z 10009970 f   PxAutoGeneratedMetaDataObjects.obj
 0001:00008990       ?getPxRigidBody_MaxDepenetrationVelocity@@YAMPBVPxRigidBody@physx@@@Z 10009990 f   PxAutoGeneratedMetaDataObjects.obj
 0001:000089a0       ?setPxRigidBody_MaxContactImpulse@@YAXPAVPxRigidBody@physx@@M@Z 100099a0 f   PxAutoGeneratedMetaDataObjects.obj
 0001:000089c0       ?getPxRigidBody_MaxContactImpulse@@YAMPBVPxRigidBody@physx@@@Z 100099c0 f   PxAutoGeneratedMetaDataObjects.obj
 0001:000089d0       ?getPxRigidDynamic_IsSleeping@@YA_NPBVPxRigidDynamic@physx@@@Z 100099d0 f   PxAutoGeneratedMetaDataObjects.obj
 0001:000089e0       ?setPxRigidDynamic_SleepThreshold@@YAXPAVPxRigidDynamic@physx@@M@Z 100099e0 f   PxAutoGeneratedMetaDataObjects.obj
 0001:00008a00       ?getPxRigidDynamic_SleepThreshold@@YAMPBVPxRigidDynamic@physx@@@Z 10009a00 f   PxAutoGeneratedMetaDataObjects.obj
 0001:00008a10       ?setPxRigidDynamic_StabilizationThreshold@@YAXPAVPxRigidDynamic@physx@@M@Z 10009a10 f   PxAutoGeneratedMetaDataObjects.obj
 0001:00008a30       ?getPxRigidDynamic_StabilizationThreshold@@YAMPBVPxRigidDynamic@physx@@@Z 10009a30 f   PxAutoGeneratedMetaDataObjects.obj
 0001:00008a40       ?setPxRigidDynamic_RigidDynamicLockFlags@@YAXPAVPxRigidDynamic@physx@@V?$PxFlags@W4Enum@PxRigidDynamicLockFlag@physx@@E@2@@Z 10009a40 f   PxAutoGeneratedMetaDataObjects.obj
 0001:00008a60       ?getPxRigidDynamic_RigidDynamicLockFlags@@YA?AV?$PxFlags@W4Enum@PxRigidDynamicLockFlag@physx@@E@physx@@PBVPxRigidDynamic@2@@Z 10009a60 f   PxAutoGeneratedMetaDataObjects.obj
 0001:00008a80       ?setPxRigidDynamic_WakeCounter@@YAXPAVPxRigidDynamic@physx@@M@Z 10009a80 f   PxAutoGeneratedMetaDataObjects.obj
 0001:00008aa0       ?getPxRigidDynamic_WakeCounter@@YAMPBVPxRigidDynamic@physx@@@Z 10009aa0 f   PxAutoGeneratedMetaDataObjects.obj
 0001:00008ab0       ?setPxRigidDynamic_SolverIterationCounts@@YAXPAVPxRigidDynamic@physx@@II@Z 10009ab0 f   PxAutoGeneratedMetaDataObjects.obj
 0001:00008ad0       ?getPxRigidDynamic_SolverIterationCounts@@YAXPBVPxRigidDynamic@physx@@AAI1@Z 10009ad0 f   PxAutoGeneratedMetaDataObjects.obj
 0001:00008af0       ?setPxRigidDynamic_ContactReportThreshold@@YAXPAVPxRigidDynamic@physx@@M@Z 10009af0 f   PxAutoGeneratedMetaDataObjects.obj
 0001:00008b10       ?getPxRigidDynamic_ContactReportThreshold@@YAMPBVPxRigidDynamic@physx@@@Z 10009b10 f   PxAutoGeneratedMetaDataObjects.obj
 0001:00008b20       ?getPxRigidDynamic_ConcreteTypeName@@YAPBDPBVPxRigidDynamic@physx@@@Z 10009b20 f   PxAutoGeneratedMetaDataObjects.obj
 0001:00008b30       ?getPxRigidStatic_ConcreteTypeName@@YAPBDPBVPxRigidStatic@physx@@@Z 10009b30 f   PxAutoGeneratedMetaDataObjects.obj
 0001:00008b40       ?getPxArticulationLink_InboundJoint@@YAPAVPxArticulationJointBase@physx@@PBVPxArticulationLink@2@@Z 10009b40 f   PxAutoGeneratedMetaDataObjects.obj
 0001:00008b50       ?getPxArticulationLink_InboundJointDof@@YAIPBVPxArticulationLink@physx@@@Z 10009b50 f   PxAutoGeneratedMetaDataObjects.obj
 0001:00008b60       ?getPxArticulationLink_LinkIndex@@YAIPBVPxArticulationLink@physx@@@Z 10009b60 f   PxAutoGeneratedMetaDataObjects.obj
 0001:00008b70       ?getPxArticulationLink_Children@@YAIPBVPxArticulationLink@physx@@PAPAV12@I@Z 10009b70 f   PxAutoGeneratedMetaDataObjects.obj
 0001:00008b90       ?getNbPxArticulationLink_Children@@YAIPBVPxArticulationLink@physx@@@Z 10009b90 f   PxAutoGeneratedMetaDataObjects.obj
 0001:00008ba0       ?getPxArticulationLink_ConcreteTypeName@@YAPBDPBVPxArticulationLink@physx@@@Z 10009ba0 f   PxAutoGeneratedMetaDataObjects.obj
 0001:00008bb0       ?setPxArticulationJointBase_ParentPose@@YAXPAVPxArticulationJointBase@physx@@ABVPxTransform@2@@Z 10009bb0 f   PxAutoGeneratedMetaDataObjects.obj
 0001:00008bc0       ?getPxArticulationJointBase_ParentPose@@YA?AVPxTransform@physx@@PBVPxArticulationJointBase@2@@Z 10009bc0 f   PxAutoGeneratedMetaDataObjects.obj
 0001:00008be0       ?setPxArticulationJointBase_ChildPose@@YAXPAVPxArticulationJointBase@physx@@ABVPxTransform@2@@Z 10009be0 f   PxAutoGeneratedMetaDataObjects.obj
 0001:00008bf0       ?getPxArticulationJointBase_ChildPose@@YA?AVPxTransform@physx@@PBVPxArticulationJointBase@2@@Z 10009bf0 f   PxAutoGeneratedMetaDataObjects.obj
 0001:00008c10       ?setPxArticulationJoint_TargetOrientation@@YAXPAVPxArticulationJoint@physx@@ABVPxQuat@2@@Z 10009c10 f   PxAutoGeneratedMetaDataObjects.obj
 0001:00008c20       ?getPxArticulationJoint_TargetOrientation@@YA?AVPxQuat@physx@@PBVPxArticulationJoint@2@@Z 10009c20 f   PxAutoGeneratedMetaDataObjects.obj
 0001:00008c40       ?setPxArticulationJoint_TargetVelocity@@YAXPAVPxArticulationJoint@physx@@ABVPxVec3@2@@Z 10009c40 f   PxAutoGeneratedMetaDataObjects.obj
 0001:00008c50       ?getPxArticulationJoint_TargetVelocity@@YA?AVPxVec3@physx@@PBVPxArticulationJoint@2@@Z 10009c50 f   PxAutoGeneratedMetaDataObjects.obj
 0001:00008c70       ?setPxArticulationJoint_DriveType@@YAXPAVPxArticulationJoint@physx@@W4Enum@PxArticulationJointDriveType@2@@Z 10009c70 f   PxAutoGeneratedMetaDataObjects.obj
 0001:00008c80       ?getPxArticulationJoint_DriveType@@YA?AW4Enum@PxArticulationJointDriveType@physx@@PBVPxArticulationJoint@3@@Z 10009c80 f   PxAutoGeneratedMetaDataObjects.obj
 0001:00008c90       ?setPxArticulationJoint_Stiffness@@YAXPAVPxArticulationJoint@physx@@M@Z 10009c90 f   PxAutoGeneratedMetaDataObjects.obj
 0001:00008cb0       ?getPxArticulationJoint_Stiffness@@YAMPBVPxArticulationJoint@physx@@@Z 10009cb0 f   PxAutoGeneratedMetaDataObjects.obj
 0001:00008cc0       ?setPxArticulationJoint_Damping@@YAXPAVPxArticulationJoint@physx@@M@Z 10009cc0 f   PxAutoGeneratedMetaDataObjects.obj
 0001:00008ce0       ?getPxArticulationJoint_Damping@@YAMPBVPxArticulationJoint@physx@@@Z 10009ce0 f   PxAutoGeneratedMetaDataObjects.obj
 0001:00008cf0       ?setPxArticulationJoint_InternalCompliance@@YAXPAVPxArticulationJoint@physx@@M@Z 10009cf0 f   PxAutoGeneratedMetaDataObjects.obj
 0001:00008d10       ?getPxArticulationJoint_InternalCompliance@@YAMPBVPxArticulationJoint@physx@@@Z 10009d10 f   PxAutoGeneratedMetaDataObjects.obj
 0001:00008d20       ?setPxArticulationJoint_ExternalCompliance@@YAXPAVPxArticulationJoint@physx@@M@Z 10009d20 f   PxAutoGeneratedMetaDataObjects.obj
 0001:00008d40       ?getPxArticulationJoint_ExternalCompliance@@YAMPBVPxArticulationJoint@physx@@@Z 10009d40 f   PxAutoGeneratedMetaDataObjects.obj
 0001:00008d50       ?setPxArticulationJoint_SwingLimit@@YAXPAVPxArticulationJoint@physx@@MM@Z 10009d50 f   PxAutoGeneratedMetaDataObjects.obj
 0001:00008d80       ?getPxArticulationJoint_SwingLimit@@YAXPBVPxArticulationJoint@physx@@AAM1@Z 10009d80 f   PxAutoGeneratedMetaDataObjects.obj
 0001:00008da0       ?setPxArticulationJoint_TangentialStiffness@@YAXPAVPxArticulationJoint@physx@@M@Z 10009da0 f   PxAutoGeneratedMetaDataObjects.obj
 0001:00008dc0       ?getPxArticulationJoint_TangentialStiffness@@YAMPBVPxArticulationJoint@physx@@@Z 10009dc0 f   PxAutoGeneratedMetaDataObjects.obj
 0001:00008dd0       ?setPxArticulationJoint_TangentialDamping@@YAXPAVPxArticulationJoint@physx@@M@Z 10009dd0 f   PxAutoGeneratedMetaDataObjects.obj
 0001:00008df0       ?getPxArticulationJoint_TangentialDamping@@YAMPBVPxArticulationJoint@physx@@@Z 10009df0 f   PxAutoGeneratedMetaDataObjects.obj
 0001:00008e00       ?setPxArticulationJoint_SwingLimitContactDistance@@YAXPAVPxArticulationJoint@physx@@M@Z 10009e00 f   PxAutoGeneratedMetaDataObjects.obj
 0001:00008e20       ?getPxArticulationJoint_SwingLimitContactDistance@@YAMPBVPxArticulationJoint@physx@@@Z 10009e20 f   PxAutoGeneratedMetaDataObjects.obj
 0001:00008e30       ?setPxArticulationJoint_SwingLimitEnabled@@YAXPAVPxArticulationJoint@physx@@_N@Z 10009e30 f   PxAutoGeneratedMetaDataObjects.obj
 0001:00008e50       ?getPxArticulationJoint_SwingLimitEnabled@@YA_NPBVPxArticulationJoint@physx@@@Z 10009e50 f   PxAutoGeneratedMetaDataObjects.obj
 0001:00008e60       ?setPxArticulationJoint_TwistLimit@@YAXPAVPxArticulationJoint@physx@@MM@Z 10009e60 f   PxAutoGeneratedMetaDataObjects.obj
 0001:00008e90       ?getPxArticulationJoint_TwistLimit@@YAXPBVPxArticulationJoint@physx@@AAM1@Z 10009e90 f   PxAutoGeneratedMetaDataObjects.obj
 0001:00008eb0       ?setPxArticulationJoint_TwistLimitEnabled@@YAXPAVPxArticulationJoint@physx@@_N@Z 10009eb0 f   PxAutoGeneratedMetaDataObjects.obj
 0001:00008ed0       ?getPxArticulationJoint_TwistLimitEnabled@@YA_NPBVPxArticulationJoint@physx@@@Z 10009ed0 f   PxAutoGeneratedMetaDataObjects.obj
 0001:00008ee0       ?setPxArticulationJoint_TwistLimitContactDistance@@YAXPAVPxArticulationJoint@physx@@M@Z 10009ee0 f   PxAutoGeneratedMetaDataObjects.obj
 0001:00008f00       ?getPxArticulationJoint_TwistLimitContactDistance@@YAMPBVPxArticulationJoint@physx@@@Z 10009f00 f   PxAutoGeneratedMetaDataObjects.obj
 0001:00008f10       ?getPxArticulationJoint_ConcreteTypeName@@YAPBDPBVPxArticulationJoint@physx@@@Z 10009f10 f   PxAutoGeneratedMetaDataObjects.obj
 0001:00008f20       ?setPxArticulationJointReducedCoordinate_JointType@@YAXPAVPxArticulationJointReducedCoordinate@physx@@W4Enum@PxArticulationJointType@2@@Z 10009f20 f   PxAutoGeneratedMetaDataObjects.obj
 0001:00008f30       ?getPxArticulationJointReducedCoordinate_JointType@@YA?AW4Enum@PxArticulationJointType@physx@@PBVPxArticulationJointReducedCoordinate@3@@Z 10009f30 f   PxAutoGeneratedMetaDataObjects.obj
 0001:00008f40       ?setPxArticulationJointReducedCoordinate_Motion@@YAXPAVPxArticulationJointReducedCoordinate@physx@@W4Enum@PxArticulationAxis@2@W43PxArticulationMotion@2@@Z 10009f40 f   PxAutoGeneratedMetaDataObjects.obj
 0001:00008f60       ?getPxArticulationJointReducedCoordinate_Motion@@YA?AW4Enum@PxArticulationMotion@physx@@PBVPxArticulationJointReducedCoordinate@3@W41PxArticulationAxis@3@@Z 10009f60 f   PxAutoGeneratedMetaDataObjects.obj
 0001:00008f70       ?setPxArticulationJointReducedCoordinate_FrictionCoefficient@@YAXPAVPxArticulationJointReducedCoordinate@physx@@M@Z 10009f70 f   PxAutoGeneratedMetaDataObjects.obj
 0001:00008f90       ?getPxArticulationJointReducedCoordinate_FrictionCoefficient@@YAMPBVPxArticulationJointReducedCoordinate@physx@@@Z 10009f90 f   PxAutoGeneratedMetaDataObjects.obj
 0001:00008fa0       ?getPxArticulationJointReducedCoordinate_ConcreteTypeName@@YAPBDPBVPxArticulationJointReducedCoordinate@physx@@@Z 10009fa0 f   PxAutoGeneratedMetaDataObjects.obj
 0001:00008fb0       ?setPxArticulationJointReducedCoordinate_MaxJointVelocity@@YAXPAVPxArticulationJointReducedCoordinate@physx@@M@Z 10009fb0 f   PxAutoGeneratedMetaDataObjects.obj
 0001:00008fd0       ?getPxArticulationJointReducedCoordinate_MaxJointVelocity@@YAMPBVPxArticulationJointReducedCoordinate@physx@@@Z 10009fd0 f   PxAutoGeneratedMetaDataObjects.obj
 0001:00008fe0       ?getPxArticulationBase_Scene@@YAPAVPxScene@physx@@PBVPxArticulationBase@2@@Z 10009fe0 f   PxAutoGeneratedMetaDataObjects.obj
 0001:00008ff0       ?setPxArticulationBase_SolverIterationCounts@@YAXPAVPxArticulationBase@physx@@II@Z 10009ff0 f   PxAutoGeneratedMetaDataObjects.obj
 0001:00009010       ?getPxArticulationBase_SolverIterationCounts@@YAXPBVPxArticulationBase@physx@@AAI1@Z 1000a010 f   PxAutoGeneratedMetaDataObjects.obj
 0001:00009030       ?getPxArticulationBase_IsSleeping@@YA_NPBVPxArticulationBase@physx@@@Z 1000a030 f   PxAutoGeneratedMetaDataObjects.obj
 0001:00009040       ?setPxArticulationBase_SleepThreshold@@YAXPAVPxArticulationBase@physx@@M@Z 1000a040 f   PxAutoGeneratedMetaDataObjects.obj
 0001:00009060       ?getPxArticulationBase_SleepThreshold@@YAMPBVPxArticulationBase@physx@@@Z 1000a060 f   PxAutoGeneratedMetaDataObjects.obj
 0001:00009070       ?setPxArticulationBase_StabilizationThreshold@@YAXPAVPxArticulationBase@physx@@M@Z 1000a070 f   PxAutoGeneratedMetaDataObjects.obj
 0001:00009090       ?getPxArticulationBase_StabilizationThreshold@@YAMPBVPxArticulationBase@physx@@@Z 1000a090 f   PxAutoGeneratedMetaDataObjects.obj
 0001:000090a0       ?setPxArticulationBase_WakeCounter@@YAXPAVPxArticulationBase@physx@@M@Z 1000a0a0 f   PxAutoGeneratedMetaDataObjects.obj
 0001:000090c0       ?getPxArticulationBase_WakeCounter@@YAMPBVPxArticulationBase@physx@@@Z 1000a0c0 f   PxAutoGeneratedMetaDataObjects.obj
 0001:000090d0       ?getPxArticulationBase_Links@@YAIPBVPxArticulationBase@physx@@PAPAVPxArticulationLink@2@I@Z 1000a0d0 f   PxAutoGeneratedMetaDataObjects.obj
 0001:000090f0       ?getNbPxArticulationBase_Links@@YAIPBVPxArticulationBase@physx@@@Z 1000a0f0 f   PxAutoGeneratedMetaDataObjects.obj
 0001:00009100       ?setPxArticulationBase_Name@@YAXPAVPxArticulationBase@physx@@PBD@Z 1000a100 f   PxAutoGeneratedMetaDataObjects.obj
 0001:00009110       ?getPxArticulationBase_Name@@YAPBDPBVPxArticulationBase@physx@@@Z 1000a110 f   PxAutoGeneratedMetaDataObjects.obj
 0001:00009120       ?getPxArticulationBase_Aggregate@@YAPAVPxAggregate@physx@@PBVPxArticulationBase@2@@Z 1000a120 f   PxAutoGeneratedMetaDataObjects.obj
 0001:00009130       ?setPxArticulation_MaxProjectionIterations@@YAXPAVPxArticulation@physx@@I@Z 1000a130 f   PxAutoGeneratedMetaDataObjects.obj
 0001:00009140       ?getPxArticulation_MaxProjectionIterations@@YAIPBVPxArticulation@physx@@@Z 1000a140 f   PxAutoGeneratedMetaDataObjects.obj
 0001:00009150       ?setPxArticulation_SeparationTolerance@@YAXPAVPxArticulation@physx@@M@Z 1000a150 f   PxAutoGeneratedMetaDataObjects.obj
 0001:00009170       ?getPxArticulation_SeparationTolerance@@YAMPBVPxArticulation@physx@@@Z 1000a170 f   PxAutoGeneratedMetaDataObjects.obj
 0001:00009180       ?setPxArticulation_InternalDriveIterations@@YAXPAVPxArticulation@physx@@I@Z 1000a180 f   PxAutoGeneratedMetaDataObjects.obj
 0001:000091a0       ?getPxArticulation_InternalDriveIterations@@YAIPBVPxArticulation@physx@@@Z 1000a1a0 f   PxAutoGeneratedMetaDataObjects.obj
 0001:000091b0       ?setPxArticulation_ExternalDriveIterations@@YAXPAVPxArticulation@physx@@I@Z 1000a1b0 f   PxAutoGeneratedMetaDataObjects.obj
 0001:000091d0       ?getPxArticulation_ExternalDriveIterations@@YAIPBVPxArticulation@physx@@@Z 1000a1d0 f   PxAutoGeneratedMetaDataObjects.obj
 0001:000091e0       ?setPxArticulationReducedCoordinate_ArticulationFlags@@YAXPAVPxArticulationReducedCoordinate@physx@@V?$PxFlags@W4Enum@PxArticulationFlag@physx@@E@2@@Z 1000a1e0 f   PxAutoGeneratedMetaDataObjects.obj
 0001:00009200       ?getPxArticulationReducedCoordinate_ArticulationFlags@@YA?AV?$PxFlags@W4Enum@PxArticulationFlag@physx@@E@physx@@PBVPxArticulationReducedCoordinate@2@@Z 1000a200 f   PxAutoGeneratedMetaDataObjects.obj
 0001:00009220       ?getPxArticulationReducedCoordinate_Dofs@@YAIPBVPxArticulationReducedCoordinate@physx@@@Z 1000a220 f   PxAutoGeneratedMetaDataObjects.obj
 0001:00009230       ?getPxArticulationReducedCoordinate_CacheDataSize@@YAIPBVPxArticulationReducedCoordinate@physx@@@Z 1000a230 f   PxAutoGeneratedMetaDataObjects.obj
 0001:00009240       ?getPxArticulationReducedCoordinate_CoefficientMatrixSize@@YAIPBVPxArticulationReducedCoordinate@physx@@@Z 1000a240 f   PxAutoGeneratedMetaDataObjects.obj
 0001:00009250       ?getPxAggregate_MaxNbActors@@YAIPBVPxAggregate@physx@@@Z 1000a250 f   PxAutoGeneratedMetaDataObjects.obj
 0001:00009260       ?getPxAggregate_Actors@@YAIPBVPxAggregate@physx@@PAPAVPxActor@2@I@Z 1000a260 f   PxAutoGeneratedMetaDataObjects.obj
 0001:00009280       ?getNbPxAggregate_Actors@@YAIPBVPxAggregate@physx@@@Z 1000a280 f   PxAutoGeneratedMetaDataObjects.obj
 0001:00009290       ?getPxAggregate_SelfCollision@@YA_NPBVPxAggregate@physx@@@Z 1000a290 f   PxAutoGeneratedMetaDataObjects.obj
 0001:000092a0       ?getPxAggregate_ConcreteTypeName@@YAPBDPBVPxAggregate@physx@@@Z 1000a2a0 f   PxAutoGeneratedMetaDataObjects.obj
 0001:000092b0       ?getPxConstraint_Scene@@YAPAVPxScene@physx@@PBVPxConstraint@2@@Z 1000a2b0 f   PxAutoGeneratedMetaDataObjects.obj
 0001:000092c0       ?setPxConstraint_Actors@@YAXPAVPxConstraint@physx@@PAVPxRigidActor@2@1@Z 1000a2c0 f   PxAutoGeneratedMetaDataObjects.obj
 0001:000092e0       ?getPxConstraint_Actors@@YAXPBVPxConstraint@physx@@AAPAVPxRigidActor@2@1@Z 1000a2e0 f   PxAutoGeneratedMetaDataObjects.obj
 0001:00009300       ?setPxConstraint_Flags@@YAXPAVPxConstraint@physx@@V?$PxFlags@W4Enum@PxConstraintFlag@physx@@G@2@@Z 1000a300 f   PxAutoGeneratedMetaDataObjects.obj
 0001:00009320       ?getPxConstraint_Flags@@YA?AV?$PxFlags@W4Enum@PxConstraintFlag@physx@@G@physx@@PBVPxConstraint@2@@Z 1000a320 f   PxAutoGeneratedMetaDataObjects.obj
 0001:00009340       ?getPxConstraint_IsValid@@YA_NPBVPxConstraint@physx@@@Z 1000a340 f   PxAutoGeneratedMetaDataObjects.obj
 0001:00009350       ?setPxConstraint_BreakForce@@YAXPAVPxConstraint@physx@@MM@Z 1000a350 f   PxAutoGeneratedMetaDataObjects.obj
 0001:00009380       ?getPxConstraint_BreakForce@@YAXPBVPxConstraint@physx@@AAM1@Z 1000a380 f   PxAutoGeneratedMetaDataObjects.obj
 0001:000093a0       ?setPxConstraint_MinResponseThreshold@@YAXPAVPxConstraint@physx@@M@Z 1000a3a0 f   PxAutoGeneratedMetaDataObjects.obj
 0001:000093c0       ?getPxConstraint_MinResponseThreshold@@YAMPBVPxConstraint@physx@@@Z 1000a3c0 f   PxAutoGeneratedMetaDataObjects.obj
 0001:000093d0       ?getPxConstraint_ConcreteTypeName@@YAPBDPBVPxConstraint@physx@@@Z 1000a3d0 f   PxAutoGeneratedMetaDataObjects.obj
 0001:000093e0       ?getPxShape_ReferenceCount@@YAIPBVPxShape@physx@@@Z 1000a3e0 f   PxAutoGeneratedMetaDataObjects.obj
 0001:000093f0       ?getPxShape_GeometryType@@YA?AW4Enum@PxGeometryType@physx@@PBVPxShape@3@@Z 1000a3f0 f   PxAutoGeneratedMetaDataObjects.obj
 0001:00009400       ?setPxShape_Geometry@@YAXPAVPxShape@physx@@ABVPxGeometry@2@@Z 1000a400 f   PxAutoGeneratedMetaDataObjects.obj
 0001:00009410       ?getPxShape_Geometry@@YA?AVPxGeometryHolder@physx@@PBVPxShape@2@@Z 1000a410 f   PxAutoGeneratedMetaDataObjects.obj
 0001:00009430       ?setPxShape_LocalPose@@YAXPAVPxShape@physx@@ABVPxTransform@2@@Z 1000a430 f   PxAutoGeneratedMetaDataObjects.obj
 0001:00009440       ?getPxShape_LocalPose@@YA?AVPxTransform@physx@@PBVPxShape@2@@Z 1000a440 f   PxAutoGeneratedMetaDataObjects.obj
 0001:00009460       ?setPxShape_SimulationFilterData@@YAXPAVPxShape@physx@@ABUPxFilterData@2@@Z 1000a460 f   PxAutoGeneratedMetaDataObjects.obj
 0001:00009470       ?getPxShape_SimulationFilterData@@YA?AUPxFilterData@physx@@PBVPxShape@2@@Z 1000a470 f   PxAutoGeneratedMetaDataObjects.obj
 0001:00009490       ?setPxShape_QueryFilterData@@YAXPAVPxShape@physx@@ABUPxFilterData@2@@Z 1000a490 f   PxAutoGeneratedMetaDataObjects.obj
 0001:000094a0       ?getPxShape_QueryFilterData@@YA?AUPxFilterData@physx@@PBVPxShape@2@@Z 1000a4a0 f   PxAutoGeneratedMetaDataObjects.obj
 0001:000094c0       ?getPxShape_Materials@@YAIPBVPxShape@physx@@PAPAVPxMaterial@2@I@Z 1000a4c0 f   PxAutoGeneratedMetaDataObjects.obj
 0001:000094e0       ?getNbPxShape_Materials@@YAIPBVPxShape@physx@@@Z 1000a4e0 f   PxAutoGeneratedMetaDataObjects.obj
 0001:000094f0       ?setPxShape_ContactOffset@@YAXPAVPxShape@physx@@M@Z 1000a4f0 f   PxAutoGeneratedMetaDataObjects.obj
 0001:00009510       ?getPxShape_ContactOffset@@YAMPBVPxShape@physx@@@Z 1000a510 f   PxAutoGeneratedMetaDataObjects.obj
 0001:00009520       ?setPxShape_RestOffset@@YAXPAVPxShape@physx@@M@Z 1000a520 f   PxAutoGeneratedMetaDataObjects.obj
 0001:00009540       ?getPxShape_RestOffset@@YAMPBVPxShape@physx@@@Z 1000a540 f   PxAutoGeneratedMetaDataObjects.obj
 0001:00009550       ?setPxShape_TorsionalPatchRadius@@YAXPAVPxShape@physx@@M@Z 1000a550 f   PxAutoGeneratedMetaDataObjects.obj
 0001:00009570       ?getPxShape_TorsionalPatchRadius@@YAMPBVPxShape@physx@@@Z 1000a570 f   PxAutoGeneratedMetaDataObjects.obj
 0001:00009580       ?setPxShape_MinTorsionalPatchRadius@@YAXPAVPxShape@physx@@M@Z 1000a580 f   PxAutoGeneratedMetaDataObjects.obj
 0001:000095a0       ?getPxShape_MinTorsionalPatchRadius@@YAMPBVPxShape@physx@@@Z 1000a5a0 f   PxAutoGeneratedMetaDataObjects.obj
 0001:000095b0       ?setPxShape_Flags@@YAXPAVPxShape@physx@@V?$PxFlags@W4Enum@PxShapeFlag@physx@@E@2@@Z 1000a5b0 f   PxAutoGeneratedMetaDataObjects.obj
 0001:000095d0       ?getPxShape_Flags@@YA?AV?$PxFlags@W4Enum@PxShapeFlag@physx@@E@physx@@PBVPxShape@2@@Z 1000a5d0 f   PxAutoGeneratedMetaDataObjects.obj
 0001:000095f0       ?getPxShape_IsExclusive@@YA_NPBVPxShape@physx@@@Z 1000a5f0 f   PxAutoGeneratedMetaDataObjects.obj
 0001:00009600       ?setPxShape_Name@@YAXPAVPxShape@physx@@PBD@Z 1000a600 f   PxAutoGeneratedMetaDataObjects.obj
 0001:00009620       ?getPxShape_Name@@YAPBDPBVPxShape@physx@@@Z 1000a620 f   PxAutoGeneratedMetaDataObjects.obj
 0001:00009630       ?getPxShape_ConcreteTypeName@@YAPBDPBVPxShape@physx@@@Z 1000a630 f   PxAutoGeneratedMetaDataObjects.obj
 0001:00009640       ?getPxPruningStructure_RigidActors@@YAIPBVPxPruningStructure@physx@@PAPAVPxRigidActor@2@I@Z 1000a640 f   PxAutoGeneratedMetaDataObjects.obj
 0001:00009660       ?getNbPxPruningStructure_RigidActors@@YAIPBVPxPruningStructure@physx@@@Z 1000a660 f   PxAutoGeneratedMetaDataObjects.obj
 0001:00009670       ?getPxPruningStructure_ConcreteTypeName@@YAPBDPBVPxPruningStructure@physx@@@Z 1000a670 f   PxAutoGeneratedMetaDataObjects.obj
 0001:00009680       ?getPxTolerancesScale_IsValid@@YA_NPBVPxTolerancesScale@physx@@@Z 1000a680 f   PxAutoGeneratedMetaDataObjects.obj
 0001:000096a0       ?getPxScene_Flags@@YA?AV?$PxFlags@W4Enum@PxSceneFlag@physx@@I@physx@@PBVPxScene@2@@Z 1000a6a0 f   PxAutoGeneratedMetaDataObjects.obj
 0001:000096c0       ?setPxScene_Limits@@YAXPAVPxScene@physx@@ABVPxSceneLimits@2@@Z 1000a6c0 f   PxAutoGeneratedMetaDataObjects.obj
 0001:000096d0       ?getPxScene_Limits@@YA?AVPxSceneLimits@physx@@PBVPxScene@2@@Z 1000a6d0 f   PxAutoGeneratedMetaDataObjects.obj
 0001:000096f0       ?getPxScene_Timestamp@@YAIPBVPxScene@physx@@@Z 1000a6f0 f   PxAutoGeneratedMetaDataObjects.obj
 0001:00009700       ?getPxScene_Actors@@YAIPBVPxScene@physx@@V?$PxFlags@W4Enum@PxActorTypeFlag@physx@@G@2@PAPAVPxActor@2@I@Z 1000a700 f   PxAutoGeneratedMetaDataObjects.obj
 0001:00009720       ?getNbPxScene_Actors@@YAIPBVPxScene@physx@@V?$PxFlags@W4Enum@PxActorTypeFlag@physx@@G@2@@Z 1000a720 f   PxAutoGeneratedMetaDataObjects.obj
 0001:00009740       ?getPxScene_Articulations@@YAIPBVPxScene@physx@@PAPAVPxArticulationBase@2@I@Z 1000a740 f   PxAutoGeneratedMetaDataObjects.obj
 0001:00009760       ?getNbPxScene_Articulations@@YAIPBVPxScene@physx@@@Z 1000a760 f   PxAutoGeneratedMetaDataObjects.obj
 0001:00009770       ?getPxScene_Constraints@@YAIPBVPxScene@physx@@PAPAVPxConstraint@2@I@Z 1000a770 f   PxAutoGeneratedMetaDataObjects.obj
 0001:00009790       ?getNbPxScene_Constraints@@YAIPBVPxScene@physx@@@Z 1000a790 f   PxAutoGeneratedMetaDataObjects.obj
 0001:000097a0       ?getPxScene_Aggregates@@YAIPBVPxScene@physx@@PAPAVPxAggregate@2@I@Z 1000a7a0 f   PxAutoGeneratedMetaDataObjects.obj
 0001:000097c0       ?getNbPxScene_Aggregates@@YAIPBVPxScene@physx@@@Z 1000a7c0 f   PxAutoGeneratedMetaDataObjects.obj
 0001:000097d0       ?getPxScene_CpuDispatcher@@YAPAVPxCpuDispatcher@physx@@PBVPxScene@2@@Z 1000a7d0 f   PxAutoGeneratedMetaDataObjects.obj
 0001:000097e0       ?getPxScene_CudaContextManager@@YAPAVPxCudaContextManager@physx@@PBVPxScene@2@@Z 1000a7e0 f   PxAutoGeneratedMetaDataObjects.obj
 0001:000097f0       ?setPxScene_SimulationEventCallback@@YAXPAVPxScene@physx@@PAVPxSimulationEventCallback@2@@Z 1000a7f0 f   PxAutoGeneratedMetaDataObjects.obj
 0001:00009810       ?getPxScene_SimulationEventCallback@@YAPAVPxSimulationEventCallback@physx@@PBVPxScene@2@@Z 1000a810 f   PxAutoGeneratedMetaDataObjects.obj
 0001:00009820       ?setPxScene_ContactModifyCallback@@YAXPAVPxScene@physx@@PAVPxContactModifyCallback@2@@Z 1000a820 f   PxAutoGeneratedMetaDataObjects.obj
 0001:00009840       ?getPxScene_ContactModifyCallback@@YAPAVPxContactModifyCallback@physx@@PBVPxScene@2@@Z 1000a840 f   PxAutoGeneratedMetaDataObjects.obj
 0001:00009850       ?setPxScene_CCDContactModifyCallback@@YAXPAVPxScene@physx@@PAVPxCCDContactModifyCallback@2@@Z 1000a850 f   PxAutoGeneratedMetaDataObjects.obj
 0001:00009870       ?getPxScene_CCDContactModifyCallback@@YAPAVPxCCDContactModifyCallback@physx@@PBVPxScene@2@@Z 1000a870 f   PxAutoGeneratedMetaDataObjects.obj
 0001:00009880       ?setPxScene_BroadPhaseCallback@@YAXPAVPxScene@physx@@PAVPxBroadPhaseCallback@2@@Z 1000a880 f   PxAutoGeneratedMetaDataObjects.obj
 0001:000098a0       ?getPxScene_BroadPhaseCallback@@YAPAVPxBroadPhaseCallback@physx@@PBVPxScene@2@@Z 1000a8a0 f   PxAutoGeneratedMetaDataObjects.obj
 0001:000098b0       ?getPxScene_FilterShaderDataSize@@YAIPBVPxScene@physx@@@Z 1000a8b0 f   PxAutoGeneratedMetaDataObjects.obj
 0001:000098c0       ?getPxScene_FilterShader@@YAP6A?AV?$PxFlags@W4Enum@PxFilterFlag@physx@@G@physx@@IUPxFilterData@2@I0AAV?$PxFlags@W4Enum@PxPairFlag@physx@@G@2@PBXI@ZPBVPxScene@2@@Z 1000a8c0 f   PxAutoGeneratedMetaDataObjects.obj
 0001:000098d0       ?getPxScene_FilterCallback@@YAPAVPxSimulationFilterCallback@physx@@PBVPxScene@2@@Z 1000a8d0 f   PxAutoGeneratedMetaDataObjects.obj
 0001:000098e0       ?getPxScene_KinematicKinematicFilteringMode@@YA?AW4Enum@PxPairFilteringMode@physx@@PBVPxScene@3@@Z 1000a8e0 f   PxAutoGeneratedMetaDataObjects.obj
 0001:000098f0       ?getPxScene_StaticKinematicFilteringMode@@YA?AW4Enum@PxPairFilteringMode@physx@@PBVPxScene@3@@Z 1000a8f0 f   PxAutoGeneratedMetaDataObjects.obj
 0001:00009900       ?setPxScene_Gravity@@YAXPAVPxScene@physx@@ABVPxVec3@2@@Z 1000a900 f   PxAutoGeneratedMetaDataObjects.obj
 0001:00009920       ?getPxScene_Gravity@@YA?AVPxVec3@physx@@PBVPxScene@2@@Z 1000a920 f   PxAutoGeneratedMetaDataObjects.obj
 0001:00009940       ?setPxScene_BounceThresholdVelocity@@YAXPAVPxScene@physx@@M@Z 1000a940 f   PxAutoGeneratedMetaDataObjects.obj
 0001:00009960       ?getPxScene_BounceThresholdVelocity@@YAMPBVPxScene@physx@@@Z 1000a960 f   PxAutoGeneratedMetaDataObjects.obj
 0001:00009970       ?setPxScene_CCDMaxPasses@@YAXPAVPxScene@physx@@I@Z 1000a970 f   PxAutoGeneratedMetaDataObjects.obj
 0001:00009990       ?getPxScene_CCDMaxPasses@@YAIPBVPxScene@physx@@@Z 1000a990 f   PxAutoGeneratedMetaDataObjects.obj
 0001:000099a0       ?getPxScene_FrictionOffsetThreshold@@YAMPBVPxScene@physx@@@Z 1000a9a0 f   PxAutoGeneratedMetaDataObjects.obj
 0001:000099b0       ?setPxScene_FrictionType@@YAXPAVPxScene@physx@@W4Enum@PxFrictionType@2@@Z 1000a9b0 f   PxAutoGeneratedMetaDataObjects.obj
 0001:000099d0       ?getPxScene_FrictionType@@YA?AW4Enum@PxFrictionType@physx@@PBVPxScene@3@@Z 1000a9d0 f   PxAutoGeneratedMetaDataObjects.obj
 0001:000099e0       ?setPxScene_VisualizationCullingBox@@YAXPAVPxScene@physx@@ABVPxBounds3@2@@Z 1000a9e0 f   PxAutoGeneratedMetaDataObjects.obj
 0001:00009a00       ?getPxScene_VisualizationCullingBox@@YA?AVPxBounds3@physx@@PBVPxScene@2@@Z 1000aa00 f   PxAutoGeneratedMetaDataObjects.obj
 0001:00009a20       ?getPxScene_StaticStructure@@YA?AW4Enum@PxPruningStructureType@physx@@PBVPxScene@3@@Z 1000aa20 f   PxAutoGeneratedMetaDataObjects.obj
 0001:00009a30       ?getPxScene_DynamicStructure@@YA?AW4Enum@PxPruningStructureType@physx@@PBVPxScene@3@@Z 1000aa30 f   PxAutoGeneratedMetaDataObjects.obj
 0001:00009a40       ?setPxScene_DynamicTreeRebuildRateHint@@YAXPAVPxScene@physx@@I@Z 1000aa40 f   PxAutoGeneratedMetaDataObjects.obj
 0001:00009a60       ?getPxScene_DynamicTreeRebuildRateHint@@YAIPBVPxScene@physx@@@Z 1000aa60 f   PxAutoGeneratedMetaDataObjects.obj
 0001:00009a70       ?setPxScene_SceneQueryUpdateMode@@YAXPAVPxScene@physx@@W4Enum@PxSceneQueryUpdateMode@2@@Z 1000aa70 f   PxAutoGeneratedMetaDataObjects.obj
 0001:00009a90       ?getPxScene_SceneQueryUpdateMode@@YA?AW4Enum@PxSceneQueryUpdateMode@physx@@PBVPxScene@3@@Z 1000aa90 f   PxAutoGeneratedMetaDataObjects.obj
 0001:00009aa0       ?getPxScene_SceneQueryStaticTimestamp@@YAIPBVPxScene@physx@@@Z 1000aaa0 f   PxAutoGeneratedMetaDataObjects.obj
 0001:00009ab0       ?getPxScene_BroadPhaseType@@YA?AW4Enum@PxBroadPhaseType@physx@@PBVPxScene@3@@Z 1000aab0 f   PxAutoGeneratedMetaDataObjects.obj
 0001:00009ac0       ?getPxScene_BroadPhaseRegions@@YAIPBVPxScene@physx@@PAUPxBroadPhaseRegionInfo@2@I@Z 1000aac0 f   PxAutoGeneratedMetaDataObjects.obj
 0001:00009ae0       ?getNbPxScene_BroadPhaseRegions@@YAIPBVPxScene@physx@@@Z 1000aae0 f   PxAutoGeneratedMetaDataObjects.obj
 0001:00009af0       ?getPxScene_TaskManager@@YAPAVPxTaskManager@physx@@PBVPxScene@2@@Z 1000aaf0 f   PxAutoGeneratedMetaDataObjects.obj
 0001:00009b00       ?setPxScene_NbContactDataBlocks@@YAXPAVPxScene@physx@@I@Z 1000ab00 f   PxAutoGeneratedMetaDataObjects.obj
 0001:00009b20       ?getPxScene_MaxNbContactDataBlocksUsed@@YAIPBVPxScene@physx@@@Z 1000ab20 f   PxAutoGeneratedMetaDataObjects.obj
 0001:00009b30       ?getPxScene_ContactReportStreamBufferSize@@YAIPBVPxScene@physx@@@Z 1000ab30 f   PxAutoGeneratedMetaDataObjects.obj
 0001:00009b40       ?setPxScene_SolverBatchSize@@YAXPAVPxScene@physx@@I@Z 1000ab40 f   PxAutoGeneratedMetaDataObjects.obj
 0001:00009b60       ?getPxScene_SolverBatchSize@@YAIPBVPxScene@physx@@@Z 1000ab60 f   PxAutoGeneratedMetaDataObjects.obj
 0001:00009b70       ?setPxScene_SolverArticulationBatchSize@@YAXPAVPxScene@physx@@I@Z 1000ab70 f   PxAutoGeneratedMetaDataObjects.obj
 0001:00009b90       ?getPxScene_SolverArticulationBatchSize@@YAIPBVPxScene@physx@@@Z 1000ab90 f   PxAutoGeneratedMetaDataObjects.obj
 0001:00009ba0       ?getPxScene_WakeCounterResetValue@@YAMPBVPxScene@physx@@@Z 1000aba0 f   PxAutoGeneratedMetaDataObjects.obj
 0001:00009bb0       ?setPxSceneDesc_ToDefault@@YAXPAVPxSceneDesc@physx@@ABVPxTolerancesScale@2@@Z 1000abb0 f   PxAutoGeneratedMetaDataObjects.obj
 0001:00009e20       ??_H@YGXPAXIIP6EPAX0@Z@Z   1000ae20 f i PxAutoGeneratedMetaDataObjects.obj
 0001:00009e50       ?getPxActorUserData@@YAPAXPBVPxActor@physx@@@Z 1000ae50 f i PxAutoGeneratedMetaDataObjects.obj
 0001:00009e60       ?getPxArticulationBaseUserData@@YAPAXPBVPxArticulationBase@physx@@@Z 1000ae60 f i PxAutoGeneratedMetaDataObjects.obj
 0001:00009e70       ?getPxBoxGeometryHalfExtents@@YA?AVPxVec3@physx@@PBVPxBoxGeometry@2@@Z 1000ae70 f i PxAutoGeneratedMetaDataObjects.obj
 0001:00009e90       ?getPxCapsuleGeometryHalfHeight@@YAMPBVPxCapsuleGeometry@physx@@@Z 1000ae90 f i PxAutoGeneratedMetaDataObjects.obj
 0001:00009ea0       ?getPxCapsuleGeometryRadius@@YAMPBVPxCapsuleGeometry@physx@@@Z 1000aea0 f i PxAutoGeneratedMetaDataObjects.obj
 0001:00009eb0       ?getPxConvexMeshGeometryConvexMesh@@YAPAVPxConvexMesh@physx@@PBVPxConvexMeshGeometry@2@@Z 1000aeb0 f i PxAutoGeneratedMetaDataObjects.obj
 0001:00009ec0       ?getPxConvexMeshGeometryMeshFlags@@YA?AV?$PxFlags@W4Enum@PxConvexMeshGeometryFlag@physx@@E@physx@@PBVPxConvexMeshGeometry@2@@Z 1000aec0 f i PxAutoGeneratedMetaDataObjects.obj
 0001:00009ed0       ?getPxConvexMeshGeometryScale@@YA?AVPxMeshScale@physx@@PBVPxConvexMeshGeometry@2@@Z 1000aed0 f i PxAutoGeneratedMetaDataObjects.obj
 0001:00009f10       ?getPxHeightFieldDescConvexEdgeThreshold@@YAMPBVPxHeightFieldDesc@physx@@@Z 1000af10 f i PxAutoGeneratedMetaDataObjects.obj
 0001:00009f20       ?getPxHeightFieldDescFlags@@YA?AV?$PxFlags@W4Enum@PxHeightFieldFlag@physx@@G@physx@@PBVPxHeightFieldDesc@2@@Z 1000af20 f i PxAutoGeneratedMetaDataObjects.obj
 0001:00009f30       ?getPxHeightFieldDescFormat@@YA?AW4Enum@PxHeightFieldFormat@physx@@PBVPxHeightFieldDesc@3@@Z 1000af30 f i PxAutoGeneratedMetaDataObjects.obj
 0001:00009f40       ?getPxHeightFieldDescNbColumns@@YAIPBVPxHeightFieldDesc@physx@@@Z 1000af40 f i PxAutoGeneratedMetaDataObjects.obj
 0001:00009f50       ?getPxHeightFieldDescNbRows@@YAIPBVPxHeightFieldDesc@physx@@@Z 1000af50 f i PxAutoGeneratedMetaDataObjects.obj
 0001:00009f60       ?getPxHeightFieldDescSamples@@YA?AUPxStridedData@physx@@PBVPxHeightFieldDesc@2@@Z 1000af60 f i PxAutoGeneratedMetaDataObjects.obj
 0001:00009f80       ?getPxHeightFieldGeometryColumnScale@@YAMPBVPxHeightFieldGeometry@physx@@@Z 1000af80 f i PxAutoGeneratedMetaDataObjects.obj
 0001:00009f90       ?getPxHeightFieldGeometryHeightField@@YAPAVPxHeightField@physx@@PBVPxHeightFieldGeometry@2@@Z 1000af90 f i PxAutoGeneratedMetaDataObjects.obj
 0001:00009fa0       ?getPxHeightFieldGeometryHeightFieldFlags@@YA?AV?$PxFlags@W4Enum@PxMeshGeometryFlag@physx@@E@physx@@PBVPxHeightFieldGeometry@2@@Z 1000afa0 f i PxAutoGeneratedMetaDataObjects.obj
 0001:00009fb0       ?getPxHeightFieldGeometryHeightScale@@YAMPBVPxHeightFieldGeometry@physx@@@Z 1000afb0 f i PxAutoGeneratedMetaDataObjects.obj
 0001:00009fc0       ?getPxHeightFieldGeometryRowScale@@YAMPBVPxHeightFieldGeometry@physx@@@Z 1000afc0 f i PxAutoGeneratedMetaDataObjects.obj
 0001:00009fd0       ?getPxMaterialUserData@@YAPAXPBVPxMaterial@physx@@@Z 1000afd0 f i PxAutoGeneratedMetaDataObjects.obj
 0001:00009fe0       ?getPxMeshScaleRotation@@YA?AVPxQuat@physx@@PBVPxMeshScale@2@@Z 1000afe0 f i PxAutoGeneratedMetaDataObjects.obj
 0001:0000a000       ?getPxMeshScaleScale@@YA?AVPxVec3@physx@@PBVPxMeshScale@2@@Z 1000b000 f i PxAutoGeneratedMetaDataObjects.obj
 0001:0000a020       ?getPxSceneDescBounceThresholdVelocity@@YAMPBVPxSceneDesc@physx@@@Z 1000b020 f i PxAutoGeneratedMetaDataObjects.obj
 0001:0000a030       ?getPxSceneDescBroadPhaseCallback@@YAPAVPxBroadPhaseCallback@physx@@PBVPxSceneDesc@2@@Z 1000b030 f i PxAutoGeneratedMetaDataObjects.obj
 0001:0000a040       ?getPxSceneDescBroadPhaseType@@YA?AW4Enum@PxBroadPhaseType@physx@@PBVPxSceneDesc@3@@Z 1000b040 f i PxAutoGeneratedMetaDataObjects.obj
 0001:0000a050       ?getPxSceneDescCcdContactModifyCallback@@YAPAVPxCCDContactModifyCallback@physx@@PBVPxSceneDesc@2@@Z 1000b050 f i PxAutoGeneratedMetaDataObjects.obj
 0001:0000a060       ?getPxSceneDescCcdMaxPasses@@YAIPBVPxSceneDesc@physx@@@Z 1000b060 f i PxAutoGeneratedMetaDataObjects.obj
 0001:0000a070       ?getPxSceneDescCcdMaxSeparation@@YAMPBVPxSceneDesc@physx@@@Z 1000b070 f i PxAutoGeneratedMetaDataObjects.obj
 0001:0000a080       ?getPxSceneDescCcdThreshold@@YAMPBVPxSceneDesc@physx@@@Z 1000b080 f i PxAutoGeneratedMetaDataObjects.obj
 0001:0000a090       ?getPxSceneDescContactModifyCallback@@YAPAVPxContactModifyCallback@physx@@PBVPxSceneDesc@2@@Z 1000b090 f i PxAutoGeneratedMetaDataObjects.obj
 0001:0000a0a0       ?getPxSceneDescContactReportStreamBufferSize@@YAIPBVPxSceneDesc@physx@@@Z 1000b0a0 f i PxAutoGeneratedMetaDataObjects.obj
 0001:0000a0b0       ?getPxSceneDescCpuDispatcher@@YAPAVPxCpuDispatcher@physx@@PBVPxSceneDesc@2@@Z 1000b0b0 f i PxAutoGeneratedMetaDataObjects.obj
 0001:0000a0c0       ?getPxSceneDescCudaContextManager@@YAPAVPxCudaContextManager@physx@@PBVPxSceneDesc@2@@Z 1000b0c0 f i PxAutoGeneratedMetaDataObjects.obj
 0001:0000a0d0       ?getPxSceneDescDynamicStructure@@YA?AW4Enum@PxPruningStructureType@physx@@PBVPxSceneDesc@3@@Z 1000b0d0 f i PxAutoGeneratedMetaDataObjects.obj
 0001:0000a0e0       ?getPxSceneDescDynamicTreeRebuildRateHint@@YAIPBVPxSceneDesc@physx@@@Z 1000b0e0 f i PxAutoGeneratedMetaDataObjects.obj
 0001:0000a0f0       ?getPxSceneDescFilterCallback@@YAPAVPxSimulationFilterCallback@physx@@PBVPxSceneDesc@2@@Z 1000b0f0 f i PxAutoGeneratedMetaDataObjects.obj
 0001:0000a100       ?getPxSceneDescFilterShader@@YAP6A?AV?$PxFlags@W4Enum@PxFilterFlag@physx@@G@physx@@IUPxFilterData@2@I0AAV?$PxFlags@W4Enum@PxPairFlag@physx@@G@2@PBXI@ZPBVPxSceneDesc@2@@Z 1000b100 f i PxAutoGeneratedMetaDataObjects.obj
 0001:0000a110       ?getPxSceneDescFilterShaderData@@YAPBXPBVPxSceneDesc@physx@@@Z 1000b110 f i PxAutoGeneratedMetaDataObjects.obj
 0001:0000a120       ?getPxSceneDescFilterShaderDataSize@@YAIPBVPxSceneDesc@physx@@@Z 1000b120 f i PxAutoGeneratedMetaDataObjects.obj
 0001:0000a130       ?getPxSceneDescFlags@@YA?AV?$PxFlags@W4Enum@PxSceneFlag@physx@@I@physx@@PBVPxSceneDesc@2@@Z 1000b130 f i PxAutoGeneratedMetaDataObjects.obj
 0001:0000a140       ?getPxSceneDescFrictionOffsetThreshold@@YAMPBVPxSceneDesc@physx@@@Z 1000b140 f i PxAutoGeneratedMetaDataObjects.obj
 0001:0000a150       ?getPxSceneDescFrictionType@@YA?AW4Enum@PxFrictionType@physx@@PBVPxSceneDesc@3@@Z 1000b150 f i PxAutoGeneratedMetaDataObjects.obj
 0001:0000a160       ?getPxSceneDescGpuComputeVersion@@YAIPBVPxSceneDesc@physx@@@Z 1000b160 f i PxAutoGeneratedMetaDataObjects.obj
 0001:0000a170       ?getPxSceneDescGpuDynamicsConfig@@YA?AUPxgDynamicsMemoryConfig@physx@@PBVPxSceneDesc@2@@Z 1000b170 f i PxAutoGeneratedMetaDataObjects.obj
 0001:0000a190       ?getPxSceneDescGpuMaxNumPartitions@@YAIPBVPxSceneDesc@physx@@@Z 1000b190 f i PxAutoGeneratedMetaDataObjects.obj
 0001:0000a1a0       ?getPxSceneDescGravity@@YA?AVPxVec3@physx@@PBVPxSceneDesc@2@@Z 1000b1a0 f i PxAutoGeneratedMetaDataObjects.obj
 0001:0000a1c0       ?getPxSceneDescKineKineFilteringMode@@YA?AW4Enum@PxPairFilteringMode@physx@@PBVPxSceneDesc@3@@Z 1000b1c0 f i PxAutoGeneratedMetaDataObjects.obj
 0001:0000a1d0       ?getPxSceneDescLimits@@YA?AVPxSceneLimits@physx@@PBVPxSceneDesc@2@@Z 1000b1d0 f i PxAutoGeneratedMetaDataObjects.obj
 0001:0000a1f0       ?getPxSceneDescMaxBiasCoefficient@@YAMPBVPxSceneDesc@physx@@@Z 1000b1f0 f i PxAutoGeneratedMetaDataObjects.obj
 0001:0000a200       ?getPxSceneDescMaxNbContactDataBlocks@@YAIPBVPxSceneDesc@physx@@@Z 1000b200 f i PxAutoGeneratedMetaDataObjects.obj
 0001:0000a210       ?getPxSceneDescNbContactDataBlocks@@YAIPBVPxSceneDesc@physx@@@Z 1000b210 f i PxAutoGeneratedMetaDataObjects.obj
 0001:0000a220       ?getPxSceneDescSanityBounds@@YA?AVPxBounds3@physx@@PBVPxSceneDesc@2@@Z 1000b220 f i PxAutoGeneratedMetaDataObjects.obj
 0001:0000a270       ?getPxSceneDescSceneQueryUpdateMode@@YA?AW4Enum@PxSceneQueryUpdateMode@physx@@PBVPxSceneDesc@3@@Z 1000b270 f i PxAutoGeneratedMetaDataObjects.obj
 0001:0000a280       ?getPxSceneDescSimulationEventCallback@@YAPAVPxSimulationEventCallback@physx@@PBVPxSceneDesc@2@@Z 1000b280 f i PxAutoGeneratedMetaDataObjects.obj
 0001:0000a290       ?getPxSceneDescSolverArticulationBatchSize@@YAIPBVPxSceneDesc@physx@@@Z 1000b290 f i PxAutoGeneratedMetaDataObjects.obj
 0001:0000a2a0       ?getPxSceneDescSolverBatchSize@@YAIPBVPxSceneDesc@physx@@@Z 1000b2a0 f i PxAutoGeneratedMetaDataObjects.obj
 0001:0000a2b0       ?getPxSceneDescSolverOffsetSlop@@YAMPBVPxSceneDesc@physx@@@Z 1000b2b0 f i PxAutoGeneratedMetaDataObjects.obj
 0001:0000a2c0       ?getPxSceneDescSolverType@@YA?AW4Enum@PxSolverType@physx@@PBVPxSceneDesc@3@@Z 1000b2c0 f i PxAutoGeneratedMetaDataObjects.obj
 0001:0000a2d0       ?getPxSceneDescStaticKineFilteringMode@@YA?AW4Enum@PxPairFilteringMode@physx@@PBVPxSceneDesc@3@@Z 1000b2d0 f i PxAutoGeneratedMetaDataObjects.obj
 0001:0000a2e0       ?getPxSceneDescStaticStructure@@YA?AW4Enum@PxPruningStructureType@physx@@PBVPxSceneDesc@3@@Z 1000b2e0 f i PxAutoGeneratedMetaDataObjects.obj
 0001:0000a2f0       ?getPxSceneDescUserData@@YAPAXPBVPxSceneDesc@physx@@@Z 1000b2f0 f i PxAutoGeneratedMetaDataObjects.obj
 0001:0000a300       ?getPxSceneDescWakeCounterResetValue@@YAMPBVPxSceneDesc@physx@@@Z 1000b300 f i PxAutoGeneratedMetaDataObjects.obj
 0001:0000a310       ?getPxSceneLimitsMaxNbActors@@YAIPBVPxSceneLimits@physx@@@Z 1000b310 f i PxAutoGeneratedMetaDataObjects.obj
 0001:0000a320       ?getPxSceneLimitsMaxNbAggregates@@YAIPBVPxSceneLimits@physx@@@Z 1000b320 f i PxAutoGeneratedMetaDataObjects.obj
 0001:0000a330       ?getPxSceneLimitsMaxNbBodies@@YAIPBVPxSceneLimits@physx@@@Z 1000b330 f i PxAutoGeneratedMetaDataObjects.obj
 0001:0000a340       ?getPxSceneLimitsMaxNbBroadPhaseOverlaps@@YAIPBVPxSceneLimits@physx@@@Z 1000b340 f i PxAutoGeneratedMetaDataObjects.obj
 0001:0000a350       ?getPxSceneLimitsMaxNbConstraints@@YAIPBVPxSceneLimits@physx@@@Z 1000b350 f i PxAutoGeneratedMetaDataObjects.obj
 0001:0000a360       ?getPxSceneLimitsMaxNbDynamicShapes@@YAIPBVPxSceneLimits@physx@@@Z 1000b360 f i PxAutoGeneratedMetaDataObjects.obj
 0001:0000a370       ?getPxSceneLimitsMaxNbRegions@@YAIPBVPxSceneLimits@physx@@@Z 1000b370 f i PxAutoGeneratedMetaDataObjects.obj
 0001:0000a380       ?getPxSceneLimitsMaxNbStaticShapes@@YAIPBVPxSceneLimits@physx@@@Z 1000b380 f i PxAutoGeneratedMetaDataObjects.obj
 0001:0000a390       ?getPxSceneUserData@@YAPAXPBVPxScene@physx@@@Z 1000b390 f i PxAutoGeneratedMetaDataObjects.obj
 0001:0000a3a0       ?getPxShapeUserData@@YAPAXPBVPxShape@physx@@@Z 1000b3a0 f i PxAutoGeneratedMetaDataObjects.obj
 0001:0000a3b0       ?getPxSimulationStatisticsCompressedContactSize@@YAIPBVPxSimulationStatistics@physx@@@Z 1000b3b0 f i PxAutoGeneratedMetaDataObjects.obj
 0001:0000a3c0       ?getPxSimulationStatisticsNbActiveConstraints@@YAIPBVPxSimulationStatistics@physx@@@Z 1000b3c0 f i PxAutoGeneratedMetaDataObjects.obj
 0001:0000a3d0       ?getPxSimulationStatisticsNbActiveDynamicBodies@@YAIPBVPxSimulationStatistics@physx@@@Z 1000b3d0 f i PxAutoGeneratedMetaDataObjects.obj
 0001:0000a3e0       ?getPxSimulationStatisticsNbActiveKinematicBodies@@YAIPBVPxSimulationStatistics@physx@@@Z 1000b3e0 f i PxAutoGeneratedMetaDataObjects.obj
 0001:0000a3f0       ?getPxSimulationStatisticsNbAggregates@@YAIPBVPxSimulationStatistics@physx@@@Z 1000b3f0 f i PxAutoGeneratedMetaDataObjects.obj
 0001:0000a400       ?getPxSimulationStatisticsNbArticulations@@YAIPBVPxSimulationStatistics@physx@@@Z 1000b400 f i PxAutoGeneratedMetaDataObjects.obj
 0001:0000a410       ?getPxSimulationStatisticsNbAxisSolverConstraints@@YAIPBVPxSimulationStatistics@physx@@@Z 1000b410 f i PxAutoGeneratedMetaDataObjects.obj
 0001:0000a420       ?getPxSimulationStatisticsNbBroadPhaseAdds@@YAIPBVPxSimulationStatistics@physx@@@Z 1000b420 f i PxAutoGeneratedMetaDataObjects.obj
 0001:0000a430       ?getPxSimulationStatisticsNbBroadPhaseRemoves@@YAIPBVPxSimulationStatistics@physx@@@Z 1000b430 f i PxAutoGeneratedMetaDataObjects.obj
 0001:0000a440       ?getPxSimulationStatisticsNbDiscreteContactPairsTotal@@YAIPBVPxSimulationStatistics@physx@@@Z 1000b440 f i PxAutoGeneratedMetaDataObjects.obj
 0001:0000a450       ?getPxSimulationStatisticsNbDiscreteContactPairsWithCacheHits@@YAIPBVPxSimulationStatistics@physx@@@Z 1000b450 f i PxAutoGeneratedMetaDataObjects.obj
 0001:0000a460       ?getPxSimulationStatisticsNbDiscreteContactPairsWithContacts@@YAIPBVPxSimulationStatistics@physx@@@Z 1000b460 f i PxAutoGeneratedMetaDataObjects.obj
 0001:0000a470       ?getPxSimulationStatisticsNbDynamicBodies@@YAIPBVPxSimulationStatistics@physx@@@Z 1000b470 f i PxAutoGeneratedMetaDataObjects.obj
 0001:0000a480       ?getPxSimulationStatisticsNbKinematicBodies@@YAIPBVPxSimulationStatistics@physx@@@Z 1000b480 f i PxAutoGeneratedMetaDataObjects.obj
 0001:0000a490       ?getPxSimulationStatisticsNbLostPairs@@YAIPBVPxSimulationStatistics@physx@@@Z 1000b490 f i PxAutoGeneratedMetaDataObjects.obj
 0001:0000a4a0       ?getPxSimulationStatisticsNbLostTouches@@YAIPBVPxSimulationStatistics@physx@@@Z 1000b4a0 f i PxAutoGeneratedMetaDataObjects.obj
 0001:0000a4b0       ?getPxSimulationStatisticsNbNewPairs@@YAIPBVPxSimulationStatistics@physx@@@Z 1000b4b0 f i PxAutoGeneratedMetaDataObjects.obj
 0001:0000a4c0       ?getPxSimulationStatisticsNbNewTouches@@YAIPBVPxSimulationStatistics@physx@@@Z 1000b4c0 f i PxAutoGeneratedMetaDataObjects.obj
 0001:0000a4d0       ?getPxSimulationStatisticsNbPartitions@@YAIPBVPxSimulationStatistics@physx@@@Z 1000b4d0 f i PxAutoGeneratedMetaDataObjects.obj
 0001:0000a4e0       ?getPxSimulationStatisticsNbStaticBodies@@YAIPBVPxSimulationStatistics@physx@@@Z 1000b4e0 f i PxAutoGeneratedMetaDataObjects.obj
 0001:0000a4f0       ?getPxSimulationStatisticsPeakConstraintMemory@@YAIPBVPxSimulationStatistics@physx@@@Z 1000b4f0 f i PxAutoGeneratedMetaDataObjects.obj
 0001:0000a500       ?getPxSimulationStatisticsRequiredContactConstraintMemory@@YAIPBVPxSimulationStatistics@physx@@@Z 1000b500 f i PxAutoGeneratedMetaDataObjects.obj
 0001:0000a510       ?getPxSphereGeometryRadius@@YAMPBVPxSphereGeometry@physx@@@Z 1000b510 f i PxAutoGeneratedMetaDataObjects.obj
 0001:0000a520       ?getPxTolerancesScaleLength@@YAMPBVPxTolerancesScale@physx@@@Z 1000b520 f i PxAutoGeneratedMetaDataObjects.obj
 0001:0000a530       ?getPxTolerancesScaleSpeed@@YAMPBVPxTolerancesScale@physx@@@Z 1000b530 f i PxAutoGeneratedMetaDataObjects.obj
 0001:0000a540       ?getPxTriangleMeshGeometryMeshFlags@@YA?AV?$PxFlags@W4Enum@PxMeshGeometryFlag@physx@@E@physx@@PBVPxTriangleMeshGeometry@2@@Z 1000b540 f i PxAutoGeneratedMetaDataObjects.obj
 0001:0000a550       ?getPxTriangleMeshGeometryScale@@YA?AVPxMeshScale@physx@@PBVPxTriangleMeshGeometry@2@@Z 1000b550 f i PxAutoGeneratedMetaDataObjects.obj
 0001:0000a590       ?getPxTriangleMeshGeometryTriangleMesh@@YAPAVPxTriangleMesh@physx@@PBVPxTriangleMeshGeometry@2@@Z 1000b590 f i PxAutoGeneratedMetaDataObjects.obj
 0001:0000a5a0       ?getPxgDynamicsMemoryConfigConstraintBufferCapacity@@YAIPBUPxgDynamicsMemoryConfig@physx@@@Z 1000b5a0 f i PxAutoGeneratedMetaDataObjects.obj
 0001:0000a5b0       ?getPxgDynamicsMemoryConfigContactBufferCapacity@@YAIPBUPxgDynamicsMemoryConfig@physx@@@Z 1000b5b0 f i PxAutoGeneratedMetaDataObjects.obj
 0001:0000a5c0       ?getPxgDynamicsMemoryConfigContactStreamSize@@YAIPBUPxgDynamicsMemoryConfig@physx@@@Z 1000b5c0 f i PxAutoGeneratedMetaDataObjects.obj
 0001:0000a5d0       ?getPxgDynamicsMemoryConfigForceStreamCapacity@@YAIPBUPxgDynamicsMemoryConfig@physx@@@Z 1000b5d0 f i PxAutoGeneratedMetaDataObjects.obj
 0001:0000a5e0       ?getPxgDynamicsMemoryConfigFoundLostPairsCapacity@@YAIPBUPxgDynamicsMemoryConfig@physx@@@Z 1000b5e0 f i PxAutoGeneratedMetaDataObjects.obj
 0001:0000a5f0       ?getPxgDynamicsMemoryConfigHeapCapacity@@YAIPBUPxgDynamicsMemoryConfig@physx@@@Z 1000b5f0 f i PxAutoGeneratedMetaDataObjects.obj
 0001:0000a600       ?getPxgDynamicsMemoryConfigPatchStreamSize@@YAIPBUPxgDynamicsMemoryConfig@physx@@@Z 1000b600 f i PxAutoGeneratedMetaDataObjects.obj
 0001:0000a610       ?getPxgDynamicsMemoryConfigTempBufferCapacity@@YAIPBUPxgDynamicsMemoryConfig@physx@@@Z 1000b610 f i PxAutoGeneratedMetaDataObjects.obj
 0001:0000a620       ?setPxActorUserData@@YAXPAVPxActor@physx@@PAX@Z 1000b620 f i PxAutoGeneratedMetaDataObjects.obj
 0001:0000a630       ?setPxArticulationBaseUserData@@YAXPAVPxArticulationBase@physx@@PAX@Z 1000b630 f i PxAutoGeneratedMetaDataObjects.obj
 0001:0000a640       ?setPxBoxGeometryHalfExtents@@YAXPAVPxBoxGeometry@physx@@VPxVec3@2@@Z 1000b640 f i PxAutoGeneratedMetaDataObjects.obj
 0001:0000a670       ?setPxCapsuleGeometryHalfHeight@@YAXPAVPxCapsuleGeometry@physx@@M@Z 1000b670 f i PxAutoGeneratedMetaDataObjects.obj
 0001:0000a680       ?setPxCapsuleGeometryRadius@@YAXPAVPxCapsuleGeometry@physx@@M@Z 1000b680 f i PxAutoGeneratedMetaDataObjects.obj
 0001:0000a690       ?setPxConvexMeshGeometryConvexMesh@@YAXPAVPxConvexMeshGeometry@physx@@PAVPxConvexMesh@2@@Z 1000b690 f i PxAutoGeneratedMetaDataObjects.obj
 0001:0000a6a0       ?setPxConvexMeshGeometryMeshFlags@@YAXPAVPxConvexMeshGeometry@physx@@V?$PxFlags@W4Enum@PxConvexMeshGeometryFlag@physx@@E@2@@Z 1000b6a0 f i PxAutoGeneratedMetaDataObjects.obj
 0001:0000a6b0       ?setPxConvexMeshGeometryScale@@YAXPAVPxConvexMeshGeometry@physx@@VPxMeshScale@2@@Z 1000b6b0 f i PxAutoGeneratedMetaDataObjects.obj
 0001:0000a6e0       ?setPxHeightFieldDescConvexEdgeThreshold@@YAXPAVPxHeightFieldDesc@physx@@M@Z 1000b6e0 f i PxAutoGeneratedMetaDataObjects.obj
 0001:0000a6f0       ?setPxHeightFieldDescFlags@@YAXPAVPxHeightFieldDesc@physx@@V?$PxFlags@W4Enum@PxHeightFieldFlag@physx@@G@2@@Z 1000b6f0 f i PxAutoGeneratedMetaDataObjects.obj
 0001:0000a700       ?setPxHeightFieldDescFormat@@YAXPAVPxHeightFieldDesc@physx@@W4Enum@PxHeightFieldFormat@2@@Z 1000b700 f i PxAutoGeneratedMetaDataObjects.obj
 0001:0000a710       ?setPxHeightFieldDescNbColumns@@YAXPAVPxHeightFieldDesc@physx@@I@Z 1000b710 f i PxAutoGeneratedMetaDataObjects.obj
 0001:0000a720       ?setPxHeightFieldDescNbRows@@YAXPAVPxHeightFieldDesc@physx@@I@Z 1000b720 f i PxAutoGeneratedMetaDataObjects.obj
 0001:0000a730       ?setPxHeightFieldDescSamples@@YAXPAVPxHeightFieldDesc@physx@@UPxStridedData@2@@Z 1000b730 f i PxAutoGeneratedMetaDataObjects.obj
 0001:0000a750       ?setPxHeightFieldGeometryColumnScale@@YAXPAVPxHeightFieldGeometry@physx@@M@Z 1000b750 f i PxAutoGeneratedMetaDataObjects.obj
 0001:0000a760       ?setPxHeightFieldGeometryHeightField@@YAXPAVPxHeightFieldGeometry@physx@@PAVPxHeightField@2@@Z 1000b760 f i PxAutoGeneratedMetaDataObjects.obj
 0001:0000a770       ?setPxHeightFieldGeometryHeightFieldFlags@@YAXPAVPxHeightFieldGeometry@physx@@V?$PxFlags@W4Enum@PxMeshGeometryFlag@physx@@E@2@@Z 1000b770 f i PxAutoGeneratedMetaDataObjects.obj
 0001:0000a780       ?setPxHeightFieldGeometryHeightScale@@YAXPAVPxHeightFieldGeometry@physx@@M@Z 1000b780 f i PxAutoGeneratedMetaDataObjects.obj
 0001:0000a790       ?setPxHeightFieldGeometryRowScale@@YAXPAVPxHeightFieldGeometry@physx@@M@Z 1000b790 f i PxAutoGeneratedMetaDataObjects.obj
 0001:0000a7a0       ?setPxMaterialUserData@@YAXPAVPxMaterial@physx@@PAX@Z 1000b7a0 f i PxAutoGeneratedMetaDataObjects.obj
 0001:0000a7b0       ?setPxMeshScaleRotation@@YAXPAVPxMeshScale@physx@@VPxQuat@2@@Z 1000b7b0 f i PxAutoGeneratedMetaDataObjects.obj
 0001:0000a7c0       ?setPxMeshScaleScale@@YAXPAVPxMeshScale@physx@@VPxVec3@2@@Z 1000b7c0 f i PxAutoGeneratedMetaDataObjects.obj
 0001:0000a7f0       ?setPxSceneDescBounceThresholdVelocity@@YAXPAVPxSceneDesc@physx@@M@Z 1000b7f0 f i PxAutoGeneratedMetaDataObjects.obj
 0001:0000a800       ?setPxSceneDescBroadPhaseCallback@@YAXPAVPxSceneDesc@physx@@PAVPxBroadPhaseCallback@2@@Z 1000b800 f i PxAutoGeneratedMetaDataObjects.obj
 0001:0000a810       ?setPxSceneDescBroadPhaseType@@YAXPAVPxSceneDesc@physx@@W4Enum@PxBroadPhaseType@2@@Z 1000b810 f i PxAutoGeneratedMetaDataObjects.obj
 0001:0000a820       ?setPxSceneDescCcdContactModifyCallback@@YAXPAVPxSceneDesc@physx@@PAVPxCCDContactModifyCallback@2@@Z 1000b820 f i PxAutoGeneratedMetaDataObjects.obj
 0001:0000a830       ?setPxSceneDescCcdMaxPasses@@YAXPAVPxSceneDesc@physx@@I@Z 1000b830 f i PxAutoGeneratedMetaDataObjects.obj
 0001:0000a840       ?setPxSceneDescCcdMaxSeparation@@YAXPAVPxSceneDesc@physx@@M@Z 1000b840 f i PxAutoGeneratedMetaDataObjects.obj
 0001:0000a850       ?setPxSceneDescCcdThreshold@@YAXPAVPxSceneDesc@physx@@M@Z 1000b850 f i PxAutoGeneratedMetaDataObjects.obj
 0001:0000a870       ?setPxSceneDescContactModifyCallback@@YAXPAVPxSceneDesc@physx@@PAVPxContactModifyCallback@2@@Z 1000b870 f i PxAutoGeneratedMetaDataObjects.obj
 0001:0000a880       ?setPxSceneDescContactReportStreamBufferSize@@YAXPAVPxSceneDesc@physx@@I@Z 1000b880 f i PxAutoGeneratedMetaDataObjects.obj
 0001:0000a890       ?setPxSceneDescCpuDispatcher@@YAXPAVPxSceneDesc@physx@@PAVPxCpuDispatcher@2@@Z 1000b890 f i PxAutoGeneratedMetaDataObjects.obj
 0001:0000a8a0       ?setPxSceneDescCudaContextManager@@YAXPAVPxSceneDesc@physx@@PAVPxCudaContextManager@2@@Z 1000b8a0 f i PxAutoGeneratedMetaDataObjects.obj
 0001:0000a8b0       ?setPxSceneDescDynamicStructure@@YAXPAVPxSceneDesc@physx@@W4Enum@PxPruningStructureType@2@@Z 1000b8b0 f i PxAutoGeneratedMetaDataObjects.obj
 0001:0000a8c0       ?setPxSceneDescDynamicTreeRebuildRateHint@@YAXPAVPxSceneDesc@physx@@I@Z 1000b8c0 f i PxAutoGeneratedMetaDataObjects.obj
 0001:0000a8d0       ?setPxSceneDescFilterCallback@@YAXPAVPxSceneDesc@physx@@PAVPxSimulationFilterCallback@2@@Z 1000b8d0 f i PxAutoGeneratedMetaDataObjects.obj
 0001:0000a8e0       ?setPxSceneDescFilterShader@@YAXPAVPxSceneDesc@physx@@P6A?AV?$PxFlags@W4Enum@PxFilterFlag@physx@@G@2@IUPxFilterData@2@I1AAV?$PxFlags@W4Enum@PxPairFlag@physx@@G@2@PBXI@Z@Z 1000b8e0 f i PxAutoGeneratedMetaDataObjects.obj
 0001:0000a8f0       ?setPxSceneDescFilterShaderData@@YAXPAVPxSceneDesc@physx@@PBX@Z 1000b8f0 f i PxAutoGeneratedMetaDataObjects.obj
 0001:0000a900       ?setPxSceneDescFilterShaderDataSize@@YAXPAVPxSceneDesc@physx@@I@Z 1000b900 f i PxAutoGeneratedMetaDataObjects.obj
 0001:0000a910       ?setPxSceneDescFlags@@YAXPAVPxSceneDesc@physx@@V?$PxFlags@W4Enum@PxSceneFlag@physx@@I@2@@Z 1000b910 f i PxAutoGeneratedMetaDataObjects.obj
 0001:0000a920       ?setPxSceneDescFrictionOffsetThreshold@@YAXPAVPxSceneDesc@physx@@M@Z 1000b920 f i PxAutoGeneratedMetaDataObjects.obj
 0001:0000a930       ?setPxSceneDescFrictionType@@YAXPAVPxSceneDesc@physx@@W4Enum@PxFrictionType@2@@Z 1000b930 f i PxAutoGeneratedMetaDataObjects.obj
 0001:0000a940       ?setPxSceneDescGpuComputeVersion@@YAXPAVPxSceneDesc@physx@@I@Z 1000b940 f i PxAutoGeneratedMetaDataObjects.obj
 0001:0000a950       ?setPxSceneDescGpuDynamicsConfig@@YAXPAVPxSceneDesc@physx@@UPxgDynamicsMemoryConfig@2@@Z 1000b950 f i PxAutoGeneratedMetaDataObjects.obj
 0001:0000a970       ?setPxSceneDescGpuMaxNumPartitions@@YAXPAVPxSceneDesc@physx@@I@Z 1000b970 f i PxAutoGeneratedMetaDataObjects.obj
 0001:0000a980       ?setPxSceneDescGravity@@YAXPAVPxSceneDesc@physx@@VPxVec3@2@@Z 1000b980 f i PxAutoGeneratedMetaDataObjects.obj
 0001:0000a9b0       ?setPxSceneDescKineKineFilteringMode@@YAXPAVPxSceneDesc@physx@@W4Enum@PxPairFilteringMode@2@@Z 1000b9b0 f i PxAutoGeneratedMetaDataObjects.obj
 0001:0000a9c0       ?setPxSceneDescLimits@@YAXPAVPxSceneDesc@physx@@VPxSceneLimits@2@@Z 1000b9c0 f i PxAutoGeneratedMetaDataObjects.obj
 0001:0000a9e0       ?setPxSceneDescMaxBiasCoefficient@@YAXPAVPxSceneDesc@physx@@M@Z 1000b9e0 f i PxAutoGeneratedMetaDataObjects.obj
 0001:0000aa00       ?setPxSceneDescMaxNbContactDataBlocks@@YAXPAVPxSceneDesc@physx@@I@Z 1000ba00 f i PxAutoGeneratedMetaDataObjects.obj
 0001:0000aa10       ?setPxSceneDescNbContactDataBlocks@@YAXPAVPxSceneDesc@physx@@I@Z 1000ba10 f i PxAutoGeneratedMetaDataObjects.obj
 0001:0000aa20       ?setPxSceneDescSanityBounds@@YAXPAVPxSceneDesc@physx@@VPxBounds3@2@@Z 1000ba20 f i PxAutoGeneratedMetaDataObjects.obj
 0001:0000aa50       ?setPxSceneDescSceneQueryUpdateMode@@YAXPAVPxSceneDesc@physx@@W4Enum@PxSceneQueryUpdateMode@2@@Z 1000ba50 f i PxAutoGeneratedMetaDataObjects.obj
 0001:0000aa60       ?setPxSceneDescSimulationEventCallback@@YAXPAVPxSceneDesc@physx@@PAVPxSimulationEventCallback@2@@Z 1000ba60 f i PxAutoGeneratedMetaDataObjects.obj
 0001:0000aa70       ?setPxSceneDescSolverArticulationBatchSize@@YAXPAVPxSceneDesc@physx@@I@Z 1000ba70 f i PxAutoGeneratedMetaDataObjects.obj
 0001:0000aa80       ?setPxSceneDescSolverBatchSize@@YAXPAVPxSceneDesc@physx@@I@Z 1000ba80 f i PxAutoGeneratedMetaDataObjects.obj
 0001:0000aa90       ?setPxSceneDescSolverOffsetSlop@@YAXPAVPxSceneDesc@physx@@M@Z 1000ba90 f i PxAutoGeneratedMetaDataObjects.obj
 0001:0000aaa0       ?setPxSceneDescSolverType@@YAXPAVPxSceneDesc@physx@@W4Enum@PxSolverType@2@@Z 1000baa0 f i PxAutoGeneratedMetaDataObjects.obj
 0001:0000aab0       ?setPxSceneDescStaticKineFilteringMode@@YAXPAVPxSceneDesc@physx@@W4Enum@PxPairFilteringMode@2@@Z 1000bab0 f i PxAutoGeneratedMetaDataObjects.obj
 0001:0000aac0       ?setPxSceneDescStaticStructure@@YAXPAVPxSceneDesc@physx@@W4Enum@PxPruningStructureType@2@@Z 1000bac0 f i PxAutoGeneratedMetaDataObjects.obj
 0001:0000aad0       ?setPxSceneDescUserData@@YAXPAVPxSceneDesc@physx@@PAX@Z 1000bad0 f i PxAutoGeneratedMetaDataObjects.obj
 0001:0000aae0       ?setPxSceneDescWakeCounterResetValue@@YAXPAVPxSceneDesc@physx@@M@Z 1000bae0 f i PxAutoGeneratedMetaDataObjects.obj
 0001:0000ab00       ?setPxSceneLimitsMaxNbActors@@YAXPAVPxSceneLimits@physx@@I@Z 1000bb00 f i PxAutoGeneratedMetaDataObjects.obj
 0001:0000ab10       ?setPxSceneLimitsMaxNbAggregates@@YAXPAVPxSceneLimits@physx@@I@Z 1000bb10 f i PxAutoGeneratedMetaDataObjects.obj
 0001:0000ab20       ?setPxSceneLimitsMaxNbBodies@@YAXPAVPxSceneLimits@physx@@I@Z 1000bb20 f i PxAutoGeneratedMetaDataObjects.obj
 0001:0000ab30       ?setPxSceneLimitsMaxNbBroadPhaseOverlaps@@YAXPAVPxSceneLimits@physx@@I@Z 1000bb30 f i PxAutoGeneratedMetaDataObjects.obj
 0001:0000ab40       ?setPxSceneLimitsMaxNbConstraints@@YAXPAVPxSceneLimits@physx@@I@Z 1000bb40 f i PxAutoGeneratedMetaDataObjects.obj
 0001:0000ab50       ?setPxSceneLimitsMaxNbDynamicShapes@@YAXPAVPxSceneLimits@physx@@I@Z 1000bb50 f i PxAutoGeneratedMetaDataObjects.obj
 0001:0000ab60       ?setPxSceneLimitsMaxNbRegions@@YAXPAVPxSceneLimits@physx@@I@Z 1000bb60 f i PxAutoGeneratedMetaDataObjects.obj
 0001:0000ab70       ?setPxSceneLimitsMaxNbStaticShapes@@YAXPAVPxSceneLimits@physx@@I@Z 1000bb70 f i PxAutoGeneratedMetaDataObjects.obj
 0001:0000ab80       ?setPxSceneUserData@@YAXPAVPxScene@physx@@PAX@Z 1000bb80 f i PxAutoGeneratedMetaDataObjects.obj
 0001:0000ab90       ?setPxShapeUserData@@YAXPAVPxShape@physx@@PAX@Z 1000bb90 f i PxAutoGeneratedMetaDataObjects.obj
 0001:0000aba0       ?setPxSimulationStatisticsCompressedContactSize@@YAXPAVPxSimulationStatistics@physx@@I@Z 1000bba0 f i PxAutoGeneratedMetaDataObjects.obj
 0001:0000abb0       ?setPxSimulationStatisticsNbActiveConstraints@@YAXPAVPxSimulationStatistics@physx@@I@Z 1000bbb0 f i PxAutoGeneratedMetaDataObjects.obj
 0001:0000abc0       ?setPxSimulationStatisticsNbActiveDynamicBodies@@YAXPAVPxSimulationStatistics@physx@@I@Z 1000bbc0 f i PxAutoGeneratedMetaDataObjects.obj
 0001:0000abd0       ?setPxSimulationStatisticsNbActiveKinematicBodies@@YAXPAVPxSimulationStatistics@physx@@I@Z 1000bbd0 f i PxAutoGeneratedMetaDataObjects.obj
 0001:0000abe0       ?setPxSimulationStatisticsNbAggregates@@YAXPAVPxSimulationStatistics@physx@@I@Z 1000bbe0 f i PxAutoGeneratedMetaDataObjects.obj
 0001:0000abf0       ?setPxSimulationStatisticsNbArticulations@@YAXPAVPxSimulationStatistics@physx@@I@Z 1000bbf0 f i PxAutoGeneratedMetaDataObjects.obj
 0001:0000ac00       ?setPxSimulationStatisticsNbAxisSolverConstraints@@YAXPAVPxSimulationStatistics@physx@@I@Z 1000bc00 f i PxAutoGeneratedMetaDataObjects.obj
 0001:0000ac10       ?setPxSimulationStatisticsNbBroadPhaseAdds@@YAXPAVPxSimulationStatistics@physx@@I@Z 1000bc10 f i PxAutoGeneratedMetaDataObjects.obj
 0001:0000ac20       ?setPxSimulationStatisticsNbBroadPhaseRemoves@@YAXPAVPxSimulationStatistics@physx@@I@Z 1000bc20 f i PxAutoGeneratedMetaDataObjects.obj
 0001:0000ac30       ?setPxSimulationStatisticsNbDiscreteContactPairsTotal@@YAXPAVPxSimulationStatistics@physx@@I@Z 1000bc30 f i PxAutoGeneratedMetaDataObjects.obj
 0001:0000ac40       ?setPxSimulationStatisticsNbDiscreteContactPairsWithCacheHits@@YAXPAVPxSimulationStatistics@physx@@I@Z 1000bc40 f i PxAutoGeneratedMetaDataObjects.obj
 0001:0000ac50       ?setPxSimulationStatisticsNbDiscreteContactPairsWithContacts@@YAXPAVPxSimulationStatistics@physx@@I@Z 1000bc50 f i PxAutoGeneratedMetaDataObjects.obj
 0001:0000ac60       ?setPxSimulationStatisticsNbDynamicBodies@@YAXPAVPxSimulationStatistics@physx@@I@Z 1000bc60 f i PxAutoGeneratedMetaDataObjects.obj
 0001:0000ac70       ?setPxSimulationStatisticsNbKinematicBodies@@YAXPAVPxSimulationStatistics@physx@@I@Z 1000bc70 f i PxAutoGeneratedMetaDataObjects.obj
 0001:0000ac80       ?setPxSimulationStatisticsNbLostPairs@@YAXPAVPxSimulationStatistics@physx@@I@Z 1000bc80 f i PxAutoGeneratedMetaDataObjects.obj
 0001:0000ac90       ?setPxSimulationStatisticsNbLostTouches@@YAXPAVPxSimulationStatistics@physx@@I@Z 1000bc90 f i PxAutoGeneratedMetaDataObjects.obj
 0001:0000aca0       ?setPxSimulationStatisticsNbNewPairs@@YAXPAVPxSimulationStatistics@physx@@I@Z 1000bca0 f i PxAutoGeneratedMetaDataObjects.obj
 0001:0000acb0       ?setPxSimulationStatisticsNbNewTouches@@YAXPAVPxSimulationStatistics@physx@@I@Z 1000bcb0 f i PxAutoGeneratedMetaDataObjects.obj
 0001:0000acc0       ?setPxSimulationStatisticsNbPartitions@@YAXPAVPxSimulationStatistics@physx@@I@Z 1000bcc0 f i PxAutoGeneratedMetaDataObjects.obj
 0001:0000acd0       ?setPxSimulationStatisticsNbStaticBodies@@YAXPAVPxSimulationStatistics@physx@@I@Z 1000bcd0 f i PxAutoGeneratedMetaDataObjects.obj
 0001:0000ace0       ?setPxSimulationStatisticsPeakConstraintMemory@@YAXPAVPxSimulationStatistics@physx@@I@Z 1000bce0 f i PxAutoGeneratedMetaDataObjects.obj
 0001:0000acf0       ?setPxSimulationStatisticsRequiredContactConstraintMemory@@YAXPAVPxSimulationStatistics@physx@@I@Z 1000bcf0 f i PxAutoGeneratedMetaDataObjects.obj
 0001:0000ad00       ?setPxSphereGeometryRadius@@YAXPAVPxSphereGeometry@physx@@M@Z 1000bd00 f i PxAutoGeneratedMetaDataObjects.obj
 0001:0000ad10       ?setPxTolerancesScaleLength@@YAXPAVPxTolerancesScale@physx@@M@Z 1000bd10 f i PxAutoGeneratedMetaDataObjects.obj
 0001:0000ad20       ?setPxTolerancesScaleSpeed@@YAXPAVPxTolerancesScale@physx@@M@Z 1000bd20 f i PxAutoGeneratedMetaDataObjects.obj
 0001:0000ad30       ?setPxTriangleMeshGeometryMeshFlags@@YAXPAVPxTriangleMeshGeometry@physx@@V?$PxFlags@W4Enum@PxMeshGeometryFlag@physx@@E@2@@Z 1000bd30 f i PxAutoGeneratedMetaDataObjects.obj
 0001:0000ad40       ?setPxTriangleMeshGeometryScale@@YAXPAVPxTriangleMeshGeometry@physx@@VPxMeshScale@2@@Z 1000bd40 f i PxAutoGeneratedMetaDataObjects.obj
 0001:0000ad70       ?setPxTriangleMeshGeometryTriangleMesh@@YAXPAVPxTriangleMeshGeometry@physx@@PAVPxTriangleMesh@2@@Z 1000bd70 f i PxAutoGeneratedMetaDataObjects.obj
 0001:0000ad80       ?setPxgDynamicsMemoryConfigConstraintBufferCapacity@@YAXPAUPxgDynamicsMemoryConfig@physx@@I@Z 1000bd80 f i PxAutoGeneratedMetaDataObjects.obj
 0001:0000ad90       ?setPxgDynamicsMemoryConfigContactBufferCapacity@@YAXPAUPxgDynamicsMemoryConfig@physx@@I@Z 1000bd90 f i PxAutoGeneratedMetaDataObjects.obj
 0001:0000ada0       ?setPxgDynamicsMemoryConfigContactStreamSize@@YAXPAUPxgDynamicsMemoryConfig@physx@@I@Z 1000bda0 f i PxAutoGeneratedMetaDataObjects.obj
 0001:0000adb0       ?setPxgDynamicsMemoryConfigForceStreamCapacity@@YAXPAUPxgDynamicsMemoryConfig@physx@@I@Z 1000bdb0 f i PxAutoGeneratedMetaDataObjects.obj
 0001:0000adc0       ?setPxgDynamicsMemoryConfigFoundLostPairsCapacity@@YAXPAUPxgDynamicsMemoryConfig@physx@@I@Z 1000bdc0 f i PxAutoGeneratedMetaDataObjects.obj
 0001:0000add0       ?setPxgDynamicsMemoryConfigHeapCapacity@@YAXPAUPxgDynamicsMemoryConfig@physx@@I@Z 1000bdd0 f i PxAutoGeneratedMetaDataObjects.obj
 0001:0000ade0       ?setPxgDynamicsMemoryConfigPatchStreamSize@@YAXPAUPxgDynamicsMemoryConfig@physx@@I@Z 1000bde0 f i PxAutoGeneratedMetaDataObjects.obj
 0001:0000adf0       ?setPxgDynamicsMemoryConfigTempBufferCapacity@@YAXPAUPxgDynamicsMemoryConfig@physx@@I@Z 1000bdf0 f i PxAutoGeneratedMetaDataObjects.obj
 0001:0000ae00       ?getGeometryType@PxShapeGeometryPropertyHelper@physx@@QBE?AW4Enum@PxGeometryType@2@PBVPxShape@2@@Z 1000be00 f   PxMetaDataObjects.obj
 0001:0000ae10       ?getGeometry@PxShapeGeometryPropertyHelper@physx@@QBE_NPBVPxShape@2@AAVPxBoxGeometry@2@@Z 1000be10 f   PxMetaDataObjects.obj
 0001:0000ae30       ?getGeometry@PxShapeGeometryPropertyHelper@physx@@QBE_NPBVPxShape@2@AAVPxSphereGeometry@2@@Z 1000be30 f   PxMetaDataObjects.obj
 0001:0000ae50       ?getGeometry@PxShapeGeometryPropertyHelper@physx@@QBE_NPBVPxShape@2@AAVPxCapsuleGeometry@2@@Z 1000be50 f   PxMetaDataObjects.obj
 0001:0000ae70       ?getGeometry@PxShapeGeometryPropertyHelper@physx@@QBE_NPBVPxShape@2@AAVPxPlaneGeometry@2@@Z 1000be70 f   PxMetaDataObjects.obj
 0001:0000ae90       ?getGeometry@PxShapeGeometryPropertyHelper@physx@@QBE_NPBVPxShape@2@AAVPxConvexMeshGeometry@2@@Z 1000be90 f   PxMetaDataObjects.obj
 0001:0000aeb0       ?getGeometry@PxShapeGeometryPropertyHelper@physx@@QBE_NPBVPxShape@2@AAVPxTriangleMeshGeometry@2@@Z 1000beb0 f   PxMetaDataObjects.obj
 0001:0000aed0       ?getGeometry@PxShapeGeometryPropertyHelper@physx@@QBE_NPBVPxShape@2@AAVPxHeightFieldGeometry@2@@Z 1000bed0 f   PxMetaDataObjects.obj
 0001:0000aef0       ?setMaterials@PxShapeMaterialsPropertyHelper@physx@@QBEXPAVPxShape@2@PBQAVPxMaterial@2@G@Z 1000bef0 f   PxMetaDataObjects.obj
 0001:0000af10       ?createShape@PxRigidActorShapeCollectionHelper@physx@@QBEPAVPxShape@2@PAVPxRigidActor@2@ABVPxGeometry@2@AAVPxMaterial@2@V?$PxFlags@W4Enum@PxShapeFlag@physx@@E@2@@Z 1000bf10 f   PxMetaDataObjects.obj
 0001:0000af60       ?createShape@PxRigidActorShapeCollectionHelper@physx@@QBEPAVPxShape@2@PAVPxRigidActor@2@ABVPxGeometry@2@PBQAVPxMaterial@2@GV?$PxFlags@W4Enum@PxShapeFlag@physx@@E@2@@Z 1000bf60 f   PxMetaDataObjects.obj
 0001:0000afa0       ?createLink@PxArticulationLinkCollectionPropHelper@physx@@QBEPAVPxArticulationLink@2@PAVPxArticulation@2@PAV32@ABVPxTransform@2@@Z 1000bfa0 f   PxMetaDataObjects.obj
 0001:0000aff0       ??0NbShapesProperty@physx@@QAE@XZ 1000bff0 f   PxMetaDataObjects.obj
 0001:0000b010       ??0NbDiscreteContactPairsProperty@physx@@QAE@XZ 1000c010 f   PxMetaDataObjects.obj
 0001:0000b030       ??0NbModifiedContactPairsProperty@physx@@QAE@XZ 1000c030 f   PxMetaDataObjects.obj
 0001:0000b050       ??0NbCCDPairsProperty@physx@@QAE@XZ 1000c050 f   PxMetaDataObjects.obj
 0001:0000b070       ??0NbTriggerPairsProperty@physx@@QAE@XZ 1000c070 f   PxMetaDataObjects.obj
 0001:0000b090       ??0SimulationStatisticsProperty@physx@@QAE@XZ 1000c090 f   PxMetaDataObjects.obj
 0001:0000b0b0       ??0Allocator@shdfnd@physx@@QAE@PBD@Z 1000c0b0 f i PxMetaDataObjects.obj
 0001:0000b0c0       ??0PxFoundation@physx@@QAE@ABV01@@Z 1000c0c0 f i PxMetaDataObjects.obj
 0001:0000b0d0       ??0PxFoundation@physx@@QAE@XZ 1000c0d0 f i PxMetaDataObjects.obj
 0001:0000b0e0       ??1PxFoundation@physx@@MAE@XZ 1000c0e0 f i PxMetaDataObjects.obj
 0001:0000b0f0       ??4Allocator@shdfnd@physx@@QAEAAV012@$$QAV012@@Z 1000c0f0 f i PxMetaDataObjects.obj
 0001:0000b100       ??4Allocator@shdfnd@physx@@QAEAAV012@ABV012@@Z 1000c100 f i PxMetaDataObjects.obj
 0001:0000b110       ??4MutexImpl@shdfnd@physx@@QAEAAV012@ABV012@@Z 1000c110 f i PxMetaDataObjects.obj
 0001:0000b120       ??4PxFoundation@physx@@QAEAAV01@ABV01@@Z 1000c120 f i PxMetaDataObjects.obj
 0001:0000b130       ??_EPxFoundation@physx@@MAEPAXI@Z 1000c130 f i PxMetaDataObjects.obj
 0001:0000b1a0       ??_FAllocator@shdfnd@physx@@QAEXXZ 1000c1a0 f i PxMetaDataObjects.obj
 0001:0000b1b0       ??_FNamedAllocator@shdfnd@physx@@QAEXXZ 1000c1b0 f i PxMetaDataObjects.obj
 0001:0000b1c0       ??_GPxFoundation@physx@@MAEPAXI@Z 1000c1c0 f i PxMetaDataObjects.obj
 0001:0000b1f0       ??_I@YGXPAXIIP6EX0@Z@Z     1000c1f0 f i PxMetaDataObjects.obj
 0001:0000b230       ?GetNbCCDPairs@@YAIPBVPxSimulationStatistics@physx@@W4Enum@PxGeometryType@2@1@Z 1000c230 f i PxMetaDataObjects.obj
 0001:0000b250       ?GetNbDiscreteContactPairs@@YAIPBVPxSimulationStatistics@physx@@W4Enum@PxGeometryType@2@1@Z 1000c250 f i PxMetaDataObjects.obj
 0001:0000b270       ?GetNbModifiedContactPairs@@YAIPBVPxSimulationStatistics@physx@@W4Enum@PxGeometryType@2@1@Z 1000c270 f i PxMetaDataObjects.obj
 0001:0000b290       ?GetNbShape@@YAIPBVPxSimulationStatistics@physx@@W4Enum@PxGeometryType@2@@Z 1000c290 f i PxMetaDataObjects.obj
 0001:0000b2a0       ?GetNbTriggerPairs@@YAIPBVPxSimulationStatistics@physx@@W4Enum@PxGeometryType@2@1@Z 1000c2a0 f i PxMetaDataObjects.obj
 0001:0000b2c0       ?GetStats@@YA?AVPxSimulationStatistics@physx@@PBVPxScene@2@@Z 1000c2c0 f i PxMetaDataObjects.obj
 0001:0000b3e0       ?SetNbCCDPairs@@YAXPAVPxSimulationStatistics@physx@@W4Enum@PxGeometryType@2@1I@Z 1000c3e0 f i PxMetaDataObjects.obj
 0001:0000b410       ?SetNbDiscreteContactPairs@@YAXPAVPxSimulationStatistics@physx@@W4Enum@PxGeometryType@2@1I@Z 1000c410 f i PxMetaDataObjects.obj
 0001:0000b430       ?SetNbModifiedContactPairs@@YAXPAVPxSimulationStatistics@physx@@W4Enum@PxGeometryType@2@1I@Z 1000c430 f i PxMetaDataObjects.obj
 0001:0000b460       ?SetNbShape@@YAXPAVPxSimulationStatistics@physx@@W4Enum@PxGeometryType@2@I@Z 1000c460 f i PxMetaDataObjects.obj
 0001:0000b480       ?SetNbTriggerPairs@@YAXPAVPxSimulationStatistics@physx@@W4Enum@PxGeometryType@2@1I@Z 1000c480 f i PxMetaDataObjects.obj
 0001:0000b4b0       ?__empty_global_delete@@YAXPAX@Z 1000c4b0 f i PxMetaDataObjects.obj
 0001:0000b4c0       ?__global_array_delete@@YAXPAXI@Z 1000c4c0 f i PxMetaDataObjects.obj
 0001:0000b4c0       ?__empty_global_delete@@YAXPAXI@Z 1000c4c0 f i PxMetaDataObjects.obj
 0001:0000b4c0       ?__global_delete@@YAXPAXI@Z 1000c4c0 f i PxMetaDataObjects.obj
 0001:0000b4d0       ?getAllocator@Foundation@shdfnd@physx@@QAEAAVPxAllocatorCallback@3@XZ 1000c4d0 f i PxMetaDataObjects.obj
 0001:0000b4e0       ?getAllocatorCallback@Foundation@shdfnd@physx@@UAEAAVPxAllocatorCallback@3@XZ 1000c4e0 f i PxMetaDataObjects.obj
 0001:0000b4f0       ?getErrorCallback@Foundation@shdfnd@physx@@UAEAAVPxErrorCallback@3@XZ 1000c4f0 f i PxMetaDataObjects.obj
 0001:0000b500       ?getErrorLevel@Foundation@shdfnd@physx@@UBE?AW4Enum@PxErrorCode@3@XZ 1000c500 f i PxMetaDataObjects.obj
 0001:0000b510       ?getInternalErrorCallback@Foundation@shdfnd@physx@@QAEAAVPxErrorCallback@3@XZ 1000c510 f i PxMetaDataObjects.obj
 0001:0000b520       ?getNamedAllocMap@Foundation@shdfnd@physx@@QAEAAV?$HashMap@PBVNamedAllocator@shdfnd@physx@@PBDU?$Hash@PBVNamedAllocator@shdfnd@physx@@@23@VNonTrackingAllocator@23@@23@XZ 1000c520 f i PxMetaDataObjects.obj
 0001:0000b530       ?getNamedAllocMutex@Foundation@shdfnd@physx@@QAEAAV?$MutexT@VAllocator@shdfnd@physx@@@23@XZ 1000c530 f i PxMetaDataObjects.obj
 0001:0000b540       ?getReportAllocationNames@Foundation@shdfnd@physx@@UBE_NXZ 1000c540 f i PxMetaDataObjects.obj
 0001:0000b550       ?getTempAllocFreeTable@Foundation@shdfnd@physx@@QAEAAV?$Array@PATTempAllocatorChunk@shdfnd@physx@@VAllocator@23@@23@XZ 1000c550 f i PxMetaDataObjects.obj
 0001:0000b560       ?getTempAllocMutex@Foundation@shdfnd@physx@@QAEAAV?$MutexT@VAllocator@shdfnd@physx@@@23@XZ 1000c560 f i PxMetaDataObjects.obj
 0001:0000b570       ?isFinite@PxQuat@physx@@QBE_NXZ 1000c570 f i PxMetaDataObjects.obj
 0001:0000b600       ?isValid@PxTransform@physx@@QBE_NXZ 1000c600 f i PxMetaDataObjects.obj
 0001:0000b6e0       ?setErrorLevel@Foundation@shdfnd@physx@@UAEXW4Enum@PxErrorCode@3@@Z 1000c6e0 f i PxMetaDataObjects.obj
 0001:0000b6f0       ?setReportAllocationNames@Foundation@shdfnd@physx@@UAEX_N@Z 1000c6f0 f i PxMetaDataObjects.obj
 0001:0000b700       ?exportExtraData@NpActor@physx@@QAEXAAVPxSerializationContext@2@@Z 1000c700 f   NpActor.obj
 0001:0000b890       ?importExtraData@NpActor@physx@@QAEXAAVPxDeserializationContext@2@@Z 1000c890 f   NpActor.obj
 0001:0000b920       ?resolveReferences@NpActor@physx@@QAEXAAVPxDeserializationContext@2@@Z 1000c920 f   NpActor.obj
 0001:0000b980       ??0NpActor@physx@@QAE@PBD@Z 1000c980 f   NpActor.obj
 0001:0000b9a0       ?releaseConstraints@NpActor@physx@@QAEXAAVPxRigidActor@2@@Z 1000c9a0 f   NpActor.obj
 0001:0000ba80       ?release@NpActor@physx@@QAEXAAVPxActor@2@@Z 1000ca80 f   NpActor.obj
 0001:0000baa0       ?getNpAggregate@NpActor@physx@@QBEPAVNpAggregate@2@AAI@Z 1000caa0 f   NpActor.obj
 0001:0000bae0       ?setAggregate@NpActor@physx@@QAEXPAVNpAggregate@2@AAVPxActor@2@@Z 1000cae0 f   NpActor.obj
 0001:0000bc60       ?getAggregate@NpActor@physx@@QBEPAVPxAggregate@2@XZ 1000cc60 f   NpActor.obj
 0001:0000bc90       ?removeConstraintsFromScene@NpActor@physx@@QAEXXZ 1000cc90 f   NpActor.obj
 0001:0000bd10       ?findConnector@NpActor@physx@@QBEIW4Enum@NpConnectorType@2@PAVPxBase@2@@Z 1000cd10 f   NpActor.obj
 0001:0000bd60       ?addConnector@NpActor@physx@@QAEXW4Enum@NpConnectorType@2@PAVPxBase@2@PBD@Z 1000cd60 f   NpActor.obj
 0001:0000be90       ?removeConnector@NpActor@physx@@QAEXAAVPxActor@2@W4Enum@NpConnectorType@2@PAVPxBase@2@PBD@Z 1000ce90 f   NpActor.obj
 0001:0000bf10       ?getNbConnectors@NpActor@physx@@QBEIW4Enum@NpConnectorType@2@@Z 1000cf10 f   NpActor.obj
 0001:0000bf60       ?getShapeManager@NpActor@physx@@SAPAVNpShapeManager@2@AAVPxRigidActor@2@@Z 1000cf60 f   NpActor.obj
 0001:0000bf80       ?getShapeManager@NpActor@physx@@SAPBVNpShapeManager@2@ABVPxRigidActor@2@@Z 1000cf80 f   NpActor.obj
 0001:0000bfa0       ?getGlobalPose@NpActor@physx@@SAXAAVPxTransform@2@ABVNpShape@2@ABVPxRigidActor@2@@Z 1000cfa0 f   NpActor.obj
 0001:0000bfc0       ?getGlobalPose@NpActor@physx@@SAXAAVPxTransform@2@ABVShape@Scb@2@ABVActor@52@@Z 1000cfc0 f   NpActor.obj
 0001:0000c3e0       ?getAPIScene@NpActor@physx@@SAPAVNpScene@2@ABVPxActor@2@@Z 1000d3e0 f   NpActor.obj
 0001:0000c410       ?getOwnerScene@NpActor@physx@@SAPAVNpScene@2@ABVPxActor@2@@Z 1000d410 f   NpActor.obj
 0001:0000c430       ?onActorRelease@NpActor@physx@@SAXPAVPxActor@2@@Z 1000d430 f   NpActor.obj
 0001:0000c440       ??1NpActor@physx@@IAE@XZ   1000d440 f   NpActor.obj
 0001:0000c450       ?addConstraintsToSceneInternal@NpActor@physx@@AAEXXZ 1000d450 f   NpActor.obj
 0001:0000c4f0       ?removeConnector@NpActor@physx@@AAEXAAVPxActor@2@I@Z 1000d4f0 f   NpActor.obj
 0001:0000c550       ??0Offsets@NpActor@physx@@QAE@XZ 1000d550 f   NpActor.obj
 0001:0000c5b0       ??$exportArray@VNpConnector@physx@@V?$InlineAllocator@$0CA@VNamedAllocator@shdfnd@physx@@@shdfnd@2@@Cm@physx@@YAXABV?$Array@VNpConnector@physx@@V?$InlineAllocator@$0CA@VNamedAllocator@shdfnd@physx@@@shdfnd@2@@shdfnd@1@AAVPxSerializationContext@1@@Z 1000d5b0 f i NpActor.obj
 0001:0000c5e0       ??$exportInlineArray@VNpConnector@physx@@$03VNamedAllocator@shdfnd@2@@Cm@physx@@YAXABV?$InlineArray@VNpConnector@physx@@$03VNamedAllocator@shdfnd@2@@shdfnd@1@AAVPxSerializationContext@1@@Z 1000d5e0 f i NpActor.obj
 0001:0000c620       ??$importArray@VNpConnector@physx@@V?$InlineAllocator@$0CA@VNamedAllocator@shdfnd@physx@@@shdfnd@2@@Cm@physx@@YAXAAV?$Array@VNpConnector@physx@@V?$InlineAllocator@$0CA@VNamedAllocator@shdfnd@physx@@@shdfnd@2@@shdfnd@1@AAVPxDeserializationContext@1@@Z 1000d620 f i NpActor.obj
 0001:0000c650       ??$importInlineArray@VNpConnector@physx@@$03VNamedAllocator@shdfnd@2@@Cm@physx@@YAXAAV?$InlineArray@VNpConnector@physx@@$03VNamedAllocator@shdfnd@2@@shdfnd@1@AAVPxDeserializationContext@1@@Z 1000d650 f i NpActor.obj
 0001:0000c690       ??$pointerOffset@PBVActor@Scb@physx@@@shdfnd@physx@@YAPBVActor@Scb@1@PBXH@Z 1000d690 f i NpActor.obj
 0001:0000c6a0       ??0PxTransform@physx@@QAE@XZ 1000d6a0 f i NpActor.obj
 0001:0000c6b0       ??0PxVec3@physx@@QAE@XZ    1000d6b0 f i NpActor.obj
 0001:0000c6c0       ??4FPUGuard@shdfnd@physx@@QAEAAV012@ABV012@@Z 1000d6c0 f i NpActor.obj
 0001:0000c6e0       ??4SyncImpl@shdfnd@physx@@QAEAAV012@ABV012@@Z 1000d6e0 f i NpActor.obj
 0001:0000c6f0       ??4ThreadImpl@shdfnd@physx@@QAEAAV012@ABV012@@Z 1000d6f0 f i NpActor.obj
 0001:0000c700       ?copy@?$Array@VNpConnector@physx@@V?$InlineAllocator@$0CA@VNamedAllocator@shdfnd@physx@@@shdfnd@2@@shdfnd@physx@@KAXPAVNpConnector@3@0PBV43@@Z 1000d700 f i NpActor.obj
 0001:0000c750       ?create@?$HashBase@PAVPxConstraint@physx@@PAV12@U?$Hash@PAVPxConstraint@physx@@@shdfnd@2@UGetKey@?$HashSetBase@PAVPxConstraint@physx@@U?$Hash@PAVPxConstraint@physx@@@shdfnd@2@VNonTrackingAllocator@42@$00@internal@42@VNonTrackingAllocator@42@$00@internal@shdfnd@physx@@QAEPAPAVPxConstraint@4@ABQAV54@AA_N@Z 1000d750 f i NpActor.obj
 0001:0000c880       ?erase@?$HashBase@PAVPxConstraint@physx@@PAV12@U?$Hash@PAVPxConstraint@physx@@@shdfnd@2@UGetKey@?$HashSetBase@PAVPxConstraint@physx@@U?$Hash@PAVPxConstraint@physx@@@shdfnd@2@VNonTrackingAllocator@42@$00@internal@42@VNonTrackingAllocator@42@$00@internal@shdfnd@physx@@QAE_NABQAVPxConstraint@4@@Z 1000d880 f i NpActor.obj
 0001:0000c980       ?getKinematicTarget@Body@Scb@physx@@QBE_NAAVPxTransform@3@@Z 1000d980 f i NpActor.obj
 0001:0000c9f0       ?growAndPushBack@?$Array@VNpConnector@physx@@V?$InlineAllocator@$0CA@VNamedAllocator@shdfnd@physx@@@shdfnd@2@@shdfnd@physx@@IAEAAVNpConnector@3@ABV43@@Z 1000d9f0 f i NpActor.obj
 0001:0000cac0       ?recreate@?$Array@VNpConnector@physx@@V?$InlineAllocator@$0CA@VNamedAllocator@shdfnd@physx@@@shdfnd@2@@shdfnd@physx@@IAEXI@Z 1000dac0 f i NpActor.obj
 0001:0000cb60       ?reserveInternal@?$HashBase@PAVPxConstraint@physx@@PAV12@U?$Hash@PAVPxConstraint@physx@@@shdfnd@2@UGetKey@?$HashSetBase@PAVPxConstraint@physx@@U?$Hash@PAVPxConstraint@physx@@@shdfnd@2@VNonTrackingAllocator@42@$00@internal@42@VNonTrackingAllocator@42@$00@internal@shdfnd@physx@@AAEXI@Z 1000db60 f i NpActor.obj
 0001:0000ccf0       ?resizeUninitialized@?$Array@VNpConnector@physx@@V?$InlineAllocator@$0CA@VNamedAllocator@shdfnd@physx@@@shdfnd@2@@shdfnd@physx@@QAEXI@Z 1000dcf0 f i NpActor.obj
 0001:0000cd20       ?preExportDataReset@NpAggregate@physx@@QAEXXZ 1000dd20 f   NpAggregate.obj
 0001:0000cd30       ?exportExtraData@NpAggregate@physx@@UAEXAAVPxSerializationContext@2@@Z 1000dd30 f   NpAggregate.obj
 0001:0000cd60       ?importExtraData@NpAggregate@physx@@QAEXAAVPxDeserializationContext@2@@Z 1000dd60 f   NpAggregate.obj
 0001:0000cd90       ?resolveReferences@NpAggregate@physx@@QAEXAAVPxDeserializationContext@2@@Z 1000dd90 f   NpAggregate.obj
 0001:0000ce30       ?requiresObjects@NpAggregate@physx@@UAEXAAVPxProcessPxBaseCallback@2@@Z 1000de30 f   NpAggregate.obj
 0001:0000ce80       ?createObject@NpAggregate@physx@@SAPAV12@AAPAEAAVPxDeserializationContext@2@@Z 1000de80 f   NpAggregate.obj
 0001:0000cf70       ??0NpAggregate@physx@@QAE@I_N@Z 1000df70 f   NpAggregate.obj
 0001:0000cff0       ??1NpAggregate@physx@@UAE@XZ 1000dff0 f   NpAggregate.obj
 0001:0000d040       ?release@NpAggregate@physx@@UAEXXZ 1000e040 f   NpAggregate.obj
 0001:0000d170       ?addActor@NpAggregate@physx@@UAE_NAAVPxActor@2@PBVPxBVHStructure@2@@Z 1000e170 f   NpAggregate.obj
 0001:0000d340       ?removeActor@NpAggregate@physx@@UAE_NAAVPxActor@2@@Z 1000e340 f   NpAggregate.obj
 0001:0000d520       ?addArticulation@NpAggregate@physx@@UAE_NAAVPxArticulationBase@2@@Z 1000e520 f   NpAggregate.obj
 0001:0000d6c0       ?removeArticulation@NpAggregate@physx@@UAE_NAAVPxArticulationBase@2@@Z 1000e6c0 f   NpAggregate.obj
 0001:0000d7d0       ?getNbActors@NpAggregate@physx@@UBEIXZ 1000e7d0 f   NpAggregate.obj
 0001:0000d810       ?getMaxNbActors@NpAggregate@physx@@UBEIXZ 1000e810 f   NpAggregate.obj
 0001:0000d850       ?getActors@NpAggregate@physx@@UBEIPAPAVPxActor@2@II@Z 1000e850 f   NpAggregate.obj
 0001:0000d8d0       ?getScene@NpAggregate@physx@@UAEPAVPxScene@2@XZ 1000e8d0 f   NpAggregate.obj
 0001:0000d900       ?getSelfCollision@NpAggregate@physx@@UBE_NXZ 1000e900 f   NpAggregate.obj
 0001:0000d940       ?getAPIScene@NpAggregate@physx@@QBEPAVNpScene@2@XZ 1000e940 f   NpAggregate.obj
 0001:0000d970       ?getOwnerScene@NpAggregate@physx@@QBEPAVNpScene@2@XZ 1000e970 f   NpAggregate.obj
 0001:0000d980       ?addActorInternal@NpAggregate@physx@@QAEXAAVPxActor@2@AAVNpScene@2@PBVPxBVHStructure@2@@Z 1000e980 f   NpAggregate.obj
 0001:0000da20       ?removeAndReinsert@NpAggregate@physx@@QAEXAAVPxActor@2@_N@Z 1000ea20 f   NpAggregate.obj
 0001:0000da60       ?removeActorAndReinsert@NpAggregate@physx@@QAE_NAAVPxActor@2@_N@Z 1000ea60 f   NpAggregate.obj
 0001:0000dae0       ?removeArticulationAndReinsert@NpAggregate@physx@@QAE_NAAVPxArticulationBase@2@_N@Z 1000eae0 f   NpAggregate.obj
 0001:0000dba0       ??$pointerOffset@PAVActor@Scb@physx@@@shdfnd@physx@@YAPAVActor@Scb@1@PAXH@Z 1000eba0 f i NpAggregate.obj
 0001:0000dbb0       ??$pointerOffset@PAVNpActor@physx@@@shdfnd@physx@@YAPAVNpActor@1@PAXH@Z 1000ebb0 f i NpAggregate.obj
 0001:0000dbc0       ??1PxAggregate@physx@@MAE@XZ 1000ebc0 f i NpAggregate.obj
 0001:0000dbd0       ??1PxBase@physx@@MAE@XZ    1000ebd0 f i NpAggregate.obj
 0001:0000dbe0       ??_GNpAggregate@physx@@UAEPAXI@Z 1000ebe0 f i NpAggregate.obj
 0001:0000dbe0       ??_ENpAggregate@physx@@UAEPAXI@Z 1000ebe0 f i NpAggregate.obj
 0001:0000dc50       ??_EPxAggregate@physx@@MAEPAXI@Z 1000ec50 f i NpAggregate.obj
 0001:0000dc50       ??_GPxAggregate@physx@@MAEPAXI@Z 1000ec50 f i NpAggregate.obj
 0001:0000dc80       ??_GPxBase@physx@@MAEPAXI@Z 1000ec80 f i NpAggregate.obj
 0001:0000dc80       ??_EPxBase@physx@@MAEPAXI@Z 1000ec80 f i NpAggregate.obj
 0001:0000dcb0       ?erase@?$HashBase@PAVPxAggregate@physx@@PAV12@U?$Hash@PAVPxAggregate@physx@@@shdfnd@2@UGetKey@?$HashSetBase@PAVPxAggregate@physx@@U?$Hash@PAVPxAggregate@physx@@@shdfnd@2@VNonTrackingAllocator@42@$00@internal@42@VNonTrackingAllocator@42@$00@internal@shdfnd@physx@@QAE_NABQAVPxAggregate@4@@Z 1000ecb0 f i NpAggregate.obj
 0001:0000ddb0       ?getConcreteTypeName@PxAggregate@physx@@UBEPBDXZ 1000edb0 f i NpAggregate.obj
 0001:0000ddc0       ?isKindOf@PxAggregate@physx@@MBE_NPBD@Z 1000edc0 f i NpAggregate.obj
 0001:0000de40       ?isKindOf@PxBase@physx@@MBE_NPBD@Z 1000ee40 f i NpAggregate.obj
 0001:0000de90       ?isReleasable@PxBase@physx@@UBE_NXZ 1000ee90 f i NpAggregate.obj
 0001:0000dea0       ?recomputeLinkIDs@PxArticulationImpl@physx@@QAEXXZ 1000eea0 f   NpArticulationReducedCoordinate.obj
 0001:0000dfd0       ??1NpArticulationReducedCoordinate@physx@@UAE@XZ 1000efd0 f   NpArticulationReducedCoordinate.obj
 0001:0000e060       ?preExportDataReset@NpArticulationReducedCoordinate@physx@@QAEXXZ 1000f060 f   NpArticulationReducedCoordinate.obj
 0001:0000e0e0       ?createObject@NpArticulationReducedCoordinate@physx@@SAPAV12@AAPAEAAVPxDeserializationContext@2@@Z 1000f0e0 f   NpArticulationReducedCoordinate.obj
 0001:0000e230       ?setArticulationFlags@NpArticulationReducedCoordinate@physx@@UAEXV?$PxFlags@W4Enum@PxArticulationFlag@physx@@E@2@@Z 1000f230 f   NpArticulationReducedCoordinate.obj
 0001:0000e2e0       ?setArticulationFlag@NpArticulationReducedCoordinate@physx@@UAEXW4Enum@PxArticulationFlag@2@_N@Z 1000f2e0 f   NpArticulationReducedCoordinate.obj
 0001:0000e3b0       ?getArticulationFlags@NpArticulationReducedCoordinate@physx@@UBE?AV?$PxFlags@W4Enum@PxArticulationFlag@physx@@E@2@XZ 1000f3b0 f   NpArticulationReducedCoordinate.obj
 0001:0000e3f0       ?getDofs@NpArticulationReducedCoordinate@physx@@UBEIXZ 1000f3f0 f   NpArticulationReducedCoordinate.obj
 0001:0000e430       ?createCache@NpArticulationReducedCoordinate@physx@@UBEPAVPxArticulationCache@2@XZ 1000f430 f   NpArticulationReducedCoordinate.obj
 0001:0000e500       ?getCacheDataSize@NpArticulationReducedCoordinate@physx@@UBEIXZ 1000f500 f   NpArticulationReducedCoordinate.obj
 0001:0000e5c0       ?zeroCache@NpArticulationReducedCoordinate@physx@@UAEXAAVPxArticulationCache@2@@Z 1000f5c0 f   NpArticulationReducedCoordinate.obj
 0001:0000e610       ?applyCache@NpArticulationReducedCoordinate@physx@@UAEXAAVPxArticulationCache@2@V?$PxFlags@W4Enum@PxArticulationCache@physx@@E@2@_N@Z 1000f610 f   NpArticulationReducedCoordinate.obj
 0001:0000e9f0       ?copyInternalStateToCache@NpArticulationReducedCoordinate@physx@@UBEXAAVPxArticulationCache@2@V?$PxFlags@W4Enum@PxArticulationCache@physx@@E@2@@Z 1000f9f0 f   NpArticulationReducedCoordinate.obj
 0001:0000eaa0       ?releaseCache@NpArticulationReducedCoordinate@physx@@UBEXAAVPxArticulationCache@2@@Z 1000faa0 f   NpArticulationReducedCoordinate.obj
 0001:0000eb60       ?packJointData@NpArticulationReducedCoordinate@physx@@UBEXPBMPAM@Z 1000fb60 f   NpArticulationReducedCoordinate.obj
 0001:0000ec30       ?unpackJointData@NpArticulationReducedCoordinate@physx@@UBEXPBMPAM@Z 1000fc30 f   NpArticulationReducedCoordinate.obj
 0001:0000ed00       ?commonInit@NpArticulationReducedCoordinate@physx@@UBEXXZ 1000fd00 f   NpArticulationReducedCoordinate.obj
 0001:0000edc0       ?computeGeneralizedGravityForce@NpArticulationReducedCoordinate@physx@@UBEXAAVPxArticulationCache@2@@Z 1000fdc0 f   NpArticulationReducedCoordinate.obj
 0001:0000eec0       ?computeCoriolisAndCentrifugalForce@NpArticulationReducedCoordinate@physx@@UBEXAAVPxArticulationCache@2@@Z 1000fec0 f   NpArticulationReducedCoordinate.obj
 0001:0000efc0       ?computeGeneralizedExternalForce@NpArticulationReducedCoordinate@physx@@UBEXAAVPxArticulationCache@2@@Z 1000ffc0 f   NpArticulationReducedCoordinate.obj
 0001:0000f0c0       ?computeJointAcceleration@NpArticulationReducedCoordinate@physx@@UBEXAAVPxArticulationCache@2@@Z 100100c0 f   NpArticulationReducedCoordinate.obj
 0001:0000f1c0       ?computeJointForce@NpArticulationReducedCoordinate@physx@@UBEXAAVPxArticulationCache@2@@Z 100101c0 f   NpArticulationReducedCoordinate.obj
 0001:0000f2c0       ?computeDenseJacobian@NpArticulationReducedCoordinate@physx@@UBEXAAVPxArticulationCache@2@AAI1@Z 100102c0 f   NpArticulationReducedCoordinate.obj
 0001:0000f3d0       ?computeCoefficientMatrix@NpArticulationReducedCoordinate@physx@@UBEXAAVPxArticulationCache@2@@Z 100103d0 f   NpArticulationReducedCoordinate.obj
 0001:0000f500       ?computeLambda@NpArticulationReducedCoordinate@physx@@UBE_NAAVPxArticulationCache@2@0QBMI@Z 10010500 f   NpArticulationReducedCoordinate.obj
 0001:0000f610       ?computeGeneralizedMassMatrix@NpArticulationReducedCoordinate@physx@@UBEXAAVPxArticulationCache@2@@Z 10010610 f   NpArticulationReducedCoordinate.obj
 0001:0000f710       ?addLoopJoint@NpArticulationReducedCoordinate@physx@@UAEXPAVPxJoint@2@@Z 10010710 f   NpArticulationReducedCoordinate.obj
 0001:0000f880       ?removeLoopJoint@NpArticulationReducedCoordinate@physx@@UAEXPAVPxJoint@2@@Z 10010880 f   NpArticulationReducedCoordinate.obj
 0001:0000f900       ?getNbLoopJoints@NpArticulationReducedCoordinate@physx@@UBEIXZ 10010900 f   NpArticulationReducedCoordinate.obj
 0001:0000f940       ?getLoopJoints@NpArticulationReducedCoordinate@physx@@UBEIPAPAVPxJoint@2@II@Z 10010940 f   NpArticulationReducedCoordinate.obj
 0001:0000f9c0       ?getCoefficientMatrixSize@NpArticulationReducedCoordinate@physx@@UBEIXZ 100109c0 f   NpArticulationReducedCoordinate.obj
 0001:0000fa00       ?teleportRootLink@NpArticulationReducedCoordinate@physx@@UAEXABVPxTransform@2@_N@Z 10010a00 f   NpArticulationReducedCoordinate.obj
 0001:0000fb20       ?getLinkVelocity@NpArticulationReducedCoordinate@physx@@UAE?AUPxSpatialVelocity@2@I@Z 10010b20 f   NpArticulationReducedCoordinate.obj
 0001:0000fc40       ?getLinkAcceleration@NpArticulationReducedCoordinate@physx@@UAE?AUPxSpatialVelocity@2@I@Z 10010c40 f   NpArticulationReducedCoordinate.obj
 0001:0000fd60       ??0NpArticulationReducedCoordinate@physx@@QAE@XZ 10010d60 f   NpArticulationReducedCoordinate.obj
 0001:0000feb0       ?createArticulationJoint@NpArticulationReducedCoordinate@physx@@UAEPAVPxArticulationJointBase@2@AAVPxArticulationLink@2@ABVPxTransform@2@01@Z 10010eb0 f   NpArticulationReducedCoordinate.obj
 0001:0000fec0       ?releaseArticulationJoint@NpArticulationReducedCoordinate@physx@@UAEXPAVPxArticulationJointBase@2@@Z 10010ec0 f   NpArticulationReducedCoordinate.obj
 0001:0000fed0       ??$exportArray@PAVNpArticulationLink@physx@@V?$InlineAllocator@$0BA@VNamedAllocator@shdfnd@physx@@@shdfnd@2@@Cm@physx@@YAXABV?$Array@PAVNpArticulationLink@physx@@V?$InlineAllocator@$0BA@VNamedAllocator@shdfnd@physx@@@shdfnd@2@@shdfnd@1@AAVPxSerializationContext@1@@Z 10010ed0 f i NpArticulationReducedCoordinate.obj
 0001:0000ff00       ??$exportInlineArray@PAVNpArticulationLink@physx@@$03VNamedAllocator@shdfnd@2@@Cm@physx@@YAXABV?$InlineArray@PAVNpArticulationLink@physx@@$03VNamedAllocator@shdfnd@2@@shdfnd@1@AAVPxSerializationContext@1@@Z 10010f00 f i NpArticulationReducedCoordinate.obj
 0001:0000ff40       ??$importArray@PAVNpArticulationLink@physx@@V?$InlineAllocator@$0BA@VNamedAllocator@shdfnd@physx@@@shdfnd@2@@Cm@physx@@YAXAAV?$Array@PAVNpArticulationLink@physx@@V?$InlineAllocator@$0BA@VNamedAllocator@shdfnd@physx@@@shdfnd@2@@shdfnd@1@AAVPxDeserializationContext@1@@Z 10010f40 f i NpArticulationReducedCoordinate.obj
 0001:0000ff70       ??$importInlineArray@PAVNpArticulationLink@physx@@$03VNamedAllocator@shdfnd@2@@Cm@physx@@YAXAAV?$InlineArray@PAVNpArticulationLink@physx@@$03VNamedAllocator@shdfnd@2@@shdfnd@1@AAVPxDeserializationContext@1@@Z 10010f70 f i NpArticulationReducedCoordinate.obj
 0001:0000ffc0       ??1?$NpArticulationTemplate@VPxArticulationReducedCoordinate@physx@@@physx@@UAE@XZ 10010fc0 f i NpArticulationReducedCoordinate.obj
 0001:00010020       ??1PxArticulationBase@physx@@UAE@XZ 10011020 f i NpArticulationReducedCoordinate.obj
 0001:00010030       ??1PxArticulationReducedCoordinate@physx@@MAE@XZ 10011030 f i NpArticulationReducedCoordinate.obj
 0001:00010040       ??_G?$NpArticulationTemplate@VPxArticulationReducedCoordinate@physx@@@physx@@UAEPAXI@Z 10011040 f i NpArticulationReducedCoordinate.obj
 0001:00010040       ??_E?$NpArticulationTemplate@VPxArticulationReducedCoordinate@physx@@@physx@@UAEPAXI@Z 10011040 f i NpArticulationReducedCoordinate.obj
 0001:000100d0       ??_ENpArticulationReducedCoordinate@physx@@UAEPAXI@Z 100110d0 f i NpArticulationReducedCoordinate.obj
 0001:000100d0       ??_GNpArticulationReducedCoordinate@physx@@UAEPAXI@Z 100110d0 f i NpArticulationReducedCoordinate.obj
 0001:00010190       ??_EPxArticulationBase@physx@@UAEPAXI@Z 10011190 f i NpArticulationReducedCoordinate.obj
 0001:00010190       ??_GPxArticulationBase@physx@@UAEPAXI@Z 10011190 f i NpArticulationReducedCoordinate.obj
 0001:000101c0       ??_GPxArticulationReducedCoordinate@physx@@MAEPAXI@Z 100111c0 f i NpArticulationReducedCoordinate.obj
 0001:000101c0       ??_EPxArticulationReducedCoordinate@physx@@MAEPAXI@Z 100111c0 f i NpArticulationReducedCoordinate.obj
 0001:000101f0       ?createLink@?$NpArticulationTemplate@VPxArticulationReducedCoordinate@physx@@@physx@@UAEPAVPxArticulationLink@2@PAV32@ABVPxTransform@2@@Z 100111f0 f i NpArticulationReducedCoordinate.obj
 0001:000103e0       ?erase@?$HashBase@PAVPxArticulationBase@physx@@PAV12@U?$Hash@PAVPxArticulationBase@physx@@@shdfnd@2@UGetKey@?$HashSetBase@PAVPxArticulationBase@physx@@U?$Hash@PAVPxArticulationBase@physx@@@shdfnd@2@VNonTrackingAllocator@42@$00@internal@42@VNonTrackingAllocator@42@$00@internal@shdfnd@physx@@QAE_NABQAVPxArticulationBase@4@@Z 100113e0 f i NpArticulationReducedCoordinate.obj
 0001:000104e0       ?exportExtraData@?$NpArticulationTemplate@VPxArticulationReducedCoordinate@physx@@@physx@@UAEXAAVPxSerializationContext@2@@Z 100114e0 f i NpArticulationReducedCoordinate.obj
 0001:00010530       ?getAPIScene@PxArticulationImpl@physx@@QBEPAVNpScene@2@XZ 10011530 f i NpArticulationReducedCoordinate.obj
 0001:00010560       ?getAggregate@?$NpArticulationTemplate@VPxArticulationReducedCoordinate@physx@@@physx@@UBEPAVPxAggregate@2@XZ 10011560 f i NpArticulationReducedCoordinate.obj
 0001:000105a0       ?getConcreteTypeName@NpArticulationReducedCoordinate@physx@@UBEPBDXZ 100115a0 f i NpArticulationReducedCoordinate.obj
 0001:000105b0       ?getImpl@?$NpArticulationTemplate@VPxArticulationReducedCoordinate@physx@@@physx@@UAEPAVPxArticulationImpl@2@XZ 100115b0 f i NpArticulationReducedCoordinate.obj
 0001:000105c0       ?getImpl@?$NpArticulationTemplate@VPxArticulationReducedCoordinate@physx@@@physx@@UBEPBVPxArticulationImpl@2@XZ 100115c0 f i NpArticulationReducedCoordinate.obj
 0001:000105d0       ?getLinks@?$NpArticulationTemplate@VPxArticulationReducedCoordinate@physx@@@physx@@UBEIPAPAVPxArticulationLink@2@II@Z 100115d0 f i NpArticulationReducedCoordinate.obj
 0001:00010650       ?getName@?$NpArticulationTemplate@VPxArticulationReducedCoordinate@physx@@@physx@@UBEPBDXZ 10011650 f i NpArticulationReducedCoordinate.obj
 0001:00010690       ?getNbLinks@?$NpArticulationTemplate@VPxArticulationReducedCoordinate@physx@@@physx@@UBEIXZ 10011690 f i NpArticulationReducedCoordinate.obj
 0001:000106d0       ?getNbLinks@PxArticulationImpl@physx@@QBEIXZ 100116d0 f i NpArticulationReducedCoordinate.obj
 0001:00010710       ?getScene@?$NpArticulationTemplate@VPxArticulationReducedCoordinate@physx@@@physx@@UBEPAVPxScene@2@XZ 10011710 f i NpArticulationReducedCoordinate.obj
 0001:00010740       ?getSleepThreshold@?$NpArticulationTemplate@VPxArticulationReducedCoordinate@physx@@@physx@@UBEMXZ 10011740 f i NpArticulationReducedCoordinate.obj
 0001:000107a0       ?getSolverIterationCounts@?$NpArticulationTemplate@VPxArticulationReducedCoordinate@physx@@@physx@@UBEXAAI0@Z 100117a0 f i NpArticulationReducedCoordinate.obj
 0001:00010800       ?getStabilizationThreshold@?$NpArticulationTemplate@VPxArticulationReducedCoordinate@physx@@@physx@@UBEMXZ 10011800 f i NpArticulationReducedCoordinate.obj
 0001:00010860       ?getWakeCounter@?$NpArticulationTemplate@VPxArticulationReducedCoordinate@physx@@@physx@@UBEMXZ 10011860 f i NpArticulationReducedCoordinate.obj
 0001:000108b0       ?getWorldBounds@?$NpArticulationTemplate@VPxArticulationReducedCoordinate@physx@@@physx@@UBE?AVPxBounds3@2@M@Z 100118b0 f i NpArticulationReducedCoordinate.obj
 0001:00010ab0       ?growAndPushBack@?$Array@PAVNpArticulationLink@physx@@V?$InlineAllocator@$0BA@VNamedAllocator@shdfnd@physx@@@shdfnd@2@@shdfnd@physx@@IAEAAPAVNpArticulationLink@3@ABQAV43@@Z 10011ab0 f i NpArticulationReducedCoordinate.obj
 0001:00010b80       ?growAndPushBack@?$Array@PAVPxJoint@physx@@VNamedAllocator@shdfnd@2@@shdfnd@physx@@IAEAAPAVPxJoint@3@ABQAV43@@Z 10011b80 f i NpArticulationReducedCoordinate.obj
 0001:00010c30       ?importExtraData@?$NpArticulationTemplate@VPxArticulationReducedCoordinate@physx@@@physx@@QAEXAAVPxDeserializationContext@2@@Z 10011c30 f i NpArticulationReducedCoordinate.obj
 0001:00010c80       ?isKindOf@NpArticulationReducedCoordinate@physx@@UBE_NPBD@Z 10011c80 f i NpArticulationReducedCoordinate.obj
 0001:00010d00       ?isSane@PxTransform@physx@@QBE_NXZ 10011d00 f i NpArticulationReducedCoordinate.obj
 0001:00010de0       ?isSleeping@?$NpArticulationTemplate@VPxArticulationReducedCoordinate@physx@@@physx@@UBE_NXZ 10011de0 f i NpArticulationReducedCoordinate.obj
 0001:00010df0       ?isSleeping@PxArticulationImpl@physx@@QBE_NXZ 10011df0 f i NpArticulationReducedCoordinate.obj
 0001:00010ec0       ?putToSleep@?$NpArticulationTemplate@VPxArticulationReducedCoordinate@physx@@@physx@@UAEXXZ 10011ec0 f i NpArticulationReducedCoordinate.obj
 0001:00010ed0       ?putToSleep@PxArticulationImpl@physx@@QAEXXZ 10011ed0 f i NpArticulationReducedCoordinate.obj
 0001:00011110       ?recreate@?$Array@PAVPxJoint@physx@@VNamedAllocator@shdfnd@2@@shdfnd@physx@@IAEXI@Z 10012110 f i NpArticulationReducedCoordinate.obj
 0001:00011190       ?release@?$NpArticulationTemplate@VPxArticulationReducedCoordinate@physx@@@physx@@UAEXXZ 10012190 f i NpArticulationReducedCoordinate.obj
 0001:00011270       ?requiresObjects@?$NpArticulationTemplate@VPxArticulationReducedCoordinate@physx@@@physx@@UAEXAAVPxProcessPxBaseCallback@2@@Z 10012270 f i NpArticulationReducedCoordinate.obj
 0001:000112a0       ?resolveReferences@?$NpArticulationTemplate@VPxArticulationReducedCoordinate@physx@@@physx@@QAEXAAVPxDeserializationContext@2@@Z 100122a0 f i NpArticulationReducedCoordinate.obj
 0001:00011310       ?setAngularVelocity@Body@Scb@physx@@QAEXABVPxVec3@3@@Z 10012310 f i NpArticulationReducedCoordinate.obj
 0001:000113a0       ?setLinearVelocity@Body@Scb@physx@@QAEXABVPxVec3@3@@Z 100123a0 f i NpArticulationReducedCoordinate.obj
 0001:00011430       ?setName@?$NpArticulationTemplate@VPxArticulationReducedCoordinate@physx@@@physx@@UAEXPBD@Z 10012430 f i NpArticulationReducedCoordinate.obj
 0001:00011470       ?setSleepThreshold@?$NpArticulationTemplate@VPxArticulationReducedCoordinate@physx@@@physx@@UAEXM@Z 10012470 f i NpArticulationReducedCoordinate.obj
 0001:00011530       ?setSolverIterationCounts@?$NpArticulationTemplate@VPxArticulationReducedCoordinate@physx@@@physx@@UAEXII@Z 10012530 f i NpArticulationReducedCoordinate.obj
 0001:00011660       ?setStabilizationThreshold@?$NpArticulationTemplate@VPxArticulationReducedCoordinate@physx@@@physx@@UAEXM@Z 10012660 f i NpArticulationReducedCoordinate.obj
 0001:00011720       ?setWakeCounter@?$NpArticulationTemplate@VPxArticulationReducedCoordinate@physx@@@physx@@UAEXM@Z 10012720 f i NpArticulationReducedCoordinate.obj
 0001:00011740       ?setWakeCounter@PxArticulationImpl@physx@@QAEXM@Z 10012740 f i NpArticulationReducedCoordinate.obj
 0001:00011900       ?wakeUp@?$NpArticulationTemplate@VPxArticulationReducedCoordinate@physx@@@physx@@UAEXXZ 10012900 f i NpArticulationReducedCoordinate.obj
 0001:00011910       ?wakeUp@PxArticulationImpl@physx@@QAEXXZ 10012910 f i NpArticulationReducedCoordinate.obj
 0001:00011ab0       ?wakeUpInternal@Body@Scb@physx@@QAEXM@Z 10012ab0 f i NpArticulationReducedCoordinate.obj
 0001:00011b30       ?wakeUpInternal@PxArticulationImpl@physx@@QAEX_N0@Z 10012b30 f i NpArticulationReducedCoordinate.obj
 0001:00011cc0       ?NpArticulationGetRootFromScb@physx@@YAPAVBody@Scb@1@AAVArticulation@31@@Z 10012cc0 f   NpArticulation.obj
 0001:00011cf0       ?NpSetArticulationOnJoint@physx@@YAXAAVPxArticulationJointBase@1@AAVPxArticulationImpl@1@@Z 10012cf0 f   NpArticulation.obj
 0001:00011d10       ??1NpArticulation@physx@@UAE@XZ 10012d10 f   NpArticulation.obj
 0001:00011d80       ?createObject@NpArticulation@physx@@SAPAV12@AAPAEAAVPxDeserializationContext@2@@Z 10012d80 f   NpArticulation.obj
 0001:00011eb0       ?getInternalDriveIterations@NpArticulation@physx@@UBEIXZ 10012eb0 f   NpArticulation.obj
 0001:00011f10       ?setInternalDriveIterations@NpArticulation@physx@@UAEXI@Z 10012f10 f   NpArticulation.obj
 0001:00011fc0       ?getExternalDriveIterations@NpArticulation@physx@@UBEIXZ 10012fc0 f   NpArticulation.obj
 0001:00012020       ?setExternalDriveIterations@NpArticulation@physx@@UAEXI@Z 10013020 f   NpArticulation.obj
 0001:000120d0       ?getMaxProjectionIterations@NpArticulation@physx@@UBEIXZ 100130d0 f   NpArticulation.obj
 0001:00012130       ?setMaxProjectionIterations@NpArticulation@physx@@UAEXI@Z 10013130 f   NpArticulation.obj
 0001:000121e0       ?getSeparationTolerance@NpArticulation@physx@@UBEMXZ 100131e0 f   NpArticulation.obj
 0001:00012240       ?setSeparationTolerance@NpArticulation@physx@@UAEXM@Z 10013240 f   NpArticulation.obj
 0001:00012300       ?createDriveCache@NpArticulation@physx@@UBEPAVPxArticulationDriveCache@2@MI@Z 10013300 f   NpArticulation.obj
 0001:000123d0       ?updateDriveCache@NpArticulation@physx@@UBEXAAVPxArticulationDriveCache@2@MI@Z 100133d0 f   NpArticulation.obj
 0001:00012500       ?releaseDriveCache@NpArticulation@physx@@UBEXAAVPxArticulationDriveCache@2@@Z 10013500 f   NpArticulation.obj
 0001:000125c0       ?applyImpulse@NpArticulation@physx@@UAEXPAVPxArticulationLink@2@ABVPxArticulationDriveCache@2@ABVPxVec3@2@2@Z 100135c0 f   NpArticulation.obj
 0001:00012880       ?computeImpulseResponse@NpArticulation@physx@@UBEXPAVPxArticulationLink@2@AAVPxVec3@2@1ABVPxArticulationDriveCache@2@ABV42@3@Z 10013880 f   NpArticulation.obj
 0001:00012ab0       ??0NpArticulation@physx@@QAE@XZ 10013ab0 f   NpArticulation.obj
 0001:00012bd0       ?createArticulationJoint@NpArticulation@physx@@EAEPAVPxArticulationJointBase@2@AAVPxArticulationLink@2@ABVPxTransform@2@01@Z 10013bd0 f   NpArticulation.obj
 0001:00012be0       ?releaseArticulationJoint@NpArticulation@physx@@EAEXPAVPxArticulationJointBase@2@@Z 10013be0 f   NpArticulation.obj
 0001:00012bf0       ??1?$NpArticulationTemplate@VPxArticulation@physx@@@physx@@UAE@XZ 10013bf0 f i NpArticulation.obj
 0001:00012c50       ??1PxArticulation@physx@@MAE@XZ 10013c50 f i NpArticulation.obj
 0001:00012c60       ??_E?$NpArticulationTemplate@VPxArticulation@physx@@@physx@@UAEPAXI@Z 10013c60 f i NpArticulation.obj
 0001:00012c60       ??_G?$NpArticulationTemplate@VPxArticulation@physx@@@physx@@UAEPAXI@Z 10013c60 f i NpArticulation.obj
 0001:00012cf0       ??_GNpArticulation@physx@@UAEPAXI@Z 10013cf0 f i NpArticulation.obj
 0001:00012cf0       ??_ENpArticulation@physx@@UAEPAXI@Z 10013cf0 f i NpArticulation.obj
 0001:00012d90       ??_EPxArticulation@physx@@MAEPAXI@Z 10013d90 f i NpArticulation.obj
 0001:00012d90       ??_GPxArticulation@physx@@MAEPAXI@Z 10013d90 f i NpArticulation.obj
 0001:00012dc0       ?createLink@?$NpArticulationTemplate@VPxArticulation@physx@@@physx@@UAEPAVPxArticulationLink@2@PAV32@ABVPxTransform@2@@Z 10013dc0 f i NpArticulation.obj
 0001:00012fb0       ?exportExtraData@?$NpArticulationTemplate@VPxArticulation@physx@@@physx@@UAEXAAVPxSerializationContext@2@@Z 10013fb0 f i NpArticulation.obj
 0001:00013000       ?getAggregate@?$NpArticulationTemplate@VPxArticulation@physx@@@physx@@UBEPAVPxAggregate@2@XZ 10014000 f i NpArticulation.obj
 0001:00013040       ?getConcreteTypeName@NpArticulation@physx@@UBEPBDXZ 10014040 f i NpArticulation.obj
 0001:00013050       ?getImpl@?$NpArticulationTemplate@VPxArticulation@physx@@@physx@@UAEPAVPxArticulationImpl@2@XZ 10014050 f i NpArticulation.obj
 0001:00013060       ?getImpl@?$NpArticulationTemplate@VPxArticulation@physx@@@physx@@UBEPBVPxArticulationImpl@2@XZ 10014060 f i NpArticulation.obj
 0001:00013070       ?getLinks@?$NpArticulationTemplate@VPxArticulation@physx@@@physx@@UBEIPAPAVPxArticulationLink@2@II@Z 10014070 f i NpArticulation.obj
 0001:000130f0       ?getName@?$NpArticulationTemplate@VPxArticulation@physx@@@physx@@UBEPBDXZ 100140f0 f i NpArticulation.obj
 0001:00013130       ?getNbLinks@?$NpArticulationTemplate@VPxArticulation@physx@@@physx@@UBEIXZ 10014130 f i NpArticulation.obj
 0001:00013170       ?getScene@?$NpArticulationTemplate@VPxArticulation@physx@@@physx@@UBEPAVPxScene@2@XZ 10014170 f i NpArticulation.obj
 0001:000131a0       ?getSleepThreshold@?$NpArticulationTemplate@VPxArticulation@physx@@@physx@@UBEMXZ 100141a0 f i NpArticulation.obj
 0001:00013200       ?getSolverIterationCounts@?$NpArticulationTemplate@VPxArticulation@physx@@@physx@@UBEXAAI0@Z 10014200 f i NpArticulation.obj
 0001:00013260       ?getStabilizationThreshold@?$NpArticulationTemplate@VPxArticulation@physx@@@physx@@UBEMXZ 10014260 f i NpArticulation.obj
 0001:000132c0       ?getWakeCounter@?$NpArticulationTemplate@VPxArticulation@physx@@@physx@@UBEMXZ 100142c0 f i NpArticulation.obj
 0001:00013310       ?getWorldBounds@?$NpArticulationTemplate@VPxArticulation@physx@@@physx@@UBE?AVPxBounds3@2@M@Z 10014310 f i NpArticulation.obj
 0001:00013510       ?importExtraData@?$NpArticulationTemplate@VPxArticulation@physx@@@physx@@QAEXAAVPxDeserializationContext@2@@Z 10014510 f i NpArticulation.obj
 0001:00013560       ?isFinite@PxVec3@physx@@QBE_NXZ 10014560 f i NpArticulation.obj
 0001:000135d0       ?isKindOf@NpArticulation@physx@@UBE_NPBD@Z 100145d0 f i NpArticulation.obj
 0001:00013650       ?isSleeping@?$NpArticulationTemplate@VPxArticulation@physx@@@physx@@UBE_NXZ 10014650 f i NpArticulation.obj
 0001:00013660       ?putToSleep@?$NpArticulationTemplate@VPxArticulation@physx@@@physx@@UAEXXZ 10014660 f i NpArticulation.obj
 0001:000137a0       ?putToSleepInternal@Body@Scb@physx@@QAEXXZ 100147a0 f i NpArticulation.obj
 0001:00013990       ?release@?$NpArticulationTemplate@VPxArticulation@physx@@@physx@@UAEXXZ 10014990 f i NpArticulation.obj
 0001:00013a70       ?requiresObjects@?$NpArticulationTemplate@VPxArticulation@physx@@@physx@@UAEXAAVPxProcessPxBaseCallback@2@@Z 10014a70 f i NpArticulation.obj
 0001:00013aa0       ?resolveReferences@?$NpArticulationTemplate@VPxArticulation@physx@@@physx@@QAEXAAVPxDeserializationContext@2@@Z 10014aa0 f i NpArticulation.obj
 0001:00013b10       ?setName@?$NpArticulationTemplate@VPxArticulation@physx@@@physx@@UAEXPBD@Z 10014b10 f i NpArticulation.obj
 0001:00013b50       ?setSleepThreshold@?$NpArticulationTemplate@VPxArticulation@physx@@@physx@@UAEXM@Z 10014b50 f i NpArticulation.obj
 0001:00013c10       ?setSolverIterationCounts@?$NpArticulationTemplate@VPxArticulation@physx@@@physx@@UAEXII@Z 10014c10 f i NpArticulation.obj
 0001:00013d40       ?setStabilizationThreshold@?$NpArticulationTemplate@VPxArticulation@physx@@@physx@@UAEXM@Z 10014d40 f i NpArticulation.obj
 0001:00013e00       ?setWakeCounter@?$NpArticulationTemplate@VPxArticulation@physx@@@physx@@UAEXM@Z 10014e00 f i NpArticulation.obj
 0001:00013e20       ?wakeUp@?$NpArticulationTemplate@VPxArticulation@physx@@@physx@@UAEXXZ 10014e20 f i NpArticulation.obj
 0001:00013e30       ?NpArticulationJointGetBodiesFromScb@physx@@YAXAAVArticulationJoint@Scb@1@AAPAVBody@31@1@Z 10014e30 f   NpArticulationJoint.obj
 0001:00013e60       ?resolveReferences@NpArticulationJoint@physx@@UAEXAAVPxDeserializationContext@2@@Z 10014e60 f   NpArticulationJoint.obj
 0001:00013eb0       ?createObject@NpArticulationJoint@physx@@SAPAV12@AAPAEAAVPxDeserializationContext@2@@Z 10014eb0 f   NpArticulationJoint.obj
 0001:00013f20       ??0NpArticulationJoint@physx@@QAE@AAVNpArticulationLink@1@ABVPxTransform@1@01@Z 10014f20 f   NpArticulationJoint.obj
 0001:00013fb0       ??1NpArticulationJoint@physx@@UAE@XZ 10014fb0 f   NpArticulationJoint.obj
 0001:00013fd0       ?setTargetOrientation@NpArticulationJoint@physx@@UAEXABVPxQuat@2@@Z 10014fd0 f   NpArticulationJoint.obj
 0001:00014300       ?getTargetOrientation@NpArticulationJoint@physx@@UBE?AVPxQuat@2@XZ 10015300 f   NpArticulationJoint.obj
 0001:00014370       ?setTargetVelocity@NpArticulationJoint@physx@@UAEXABVPxVec3@2@@Z 10015370 f   NpArticulationJoint.obj
 0001:00014530       ?getTargetVelocity@NpArticulationJoint@physx@@UBE?AVPxVec3@2@XZ 10015530 f   NpArticulationJoint.obj
 0001:00014590       ?setDriveType@NpArticulationJoint@physx@@UAEXW4Enum@PxArticulationJointDriveType@2@@Z 10015590 f   NpArticulationJoint.obj
 0001:00014660       ?getDriveType@NpArticulationJoint@physx@@UBE?AW4Enum@PxArticulationJointDriveType@2@XZ 10015660 f   NpArticulationJoint.obj
 0001:000146c0       ?setStiffness@NpArticulationJoint@physx@@UAEXM@Z 100156c0 f   NpArticulationJoint.obj
 0001:00014820       ?getStiffness@NpArticulationJoint@physx@@UBEMXZ 10015820 f   NpArticulationJoint.obj
 0001:00014880       ?setDamping@NpArticulationJoint@physx@@UAEXM@Z 10015880 f   NpArticulationJoint.obj
 0001:000149e0       ?getDamping@NpArticulationJoint@physx@@UBEMXZ 100159e0 f   NpArticulationJoint.obj
 0001:00014a40       ?setInternalCompliance@NpArticulationJoint@physx@@UAEXM@Z 10015a40 f   NpArticulationJoint.obj
 0001:00014ba0       ?getInternalCompliance@NpArticulationJoint@physx@@UBEMXZ 10015ba0 f   NpArticulationJoint.obj
 0001:00014c00       ?setExternalCompliance@NpArticulationJoint@physx@@UAEXM@Z 10015c00 f   NpArticulationJoint.obj
 0001:00014d60       ?getExternalCompliance@NpArticulationJoint@physx@@UBEMXZ 10015d60 f   NpArticulationJoint.obj
 0001:00014dc0       ?setSwingLimit@NpArticulationJoint@physx@@UAEXMM@Z 10015dc0 f   NpArticulationJoint.obj
 0001:00014fc0       ?getSwingLimit@NpArticulationJoint@physx@@UBEXAAM0@Z 10015fc0 f   NpArticulationJoint.obj
 0001:00015030       ?setTangentialStiffness@NpArticulationJoint@physx@@UAEXM@Z 10016030 f   NpArticulationJoint.obj
 0001:00015190       ?getTangentialStiffness@NpArticulationJoint@physx@@UBEMXZ 10016190 f   NpArticulationJoint.obj
 0001:000151f0       ?setTangentialDamping@NpArticulationJoint@physx@@UAEXM@Z 100161f0 f   NpArticulationJoint.obj
 0001:00015350       ?getTangentialDamping@NpArticulationJoint@physx@@UBEMXZ 10016350 f   NpArticulationJoint.obj
 0001:000153b0       ?setSwingLimitEnabled@NpArticulationJoint@physx@@UAEX_N@Z 100163b0 f   NpArticulationJoint.obj
 0001:00015480       ?getSwingLimitEnabled@NpArticulationJoint@physx@@UBE_NXZ 10016480 f   NpArticulationJoint.obj
 0001:000154e0       ?setSwingLimitContactDistance@NpArticulationJoint@physx@@UAEXM@Z 100164e0 f   NpArticulationJoint.obj
 0001:00015640       ?getSwingLimitContactDistance@NpArticulationJoint@physx@@UBEMXZ 10016640 f   NpArticulationJoint.obj
 0001:000156a0       ?setTwistLimit@NpArticulationJoint@physx@@UAEXMM@Z 100166a0 f   NpArticulationJoint.obj
 0001:00015890       ?getTwistLimit@NpArticulationJoint@physx@@UBEXAAM0@Z 10016890 f   NpArticulationJoint.obj
 0001:00015900       ?setTwistLimitEnabled@NpArticulationJoint@physx@@UAEX_N@Z 10016900 f   NpArticulationJoint.obj
 0001:000159d0       ?getTwistLimitEnabled@NpArticulationJoint@physx@@UBE_NXZ 100169d0 f   NpArticulationJoint.obj
 0001:00015a30       ?setTwistLimitContactDistance@NpArticulationJoint@physx@@UAEXM@Z 10016a30 f   NpArticulationJoint.obj
 0001:00015b90       ?getTwistLimitContactDistance@NpArticulationJoint@physx@@UBEMXZ 10016b90 f   NpArticulationJoint.obj
 0001:00015bf0       ?setJointType@NpArticulationJoint@physx@@UAEXW4Enum@PxArticulationJointType@2@@Z 10016bf0 f   NpArticulationJoint.obj
 0001:00015cc0       ?getJointType@NpArticulationJoint@physx@@UBE?AW4Enum@PxArticulationJointType@2@XZ 10016cc0 f   NpArticulationJoint.obj
 0001:00015d30       ?setMotion@NpArticulationJoint@physx@@UAEXW4Enum@PxArticulationAxis@2@W43PxArticulationMotion@2@@Z 10016d30 f   NpArticulationJoint.obj
 0001:00015e30       ?getMotion@NpArticulationJoint@physx@@UBE?AW4Enum@PxArticulationMotion@2@W43PxArticulationAxis@2@@Z 10016e30 f   NpArticulationJoint.obj
 0001:00015ea0       ?setFrictionCoefficient@NpArticulationJoint@physx@@UAEXM@Z 10016ea0 f   NpArticulationJoint.obj
 0001:00015f70       ?getFrictionCoefficient@NpArticulationJoint@physx@@UBEMXZ 10016f70 f   NpArticulationJoint.obj
 0001:00015ff0       ??0?$NpArticulationJointTemplate@VPxArticulationJoint@physx@@@physx@@QAE@GAAVNpArticulationLink@1@ABVPxTransform@1@01@Z 10016ff0 f i NpArticulationJoint.obj
 0001:00016080       ??1?$NpArticulationJointTemplate@VPxArticulationJoint@physx@@@physx@@UAE@XZ 10017080 f i NpArticulationJoint.obj
 0001:000160a0       ??1PxArticulationJoint@physx@@MAE@XZ 100170a0 f i NpArticulationJoint.obj
 0001:000160b0       ??1PxArticulationJointBase@physx@@UAE@XZ 100170b0 f i NpArticulationJoint.obj
 0001:000160c0       ??_G?$NpArticulationJointTemplate@VPxArticulationJoint@physx@@@physx@@UAEPAXI@Z 100170c0 f i NpArticulationJoint.obj
 0001:000160c0       ??_E?$NpArticulationJointTemplate@VPxArticulationJoint@physx@@@physx@@UAEPAXI@Z 100170c0 f i NpArticulationJoint.obj
 0001:00016110       ??_GNpArticulationJoint@physx@@UAEPAXI@Z 10017110 f i NpArticulationJoint.obj
 0001:00016110       ??_ENpArticulationJoint@physx@@UAEPAXI@Z 10017110 f i NpArticulationJoint.obj
 0001:00016160       ??_GPxArticulationJoint@physx@@MAEPAXI@Z 10017160 f i NpArticulationJoint.obj
 0001:00016160       ??_EPxArticulationJoint@physx@@MAEPAXI@Z 10017160 f i NpArticulationJoint.obj
 0001:00016190       ??_GPxArticulationJointBase@physx@@UAEPAXI@Z 10017190 f i NpArticulationJoint.obj
 0001:00016190       ??_EPxArticulationJointBase@physx@@UAEPAXI@Z 10017190 f i NpArticulationJoint.obj
 0001:000161c0       ?getChildArticulationLink@?$NpArticulationJointTemplate@VPxArticulationJoint@physx@@@physx@@UBEAAVPxArticulationLink@2@XZ 100171c0 f i NpArticulationJoint.obj
 0001:000161d0       ?getChildPose@?$NpArticulationJointTemplate@VPxArticulationJoint@physx@@@physx@@UBE?AVPxTransform@2@XZ 100171d0 f i NpArticulationJoint.obj
 0001:000161f0       ?getChildPose@PxArticulationJointImpl@physx@@QBE?AVPxTransform@2@XZ 100171f0 f i NpArticulationJoint.obj
 0001:00016500       ?getConcreteTypeName@PxArticulationJoint@physx@@UBEPBDXZ 10017500 f i NpArticulationJoint.obj
 0001:00016510       ?getImpl@?$NpArticulationJointTemplate@VPxArticulationJoint@physx@@@physx@@UAEPAVPxArticulationJointImpl@2@XZ 10017510 f i NpArticulationJoint.obj
 0001:00016520       ?getImpl@?$NpArticulationJointTemplate@VPxArticulationJoint@physx@@@physx@@UBEPBVPxArticulationJointImpl@2@XZ 10017520 f i NpArticulationJoint.obj
 0001:00016530       ?getParentArticulationLink@?$NpArticulationJointTemplate@VPxArticulationJoint@physx@@@physx@@UBEAAVPxArticulationLink@2@XZ 10017530 f i NpArticulationJoint.obj
 0001:00016540       ?getParentPose@?$NpArticulationJointTemplate@VPxArticulationJoint@physx@@@physx@@UBE?AVPxTransform@2@XZ 10017540 f i NpArticulationJoint.obj
 0001:00016560       ?getParentPose@PxArticulationJointImpl@physx@@QBE?AVPxTransform@2@XZ 10017560 f i NpArticulationJoint.obj
 0001:00016860       ?isKindOf@PxArticulationJoint@physx@@MBE_NPBD@Z 10017860 f i NpArticulationJoint.obj
 0001:00016910       ?isKindOf@PxArticulationJointBase@physx@@MBE_NPBD@Z 10017910 f i NpArticulationJoint.obj
 0001:00016990       ?isSubordinate@NpArticulationJoint@physx@@UBE_NXZ 10017990 f i NpArticulationJoint.obj
 0001:000169a0       ?release@?$NpArticulationJointTemplate@VPxArticulationJoint@physx@@@physx@@UAEXXZ 100179a0 f i NpArticulationJoint.obj
 0001:000169f0       ?requiresObjects@NpArticulationJoint@physx@@UAEXAAVPxProcessPxBaseCallback@2@@Z 100179f0 f i NpArticulationJoint.obj
 0001:00016a00       ?resolveReferences@PxArticulationJointImpl@physx@@QAEXAAVPxDeserializationContext@2@AAVPxArticulationJointBase@2@@Z 10017a00 f i NpArticulationJoint.obj
 0001:00016a50       ?setChildPose@?$NpArticulationJointTemplate@VPxArticulationJoint@physx@@@physx@@UAEXABVPxTransform@2@@Z 10017a50 f i NpArticulationJoint.obj
 0001:00016a60       ?setChildPose@PxArticulationJointImpl@physx@@QAEXABVPxTransform@2@@Z 10017a60 f i NpArticulationJoint.obj
 0001:00016e90       ?setParentPose@?$NpArticulationJointTemplate@VPxArticulationJoint@physx@@@physx@@UAEXABVPxTransform@2@@Z 10017e90 f i NpArticulationJoint.obj
 0001:00016ea0       ?setParentPose@PxArticulationJointImpl@physx@@QAEXABVPxTransform@2@@Z 10017ea0 f i NpArticulationJoint.obj
 0001:000172e0       ?resolveReferences@NpArticulationJointReducedCoordinate@physx@@UAEXAAVPxDeserializationContext@2@@Z 100182e0 f   NpArticulationJointReducedCoordinate.obj
 0001:00017330       ?createObject@NpArticulationJointReducedCoordinate@physx@@SAPAV12@AAPAEAAVPxDeserializationContext@2@@Z 10018330 f   NpArticulationJointReducedCoordinate.obj
 0001:00017390       ??0NpArticulationJointReducedCoordinate@physx@@QAE@AAVNpArticulationLink@1@ABVPxTransform@1@01@Z 10018390 f   NpArticulationJointReducedCoordinate.obj
 0001:00017420       ??1NpArticulationJointReducedCoordinate@physx@@UAE@XZ 10018420 f   NpArticulationJointReducedCoordinate.obj
 0001:00017440       ?setJointType@NpArticulationJointReducedCoordinate@physx@@UAEXW4Enum@PxArticulationJointType@2@@Z 10018440 f   NpArticulationJointReducedCoordinate.obj
 0001:00017540       ?getJointType@NpArticulationJointReducedCoordinate@physx@@UBE?AW4Enum@PxArticulationJointType@2@XZ 10018540 f   NpArticulationJointReducedCoordinate.obj
 0001:000175b0       ?setMotion@NpArticulationJointReducedCoordinate@physx@@UAEXW4Enum@PxArticulationAxis@2@W43PxArticulationMotion@2@@Z 100185b0 f   NpArticulationJointReducedCoordinate.obj
 0001:00017760       ?getMotion@NpArticulationJointReducedCoordinate@physx@@UBE?AW4Enum@PxArticulationMotion@2@W43PxArticulationAxis@2@@Z 10018760 f   NpArticulationJointReducedCoordinate.obj
 0001:000177d0       ?setFrictionCoefficient@NpArticulationJointReducedCoordinate@physx@@UAEXM@Z 100187d0 f   NpArticulationJointReducedCoordinate.obj
 0001:000178a0       ?getFrictionCoefficient@NpArticulationJointReducedCoordinate@physx@@UBEMXZ 100188a0 f   NpArticulationJointReducedCoordinate.obj
 0001:00017920       ?setMaxJointVelocity@NpArticulationJointReducedCoordinate@physx@@UAEXM@Z 10018920 f   NpArticulationJointReducedCoordinate.obj
 0001:000179f0       ?getMaxJointVelocity@NpArticulationJointReducedCoordinate@physx@@UBEMXZ 100189f0 f   NpArticulationJointReducedCoordinate.obj
 0001:00017a70       ?setLimit@NpArticulationJointReducedCoordinate@physx@@UAEXW4Enum@PxArticulationAxis@2@MM@Z 10018a70 f   NpArticulationJointReducedCoordinate.obj
 0001:00017bc0       ?getLimit@NpArticulationJointReducedCoordinate@physx@@UAEXW4Enum@PxArticulationAxis@2@AAM1@Z 10018bc0 f   NpArticulationJointReducedCoordinate.obj
 0001:00017c20       ?setDrive@NpArticulationJointReducedCoordinate@physx@@UAEXW4Enum@PxArticulationAxis@2@MMMW43PxArticulationDriveType@2@@Z 10018c20 f   NpArticulationJointReducedCoordinate.obj
 0001:00017c60       ?getDrive@NpArticulationJointReducedCoordinate@physx@@UAEXW4Enum@PxArticulationAxis@2@AAM11AAW43PxArticulationDriveType@2@@Z 10018c60 f   NpArticulationJointReducedCoordinate.obj
 0001:00017d00       ?setDriveTarget@NpArticulationJointReducedCoordinate@physx@@UAEXW4Enum@PxArticulationAxis@2@M@Z 10018d00 f   NpArticulationJointReducedCoordinate.obj
 0001:00017e50       ?getDriveTarget@NpArticulationJointReducedCoordinate@physx@@UAEMW4Enum@PxArticulationAxis@2@@Z 10018e50 f   NpArticulationJointReducedCoordinate.obj
 0001:00017e90       ?setDriveVelocity@NpArticulationJointReducedCoordinate@physx@@UAEXW4Enum@PxArticulationAxis@2@M@Z 10018e90 f   NpArticulationJointReducedCoordinate.obj
 0001:00017fe0       ?getDriveVelocity@NpArticulationJointReducedCoordinate@physx@@UAEMW4Enum@PxArticulationAxis@2@@Z 10018fe0 f   NpArticulationJointReducedCoordinate.obj
 0001:00018020       ?isValidMotion@NpArticulationJointReducedCoordinate@physx@@AAE_NW4Enum@PxArticulationAxis@2@W43PxArticulationMotion@2@@Z 10019020 f   NpArticulationJointReducedCoordinate.obj
 0001:00018130       ??0?$NpArticulationJointTemplate@VPxArticulationJointReducedCoordinate@physx@@@physx@@QAE@GAAVNpArticulationLink@1@ABVPxTransform@1@01@Z 10019130 f i NpArticulationJointReducedCoordinate.obj
 0001:000181c0       ??1?$NpArticulationJointTemplate@VPxArticulationJointReducedCoordinate@physx@@@physx@@UAE@XZ 100191c0 f i NpArticulationJointReducedCoordinate.obj
 0001:000181e0       ??1PxArticulationJointReducedCoordinate@physx@@MAE@XZ 100191e0 f i NpArticulationJointReducedCoordinate.obj
 0001:000181f0       ??_G?$NpArticulationJointTemplate@VPxArticulationJointReducedCoordinate@physx@@@physx@@UAEPAXI@Z 100191f0 f i NpArticulationJointReducedCoordinate.obj
 0001:000181f0       ??_E?$NpArticulationJointTemplate@VPxArticulationJointReducedCoordinate@physx@@@physx@@UAEPAXI@Z 100191f0 f i NpArticulationJointReducedCoordinate.obj
 0001:00018240       ??_ENpArticulationJointReducedCoordinate@physx@@UAEPAXI@Z 10019240 f i NpArticulationJointReducedCoordinate.obj
 0001:00018240       ??_GNpArticulationJointReducedCoordinate@physx@@UAEPAXI@Z 10019240 f i NpArticulationJointReducedCoordinate.obj
 0001:00018290       ??_GPxArticulationJointReducedCoordinate@physx@@MAEPAXI@Z 10019290 f i NpArticulationJointReducedCoordinate.obj
 0001:00018290       ??_EPxArticulationJointReducedCoordinate@physx@@MAEPAXI@Z 10019290 f i NpArticulationJointReducedCoordinate.obj
 0001:000182c0       ?getChildArticulationLink@?$NpArticulationJointTemplate@VPxArticulationJointReducedCoordinate@physx@@@physx@@UBEAAVPxArticulationLink@2@XZ 100192c0 f i NpArticulationJointReducedCoordinate.obj
 0001:000182d0       ?getChildPose@?$NpArticulationJointTemplate@VPxArticulationJointReducedCoordinate@physx@@@physx@@UBE?AVPxTransform@2@XZ 100192d0 f i NpArticulationJointReducedCoordinate.obj
 0001:000182f0       ?getConcreteTypeName@PxArticulationJointReducedCoordinate@physx@@UBEPBDXZ 100192f0 f i NpArticulationJointReducedCoordinate.obj
 0001:00018300       ?getImpl@?$NpArticulationJointTemplate@VPxArticulationJointReducedCoordinate@physx@@@physx@@UAEPAVPxArticulationJointImpl@2@XZ 10019300 f i NpArticulationJointReducedCoordinate.obj
 0001:00018310       ?getImpl@?$NpArticulationJointTemplate@VPxArticulationJointReducedCoordinate@physx@@@physx@@UBEPBVPxArticulationJointImpl@2@XZ 10019310 f i NpArticulationJointReducedCoordinate.obj
 0001:00018320       ?getParentArticulationLink@?$NpArticulationJointTemplate@VPxArticulationJointReducedCoordinate@physx@@@physx@@UBEAAVPxArticulationLink@2@XZ 10019320 f i NpArticulationJointReducedCoordinate.obj
 0001:00018330       ?getParentPose@?$NpArticulationJointTemplate@VPxArticulationJointReducedCoordinate@physx@@@physx@@UBE?AVPxTransform@2@XZ 10019330 f i NpArticulationJointReducedCoordinate.obj
 0001:00018350       ?isKindOf@PxArticulationJointReducedCoordinate@physx@@MBE_NPBD@Z 10019350 f i NpArticulationJointReducedCoordinate.obj
 0001:000183d0       ?isSubordinate@NpArticulationJointReducedCoordinate@physx@@UBE_NXZ 100193d0 f i NpArticulationJointReducedCoordinate.obj
 0001:000183e0       ?release@?$NpArticulationJointTemplate@VPxArticulationJointReducedCoordinate@physx@@@physx@@UAEXXZ 100193e0 f i NpArticulationJointReducedCoordinate.obj
 0001:00018430       ?requiresObjects@NpArticulationJointReducedCoordinate@physx@@UAEXAAVPxProcessPxBaseCallback@2@@Z 10019430 f i NpArticulationJointReducedCoordinate.obj
 0001:00018440       ?setChildPose@?$NpArticulationJointTemplate@VPxArticulationJointReducedCoordinate@physx@@@physx@@UAEXABVPxTransform@2@@Z 10019440 f i NpArticulationJointReducedCoordinate.obj
 0001:00018450       ?setDrive@ArticulationJoint@Scb@physx@@QAEXW4Enum@PxArticulationAxis@3@MMMW44PxArticulationDriveType@3@@Z 10019450 f i NpArticulationJointReducedCoordinate.obj
 0001:000186b0       ?setParentPose@?$NpArticulationJointTemplate@VPxArticulationJointReducedCoordinate@physx@@@physx@@UAEXABVPxTransform@2@@Z 100196b0 f i NpArticulationJointReducedCoordinate.obj
 0001:000186c0       ?exportExtraData@NpArticulationLink@physx@@UAEXAAVPxSerializationContext@2@@Z 100196c0 f   NpArticulationLink.obj
 0001:00018720       ?importExtraData@NpArticulationLink@physx@@UAEXAAVPxDeserializationContext@2@@Z 10019720 f   NpArticulationLink.obj
 0001:00018780       ?resolveReferences@NpArticulationLink@physx@@UAEXAAVPxDeserializationContext@2@@Z 10019780 f   NpArticulationLink.obj
 0001:00018870       ?requiresObjects@NpArticulationLink@physx@@UAEXAAVPxProcessPxBaseCallback@2@@Z 10019870 f   NpArticulationLink.obj
 0001:000188d0       ?createObject@NpArticulationLink@physx@@SAPAV12@AAPAEAAVPxDeserializationContext@2@@Z 100198d0 f   NpArticulationLink.obj
 0001:000189c0       ??1NpArticulationLink@physx@@UAE@XZ 100199c0 f   NpArticulationLink.obj
 0001:00018a40       ?release@NpArticulationLink@physx@@UAEXXZ 10019a40 f   NpArticulationLink.obj
 0001:00018af0       ?setGlobalPose@NpArticulationLink@physx@@UAEXABVPxTransform@2@@Z 10019af0 f   NpArticulationLink.obj
 0001:00018b00       ?setGlobalPose@NpArticulationLink@physx@@UAEXABVPxTransform@2@_N@Z 10019b00 f   NpArticulationLink.obj
 0001:00018b40       ?getGlobalPose@NpArticulationLink@physx@@UBE?AVPxTransform@2@XZ 10019b40 f   NpArticulationLink.obj
 0001:00018f10       ?setLinearDamping@NpArticulationLink@physx@@UAEXM@Z 10019f10 f   NpArticulationLink.obj
 0001:00019060       ?getLinearDamping@NpArticulationLink@physx@@UBEMXZ 1001a060 f   NpArticulationLink.obj
 0001:000190d0       ?setAngularDamping@NpArticulationLink@physx@@UAEXM@Z 1001a0d0 f   NpArticulationLink.obj
 0001:00019220       ?getAngularDamping@NpArticulationLink@physx@@UBEMXZ 1001a220 f   NpArticulationLink.obj
 0001:00019290       ?setLinearVelocity@NpArticulationLink@physx@@UAEXABVPxVec3@2@_N@Z 1001a290 f   NpArticulationLink.obj
 0001:00019410       ?setAngularVelocity@NpArticulationLink@physx@@UAEXABVPxVec3@2@_N@Z 1001a410 f   NpArticulationLink.obj
 0001:00019590       ?setMaxAngularVelocity@NpArticulationLink@physx@@UAEXM@Z 1001a590 f   NpArticulationLink.obj
 0001:000196e0       ?getMaxAngularVelocity@NpArticulationLink@physx@@UBEMXZ 1001a6e0 f   NpArticulationLink.obj
 0001:00019750       ?setMaxLinearVelocity@NpArticulationLink@physx@@UAEXM@Z 1001a750 f   NpArticulationLink.obj
 0001:000198a0       ?getMaxLinearVelocity@NpArticulationLink@physx@@UBEMXZ 1001a8a0 f   NpArticulationLink.obj
 0001:00019910       ?getArticulation@NpArticulationLink@physx@@UBEAAVPxArticulationBase@2@XZ 1001a910 f   NpArticulationLink.obj
 0001:00019950       ?getInboundJoint@NpArticulationLink@physx@@UBEPAVPxArticulationJointBase@2@XZ 1001a950 f   NpArticulationLink.obj
 0001:00019990       ?getInboundJointDof@NpArticulationLink@physx@@UBEIXZ 1001a990 f   NpArticulationLink.obj
 0001:000199d0       ?getNbChildren@NpArticulationLink@physx@@UBEIXZ 1001a9d0 f   NpArticulationLink.obj
 0001:00019a10       ?getChildren@NpArticulationLink@physx@@UBEIPAPAVPxArticulationLink@2@II@Z 1001aa10 f   NpArticulationLink.obj
 0001:00019a90       ?getLinkIndex@NpArticulationLink@physx@@UBEIXZ 1001aa90 f   NpArticulationLink.obj
 0001:00019ad0       ?setCMassLocalPose@NpArticulationLink@physx@@UAEXABVPxTransform@2@@Z 1001aad0 f   NpArticulationLink.obj
 0001:0001a440       ?addForce@NpArticulationLink@physx@@UAEXABVPxVec3@2@W4Enum@PxForceMode@2@_N@Z 1001b440 f   NpArticulationLink.obj
 0001:0001a600       ?addTorque@NpArticulationLink@physx@@UAEXABVPxVec3@2@W4Enum@PxForceMode@2@_N@Z 1001b600 f   NpArticulationLink.obj
 0001:0001a7c0       ?setForceAndTorque@NpArticulationLink@physx@@UAEXABVPxVec3@2@0W4Enum@PxForceMode@2@@Z 1001b7c0 f   NpArticulationLink.obj
 0001:0001aa10       ?clearForce@NpArticulationLink@physx@@UAEXW4Enum@PxForceMode@2@@Z 1001ba10 f   NpArticulationLink.obj
 0001:0001aa90       ?clearTorque@NpArticulationLink@physx@@UAEXW4Enum@PxForceMode@2@@Z 1001ba90 f   NpArticulationLink.obj
 0001:0001ab10       ??0NpArticulationLink@physx@@QAE@ABVPxTransform@1@AAVPxArticulationBase@1@PAV01@@Z 1001bb10 f   NpArticulationLink.obj
 0001:0001ad70       ?releaseInternal@NpArticulationLink@physx@@QAEXXZ 1001bd70 f   NpArticulationLink.obj
 0001:0001aea0       ?setGlobalPoseInternal@NpArticulationLink@physx@@QAEXABVPxTransform@2@_N@Z 1001bea0 f   NpArticulationLink.obj
 0001:0001b190       ?setKinematicLink@NpArticulationLink@physx@@QAEX_N@Z 1001c190 f   NpArticulationLink.obj
 0001:0001b1d0       ?visualize@NpArticulationLink@physx@@QAEXAAVRenderOutput@Cm@2@PAVNpScene@2@@Z 1001c1d0 f   NpArticulationLink.obj
 0001:0001b4a0       ?visualizeJoint@NpArticulationLink@physx@@QAEXAAVPxConstraintVisualizer@2@@Z 1001c4a0 f   NpArticulationLink.obj
 0001:0001ce00       ??0?$NpActorTemplate@VPxArticulationLink@physx@@@physx@@QAE@GV?$PxFlags@W4Enum@PxBaseFlag@physx@@G@1@PBDPAX@Z 1001de00 f i NpArticulationLink.obj
 0001:0001ce50       ??0?$NpRigidActorTemplate@VPxArticulationLink@physx@@@physx@@QAE@GV?$PxFlags@W4Enum@PxBaseFlag@physx@@G@1@@Z 1001de50 f i NpArticulationLink.obj
 0001:0001cea0       ??0?$NpRigidBodyTemplate@VPxArticulationLink@physx@@@physx@@QAE@GV?$PxFlags@W4Enum@PxBaseFlag@physx@@G@1@W4Enum@PxActorType@1@ABVPxTransform@1@@Z 1001dea0 f i NpArticulationLink.obj
 0001:0001cfd0       ??0PxMat44@physx@@QAE@W4PxIDENTITY@1@@Z 1001dfd0 f i NpArticulationLink.obj
 0001:0001d050       ??1?$NpActorTemplate@VPxArticulationLink@physx@@@physx@@UAE@XZ 1001e050 f i NpArticulationLink.obj
 0001:0001d080       ??1?$NpRigidActorTemplate@VPxArticulationLink@physx@@@physx@@UAE@XZ 1001e080 f i NpArticulationLink.obj
 0001:0001d0b0       ??1?$NpRigidBodyTemplate@VPxArticulationLink@physx@@@physx@@UAE@XZ 1001e0b0 f i NpArticulationLink.obj
 0001:0001d0f0       ??1PxActor@physx@@MAE@XZ   1001e0f0 f i NpArticulationLink.obj
 0001:0001d100       ??1PxArticulationLink@physx@@MAE@XZ 1001e100 f i NpArticulationLink.obj
 0001:0001d110       ??1PxConstraintVisualizer@physx@@MAE@XZ 1001e110 f i NpArticulationLink.obj
 0001:0001d120       ??1PxRigidActor@physx@@MAE@XZ 1001e120 f i NpArticulationLink.obj
 0001:0001d130       ??1PxRigidBody@physx@@MAE@XZ 1001e130 f i NpArticulationLink.obj
 0001:0001d140       ??_G?$NpActorTemplate@VPxArticulationLink@physx@@@physx@@UAEPAXI@Z 1001e140 f i NpArticulationLink.obj
 0001:0001d140       ??_E?$NpActorTemplate@VPxArticulationLink@physx@@@physx@@UAEPAXI@Z 1001e140 f i NpArticulationLink.obj
 0001:0001d190       ??_E?$NpRigidActorTemplate@VPxArticulationLink@physx@@@physx@@UAEPAXI@Z 1001e190 f i NpArticulationLink.obj
 0001:0001d190       ??_G?$NpRigidActorTemplate@VPxArticulationLink@physx@@@physx@@UAEPAXI@Z 1001e190 f i NpArticulationLink.obj
 0001:0001d1f0       ??_E?$NpRigidBodyTemplate@VPxArticulationLink@physx@@@physx@@UAEPAXI@Z 1001e1f0 f i NpArticulationLink.obj
 0001:0001d1f0       ??_G?$NpRigidBodyTemplate@VPxArticulationLink@physx@@@physx@@UAEPAXI@Z 1001e1f0 f i NpArticulationLink.obj
 0001:0001d260       ??_GConstraintImmediateVisualizer@Cm@physx@@UAEPAXI@Z 1001e260 f i NpArticulationLink.obj
 0001:0001d260       ??_EConstraintImmediateVisualizer@Cm@physx@@UAEPAXI@Z 1001e260 f i NpArticulationLink.obj
 0001:0001d290       ??_ENpArticulationLink@physx@@UAEPAXI@Z 1001e290 f i NpArticulationLink.obj
 0001:0001d290       ??_GNpArticulationLink@physx@@UAEPAXI@Z 1001e290 f i NpArticulationLink.obj
 0001:0001d340       ??_GPxActor@physx@@MAEPAXI@Z 1001e340 f i NpArticulationLink.obj
 0001:0001d340       ??_EPxActor@physx@@MAEPAXI@Z 1001e340 f i NpArticulationLink.obj
 0001:0001d370       ??_EPxArticulationLink@physx@@MAEPAXI@Z 1001e370 f i NpArticulationLink.obj
 0001:0001d370       ??_GPxArticulationLink@physx@@MAEPAXI@Z 1001e370 f i NpArticulationLink.obj
 0001:0001d3a0       ??_GPxConstraintVisualizer@physx@@MAEPAXI@Z 1001e3a0 f i NpArticulationLink.obj
 0001:0001d3a0       ??_EPxConstraintVisualizer@physx@@MAEPAXI@Z 1001e3a0 f i NpArticulationLink.obj
 0001:0001d3d0       ??_EPxRigidActor@physx@@MAEPAXI@Z 1001e3d0 f i NpArticulationLink.obj
 0001:0001d3d0       ??_GPxRigidActor@physx@@MAEPAXI@Z 1001e3d0 f i NpArticulationLink.obj
 0001:0001d400       ??_EPxRigidBody@physx@@MAEPAXI@Z 1001e400 f i NpArticulationLink.obj
 0001:0001d400       ??_GPxRigidBody@physx@@MAEPAXI@Z 1001e400 f i NpArticulationLink.obj
 0001:0001d430       ?addSpatialAcceleration@Body@Scb@physx@@QAEXPBVPxVec3@3@0@Z 1001e430 f i NpArticulationLink.obj
 0001:0001d540       ?addSpatialForce@?$NpRigidBodyTemplate@VPxArticulationLink@physx@@@physx@@IAEXPBVPxVec3@2@0W4Enum@PxForceMode@2@@Z 1001e540 f i NpArticulationLink.obj
 0001:0001d7d0       ?addSpatialVelocity@Body@Scb@physx@@QAEXPBVPxVec3@3@0@Z 1001e7d0 f i NpArticulationLink.obj
 0001:0001d910       ?attachShape@?$NpRigidActorTemplate@VPxArticulationLink@physx@@@physx@@UAE_NAAVPxShape@2@@Z 1001e910 f i NpArticulationLink.obj
 0001:0001da10       ?attachShape@?$NpRigidBodyTemplate@VPxArticulationLink@physx@@@physx@@UAE_NAAVPxShape@2@@Z 1001ea10 f i NpArticulationLink.obj
 0001:0001dc70       ?clearSpatialForce@?$NpRigidBodyTemplate@VPxArticulationLink@physx@@@physx@@IAEXW4Enum@PxForceMode@2@_N1@Z 1001ec70 f i NpArticulationLink.obj
 0001:0001de50       ?copy@?$Array@UPxDebugLine@physx@@VNamedAllocator@shdfnd@2@@shdfnd@physx@@KAXPAUPxDebugLine@3@0PBU43@@Z 1001ee50 f i NpArticulationLink.obj
 0001:0001dec0       ?detachShape@?$NpRigidActorTemplate@VPxArticulationLink@physx@@@physx@@UAEXAAVPxShape@2@_N@Z 1001eec0 f i NpArticulationLink.obj
 0001:0001df60       ?exportExtraData@?$NpActorTemplate@VPxArticulationLink@physx@@@physx@@UAEXAAVPxSerializationContext@2@@Z 1001ef60 f i NpArticulationLink.obj
 0001:0001df70       ?exportExtraData@?$NpRigidActorTemplate@VPxArticulationLink@physx@@@physx@@UAEXAAVPxSerializationContext@2@@Z 1001ef70 f i NpArticulationLink.obj
 0001:0001df90       ?getActorFlags@?$NpActorTemplate@VPxArticulationLink@physx@@@physx@@UBE?AV?$PxFlags@W4Enum@PxActorFlag@physx@@E@2@XZ 1001ef90 f i NpArticulationLink.obj
 0001:0001e000       ?getAggregate@?$NpActorTemplate@VPxArticulationLink@physx@@@physx@@UBEPAVPxAggregate@2@XZ 1001f000 f i NpArticulationLink.obj
 0001:0001e010       ?getAngularVelocity@?$NpRigidBodyTemplate@VPxArticulationLink@physx@@@physx@@UBE?AVPxVec3@2@XZ 1001f010 f i NpArticulationLink.obj
 0001:0001e060       ?getCMassLocalPose@?$NpRigidBodyTemplate@VPxArticulationLink@physx@@@physx@@UBE?AVPxTransform@2@XZ 1001f060 f i NpArticulationLink.obj
 0001:0001e0e0       ?getConcreteTypeName@PxArticulationLink@physx@@UBEPBDXZ 1001f0e0 f i NpArticulationLink.obj
 0001:0001e0f0       ?getConstraints@?$NpRigidActorTemplate@VPxArticulationLink@physx@@@physx@@UBEIPAPAVPxConstraint@2@II@Z 1001f0f0 f i NpArticulationLink.obj
 0001:0001e180       ?getDominanceGroup@?$NpActorTemplate@VPxArticulationLink@physx@@@physx@@UBEEXZ 1001f180 f i NpArticulationLink.obj
 0001:0001e1f0       ?getGlobalInertiaTensorInverse@Body@Scb@physx@@QBE?AVPxMat33@3@XZ 1001f1f0 f i NpArticulationLink.obj
 0001:0001e450       ?getInternalIslandNodeIndex@?$NpRigidBodyTemplate@VPxArticulationLink@physx@@@physx@@UBEIXZ 1001f450 f i NpArticulationLink.obj
 0001:0001e490       ?getInvMass@?$NpRigidBodyTemplate@VPxArticulationLink@physx@@@physx@@UBEMXZ 1001f490 f i NpArticulationLink.obj
 0001:0001e500       ?getLinearVelocity@?$NpRigidBodyTemplate@VPxArticulationLink@physx@@@physx@@UBE?AVPxVec3@2@XZ 1001f500 f i NpArticulationLink.obj
 0001:0001e550       ?getMass@?$NpRigidBodyTemplate@VPxArticulationLink@physx@@@physx@@UBEMXZ 1001f550 f i NpArticulationLink.obj
 0001:0001e5e0       ?getMassSpaceInertiaTensor@?$NpRigidBodyTemplate@VPxArticulationLink@physx@@@physx@@UBE?AVPxVec3@2@XZ 1001f5e0 f i NpArticulationLink.obj
 0001:0001e690       ?getMassSpaceInvInertiaTensor@?$NpRigidBodyTemplate@VPxArticulationLink@physx@@@physx@@UBE?AVPxVec3@2@XZ 1001f690 f i NpArticulationLink.obj
 0001:0001e6f0       ?getMaxContactImpulse@?$NpRigidBodyTemplate@VPxArticulationLink@physx@@@physx@@UBEMXZ 1001f6f0 f i NpArticulationLink.obj
 0001:0001e750       ?getMaxDepenetrationVelocity@?$NpRigidBodyTemplate@VPxArticulationLink@physx@@@physx@@UBEMXZ 1001f750 f i NpArticulationLink.obj
 0001:0001e7c0       ?getMinCCDAdvanceCoefficient@?$NpRigidBodyTemplate@VPxArticulationLink@physx@@@physx@@UBEMXZ 1001f7c0 f i NpArticulationLink.obj
 0001:0001e820       ?getName@?$NpActorTemplate@VPxArticulationLink@physx@@@physx@@UBEPBDXZ 1001f820 f i NpArticulationLink.obj
 0001:0001e860       ?getNbConstraints@?$NpRigidActorTemplate@VPxArticulationLink@physx@@@physx@@UBEIXZ 1001f860 f i NpArticulationLink.obj
 0001:0001e8a0       ?getNbShapes@?$NpRigidActorTemplate@VPxArticulationLink@physx@@@physx@@UBEIXZ 1001f8a0 f i NpArticulationLink.obj
 0001:0001e8e0       ?getOwnerClient@?$NpActorTemplate@VPxArticulationLink@physx@@@physx@@UBEEXZ 1001f8e0 f i NpArticulationLink.obj
 0001:0001e910       ?getRigidBodyFlags@?$NpRigidBodyTemplate@VPxArticulationLink@physx@@@physx@@UBE?AV?$PxFlags@W4Enum@PxRigidBodyFlag@physx@@E@2@XZ 1001f910 f i NpArticulationLink.obj
 0001:0001e960       ?getScene@?$NpActorTemplate@VPxArticulationLink@physx@@@physx@@UBEPAVPxScene@2@XZ 1001f960 f i NpArticulationLink.obj
 0001:0001e970       ?getShapes@?$NpRigidActorTemplate@VPxArticulationLink@physx@@@physx@@UBEIPAPAVPxShape@2@II@Z 1001f970 f i NpArticulationLink.obj
 0001:0001e9c0       ?getType@NpArticulationLink@physx@@UBE?AW4Enum@PxActorType@2@XZ 1001f9c0 f i NpArticulationLink.obj
 0001:0001e9d0       ?getWorldBounds@?$NpRigidActorTemplate@VPxArticulationLink@physx@@@physx@@UBE?AVPxBounds3@2@M@Z 1001f9d0 f i NpArticulationLink.obj
 0001:0001eb20       ?importExtraData@?$NpActorTemplate@VPxArticulationLink@physx@@@physx@@UAEXAAVPxDeserializationContext@2@@Z 1001fb20 f i NpArticulationLink.obj
 0001:0001eb30       ?importExtraData@?$NpRigidActorTemplate@VPxArticulationLink@physx@@@physx@@UAEXAAVPxDeserializationContext@2@@Z 1001fb30 f i NpArticulationLink.obj
 0001:0001eb50       ?invertDiagInertia@physx@@YA?AVPxVec3@1@ABV21@@Z 1001fb50 f i NpArticulationLink.obj
 0001:0001ebc0       ?isKindOf@PxActor@physx@@MBE_NPBD@Z 1001fbc0 f i NpArticulationLink.obj
 0001:0001ec40       ?isKindOf@PxArticulationLink@physx@@MBE_NPBD@Z 1001fc40 f i NpArticulationLink.obj
 0001:0001eca0       ?isKindOf@PxRigidActor@physx@@MBE_NPBD@Z 1001fca0 f i NpArticulationLink.obj
 0001:0001ed50       ?isKindOf@PxRigidBody@physx@@MBE_NPBD@Z 1001fd50 f i NpArticulationLink.obj
 0001:0001ee30       ?isSubordinate@NpArticulationLink@physx@@UBE_NXZ 1001fe30 f i NpArticulationLink.obj
 0001:0001ee40       ?recreate@?$Array@UPxDebugLine@physx@@VNamedAllocator@shdfnd@2@@shdfnd@physx@@IAEXI@Z 1001fe40 f i NpArticulationLink.obj
 0001:0001eeb0       ?release@?$NpActorTemplate@VPxArticulationLink@physx@@@physx@@UAEXXZ 1001feb0 f i NpArticulationLink.obj
 0001:0001eec0       ?release@?$NpRigidActorTemplate@VPxArticulationLink@physx@@@physx@@UAEXXZ 1001fec0 f i NpArticulationLink.obj
 0001:0001ef20       ?requiresObjects@?$NpRigidActorTemplate@VPxArticulationLink@physx@@@physx@@UAEXAAVPxProcessPxBaseCallback@2@@Z 1001ff20 f i NpArticulationLink.obj
 0001:0001ef60       ?resolveReferences@?$NpActorTemplate@VPxArticulationLink@physx@@@physx@@UAEXAAVPxDeserializationContext@2@@Z 1001ff60 f i NpArticulationLink.obj
 0001:0001ef70       ?resolveReferences@?$NpRigidActorTemplate@VPxArticulationLink@physx@@@physx@@UAEXAAVPxDeserializationContext@2@@Z 1001ff70 f i NpArticulationLink.obj
 0001:0001efd0       ?setActorFlag@?$NpActorTemplate@VPxArticulationLink@physx@@@physx@@UAEXW4Enum@PxActorFlag@2@_N@Z 1001ffd0 f i NpArticulationLink.obj
 0001:0001f080       ?setActorFlag@?$NpRigidActorTemplate@VPxArticulationLink@physx@@@physx@@UAEXW4Enum@PxActorFlag@2@_N@Z 10020080 f i NpArticulationLink.obj
 0001:0001f250       ?setActorFlags@?$NpActorTemplate@VPxArticulationLink@physx@@@physx@@UAEXV?$PxFlags@W4Enum@PxActorFlag@physx@@E@2@@Z 10020250 f i NpArticulationLink.obj
 0001:0001f2a0       ?setActorFlags@?$NpRigidActorTemplate@VPxArticulationLink@physx@@@physx@@UAEXV?$PxFlags@W4Enum@PxActorFlag@physx@@E@2@@Z 100202a0 f i NpArticulationLink.obj
 0001:0001f3f0       ?setActorFlags@Actor@Scb@physx@@QAEXV?$PxFlags@W4Enum@PxActorFlag@physx@@E@3@@Z 100203f0 f i NpArticulationLink.obj
 0001:0001f500       ?setBody2World@Body@Scb@physx@@QAEXABVPxTransform@3@_N@Z 10020500 f i NpArticulationLink.obj
 0001:0001f5d0       ?setCMassLocalPoseInternal@?$NpRigidBodyTemplate@VPxArticulationLink@physx@@@physx@@IAEXABVPxTransform@2@@Z 100205d0 f i NpArticulationLink.obj
 0001:0001f960       ?setChildPose@ArticulationJoint@Scb@physx@@QAEXABVPxTransform@3@@Z 10020960 f i NpArticulationLink.obj
 0001:0001fa10       ?setDominanceGroup@?$NpActorTemplate@VPxArticulationLink@physx@@@physx@@UAEXE@Z 10020a10 f i NpArticulationLink.obj
 0001:0001fae0       ?setFlags@Body@Scb@physx@@QAEXV?$PxFlags@W4Enum@PxRigidBodyFlag@physx@@E@3@@Z 10020ae0 f i NpArticulationLink.obj
 0001:0001fc60       ?setGlobalPose@PxArticulationImpl@physx@@QAEXXZ 10020c60 f i NpArticulationLink.obj
 0001:0001fee0       ?setMass@?$NpRigidBodyTemplate@VPxArticulationLink@physx@@@physx@@UAEXM@Z 10020ee0 f i NpArticulationLink.obj
 0001:00020080       ?setMassSpaceInertiaTensor@?$NpRigidBodyTemplate@VPxArticulationLink@physx@@@physx@@UAEXABVPxVec3@2@@Z 10021080 f i NpArticulationLink.obj
 0001:00020300       ?setMaxContactImpulse@?$NpRigidBodyTemplate@VPxArticulationLink@physx@@@physx@@UAEXM@Z 10021300 f i NpArticulationLink.obj
 0001:00020400       ?setMaxDepenetrationVelocity@?$NpRigidBodyTemplate@VPxArticulationLink@physx@@@physx@@UAEXM@Z 10021400 f i NpArticulationLink.obj
 0001:00020500       ?setMinCCDAdvanceCoefficient@?$NpRigidBodyTemplate@VPxArticulationLink@physx@@@physx@@UAEXM@Z 10021500 f i NpArticulationLink.obj
 0001:000205c0       ?setName@?$NpActorTemplate@VPxArticulationLink@physx@@@physx@@UAEXPBD@Z 100215c0 f i NpArticulationLink.obj
 0001:00020630       ?setOwnerClient@?$NpActorTemplate@VPxArticulationLink@physx@@@physx@@UAEXE@Z 10021630 f i NpArticulationLink.obj
 0001:00020710       ?setRigidBodyFlag@?$NpRigidBodyTemplate@VPxArticulationLink@physx@@@physx@@UAEXW4Enum@PxRigidBodyFlag@2@_N@Z 10021710 f i NpArticulationLink.obj
 0001:00020a60       ?setRigidBodyFlags@?$NpRigidBodyTemplate@VPxArticulationLink@physx@@@physx@@UAEXV?$PxFlags@W4Enum@PxRigidBodyFlag@physx@@E@2@@Z 10021a60 f i NpArticulationLink.obj
 0001:00020db0       ?setSpatialAcceleration@Body@Scb@physx@@QAEXPBVPxVec3@3@0@Z 10021db0 f i NpArticulationLink.obj
 0001:00020e90       ?setSpatialForce@?$NpRigidBodyTemplate@VPxArticulationLink@physx@@@physx@@IAEXPBVPxVec3@2@0W4Enum@PxForceMode@2@@Z 10021e90 f i NpArticulationLink.obj
 0001:00021120       ?switchFromNoSim@?$NpRigidActorTemplate@VPxArticulationLink@physx@@@physx@@UAEXXZ 10022120 f i NpArticulationLink.obj
 0001:00021130       ?switchToNoSim@?$NpRigidActorTemplate@VPxArticulationLink@physx@@@physx@@UAEXXZ 10022130 f i NpArticulationLink.obj
 0001:00021140       ?updateShaderComs@?$NpRigidActorTemplate@VPxArticulationLink@physx@@@physx@@QAEXXZ 10022140 f i NpArticulationLink.obj
 0001:000211a0       ?visualize@?$NpRigidActorTemplate@VPxArticulationLink@physx@@@physx@@QAEXAAVRenderOutput@Cm@2@PAVNpScene@2@@Z 100221a0 f i NpArticulationLink.obj
 0001:000211c0       ?visualize@?$NpRigidBodyTemplate@VPxArticulationLink@physx@@@physx@@QAEXAAVRenderOutput@Cm@2@PAVNpScene@2@@Z 100221c0 f i NpArticulationLink.obj
 0001:00021550       ?visualizeAngularLimit@ConstraintImmediateVisualizer@Cm@physx@@UAEXABVPxTransform@3@MM_N@Z 10022550 f i NpArticulationLink.obj
 0001:00021590       ?visualizeDoubleCone@ConstraintImmediateVisualizer@Cm@physx@@UAEXABVPxTransform@3@M_N@Z 10022590 f i NpArticulationLink.obj
 0001:000215c0       ?visualizeJointFrames@ConstraintImmediateVisualizer@Cm@physx@@UAEXABVPxTransform@3@0@Z 100225c0 f i NpArticulationLink.obj
 0001:000215f0       ?visualizeLimitCone@ConstraintImmediateVisualizer@Cm@physx@@UAEXABVPxTransform@3@MM_N@Z 100225f0 f i NpArticulationLink.obj
 0001:00021630       ?visualizeLine@ConstraintImmediateVisualizer@Cm@physx@@UAEXABVPxVec3@3@0I@Z 10022630 f i NpArticulationLink.obj
 0001:00021690       ?visualizeLinearLimit@ConstraintImmediateVisualizer@Cm@physx@@UAEXABVPxTransform@3@0M_N@Z 10022690 f i NpArticulationLink.obj
 0001:000216d0       ??0NpBatchQuery@physx@@QAE@AAVNpScene@1@ABVPxBatchQueryDesc@1@@Z 100226d0 f   NpBatchQuery.obj
 0001:000217d0       ??1NpBatchQuery@physx@@UAE@XZ 100227d0 f   NpBatchQuery.obj
 0001:00021820       ?execute@NpBatchQuery@physx@@UAEXXZ 10022820 f   NpBatchQuery.obj
 0001:00022280       ?release@NpBatchQuery@physx@@UAEXXZ 10023280 f   NpBatchQuery.obj
 0001:000222d0       ?getPreFilterShader@NpBatchQuery@physx@@UBEP6A?AW4Enum@PxQueryHitType@2@UPxFilterData@2@0PBXIAAV?$PxFlags@W4Enum@PxHitFlag@physx@@G@2@@ZXZ 100232d0 f   NpBatchQuery.obj
 0001:000222e0       ?getPostFilterShader@NpBatchQuery@physx@@UBEP6A?AW4Enum@PxQueryHitType@2@UPxFilterData@2@0PBXIABUPxQueryHit@2@@ZXZ 100232e0 f   NpBatchQuery.obj
 0001:000222f0       ?getFilterShaderData@NpBatchQuery@physx@@UBEPBXXZ 100232f0 f   NpBatchQuery.obj
 0001:00022300       ?getFilterShaderDataSize@NpBatchQuery@physx@@UBEIXZ 10023300 f   NpBatchQuery.obj
 0001:00022310       ?setUserMemory@NpBatchQuery@physx@@UAEXABUPxBatchQueryMemory@2@@Z 10023310 f   NpBatchQuery.obj
 0001:00022370       ?getUserMemory@NpBatchQuery@physx@@UAEABUPxBatchQueryMemory@2@XZ 10023370 f   NpBatchQuery.obj
 0001:00022380       ?raycast@NpBatchQuery@physx@@UAEXABVPxVec3@2@0MGV?$PxFlags@W4Enum@PxHitFlag@physx@@G@2@ABUPxQueryFilterData@2@PAXPBUPxQueryCache@2@@Z 10023380 f   NpBatchQuery.obj
 0001:00022630       ?overlap@NpBatchQuery@physx@@UAEXABVPxGeometry@2@ABVPxTransform@2@GABUPxQueryFilterData@2@PAXPBUPxQueryCache@2@@Z 10023630 f   NpBatchQuery.obj
 0001:00022740       ?sweep@NpBatchQuery@physx@@UAEXABVPxGeometry@2@ABVPxTransform@2@ABVPxVec3@2@MGV?$PxFlags@W4Enum@PxHitFlag@physx@@G@2@ABUPxQueryFilterData@2@PAXPBUPxQueryCache@2@M@Z 10023740 f   NpBatchQuery.obj
 0001:00022b70       ?resetResultBuffers@NpBatchQuery@physx@@AAEXXZ 10023b70 f   NpBatchQuery.obj
 0001:00022c50       ?finalizeExecute@NpBatchQuery@physx@@AAEXXZ 10023c50 f   NpBatchQuery.obj
 0001:00022c90       ?writeBatchHeader@NpBatchQuery@physx@@AAEXABUBatchStreamHeader@2@@Z 10023c90 f   NpBatchQuery.obj
 0001:00022d30       ??$writeStatus@U?$PxBatchQueryResult@UPxOverlapHit@physx@@@physx@@UPxOverlapHit@2@@@YAXPAU?$PxBatchQueryResult@UPxOverlapHit@physx@@@physx@@ABU?$PxHitBuffer@UPxOverlapHit@physx@@@1@PAX_N@Z 10023d30 f i NpBatchQuery.obj
 0001:00022d80       ??$writeStatus@U?$PxBatchQueryResult@UPxRaycastHit@physx@@@physx@@UPxRaycastHit@2@@@YAXPAU?$PxBatchQueryResult@UPxRaycastHit@physx@@@physx@@ABU?$PxHitBuffer@UPxRaycastHit@physx@@@1@PAX_N@Z 10023d80 f i NpBatchQuery.obj
 0001:00022e20       ??$writeStatus@U?$PxBatchQueryResult@UPxSweepHit@physx@@@physx@@UPxSweepHit@2@@@YAXPAU?$PxBatchQueryResult@UPxSweepHit@physx@@@physx@@ABU?$PxHitBuffer@UPxSweepHit@physx@@@1@PAX_N@Z 10023e20 f i NpBatchQuery.obj
 0001:00022eb0       ??0BatchStreamHeader@physx@@QAE@V?$PxFlags@W4Enum@PxHitFlag@physx@@G@1@PBUPxQueryCache@1@ABUPxQueryFilterData@1@PAXGW4Enum@QTypeROS@@@Z 10023eb0 f i NpBatchQuery.obj
 0001:00022f10       ??1?$PxHitBuffer@UPxOverlapHit@physx@@@physx@@UAE@XZ 10023f10 f i NpBatchQuery.obj
 0001:00022f20       ??1?$PxHitBuffer@UPxRaycastHit@physx@@@physx@@UAE@XZ 10023f20 f i NpBatchQuery.obj
 0001:00022f30       ??1?$PxHitBuffer@UPxSweepHit@physx@@@physx@@UAE@XZ 10023f30 f i NpBatchQuery.obj
 0001:00022f40       ??1?$PxHitCallback@UPxOverlapHit@physx@@@physx@@UAE@XZ 10023f40 f i NpBatchQuery.obj
 0001:00022f50       ??1?$PxHitCallback@UPxRaycastHit@physx@@@physx@@UAE@XZ 10023f50 f i NpBatchQuery.obj
 0001:00022f60       ??1?$PxHitCallback@UPxSweepHit@physx@@@physx@@UAE@XZ 10023f60 f i NpBatchQuery.obj
 0001:00022f70       ??1PxBatchQuery@physx@@MAE@XZ 10023f70 f i NpBatchQuery.obj
 0001:00022f80       ??_E?$PxHitBuffer@UPxOverlapHit@physx@@@physx@@UAEPAXI@Z 10023f80 f i NpBatchQuery.obj
 0001:00022f80       ??_G?$PxHitBuffer@UPxOverlapHit@physx@@@physx@@UAEPAXI@Z 10023f80 f i NpBatchQuery.obj
 0001:00022fb0       ??_G?$PxHitBuffer@UPxRaycastHit@physx@@@physx@@UAEPAXI@Z 10023fb0 f i NpBatchQuery.obj
 0001:00022fb0       ??_E?$PxHitBuffer@UPxRaycastHit@physx@@@physx@@UAEPAXI@Z 10023fb0 f i NpBatchQuery.obj
 0001:00022fe0       ??_E?$PxHitBuffer@UPxSweepHit@physx@@@physx@@UAEPAXI@Z 10023fe0 f i NpBatchQuery.obj
 0001:00022fe0       ??_G?$PxHitBuffer@UPxSweepHit@physx@@@physx@@UAEPAXI@Z 10023fe0 f i NpBatchQuery.obj
 0001:00023010       ??_E?$PxHitCallback@UPxOverlapHit@physx@@@physx@@UAEPAXI@Z 10024010 f i NpBatchQuery.obj
 0001:00023010       ??_G?$PxHitCallback@UPxOverlapHit@physx@@@physx@@UAEPAXI@Z 10024010 f i NpBatchQuery.obj
 0001:00023040       ??_G?$PxHitCallback@UPxRaycastHit@physx@@@physx@@UAEPAXI@Z 10024040 f i NpBatchQuery.obj
 0001:00023040       ??_E?$PxHitCallback@UPxRaycastHit@physx@@@physx@@UAEPAXI@Z 10024040 f i NpBatchQuery.obj
 0001:00023070       ??_G?$PxHitCallback@UPxSweepHit@physx@@@physx@@UAEPAXI@Z 10024070 f i NpBatchQuery.obj
 0001:00023070       ??_E?$PxHitCallback@UPxSweepHit@physx@@@physx@@UAEPAXI@Z 10024070 f i NpBatchQuery.obj
 0001:000230a0       ??_E?$PxOverflowBuffer@UPxOverlapHit@physx@@@@UAEPAXI@Z 100240a0 f i NpBatchQuery.obj
 0001:000230a0       ??_G?$PxOverflowBuffer@UPxOverlapHit@physx@@@@UAEPAXI@Z 100240a0 f i NpBatchQuery.obj
 0001:000230d0       ??_E?$PxOverflowBuffer@UPxRaycastHit@physx@@@@UAEPAXI@Z 100240d0 f i NpBatchQuery.obj
 0001:000230d0       ??_G?$PxOverflowBuffer@UPxRaycastHit@physx@@@@UAEPAXI@Z 100240d0 f i NpBatchQuery.obj
 0001:00023100       ??_E?$PxOverflowBuffer@UPxSweepHit@physx@@@@UAEPAXI@Z 10024100 f i NpBatchQuery.obj
 0001:00023100       ??_G?$PxOverflowBuffer@UPxSweepHit@physx@@@@UAEPAXI@Z 10024100 f i NpBatchQuery.obj
 0001:00023130       ??_GNpBatchQuery@physx@@UAEPAXI@Z 10024130 f i NpBatchQuery.obj
 0001:00023130       ??_ENpBatchQuery@physx@@UAEPAXI@Z 10024130 f i NpBatchQuery.obj
 0001:000231b0       ??_GPxBatchQuery@physx@@MAEPAXI@Z 100241b0 f i NpBatchQuery.obj
 0001:000231b0       ??_EPxBatchQuery@physx@@MAEPAXI@Z 100241b0 f i NpBatchQuery.obj
 0001:000231e0       ?finalizeQuery@?$PxHitCallback@UPxOverlapHit@physx@@@physx@@UAEXXZ 100241e0 f i NpBatchQuery.obj
 0001:000231f0       ?finalizeQuery@?$PxHitCallback@UPxRaycastHit@physx@@@physx@@UAEXXZ 100241f0 f i NpBatchQuery.obj
 0001:00023200       ?finalizeQuery@?$PxHitCallback@UPxSweepHit@physx@@@physx@@UAEXXZ 10024200 f i NpBatchQuery.obj
 0001:00023210       ?finalizeQuery@?$PxOverflowBuffer@UPxOverlapHit@physx@@@@UAEXXZ 10024210 f i NpBatchQuery.obj
 0001:00023230       ?finalizeQuery@?$PxOverflowBuffer@UPxRaycastHit@physx@@@@UAEXXZ 10024230 f i NpBatchQuery.obj
 0001:00023260       ?finalizeQuery@?$PxOverflowBuffer@UPxSweepHit@physx@@@@UAEXXZ 10024260 f i NpBatchQuery.obj
 0001:00023280       ?getDesc@NpBatchQuery@physx@@UBEABVPxBatchQueryDesc@2@XZ 10024280 f i NpBatchQuery.obj
 0001:00023290       ?processTouches@?$PxHitBuffer@UPxOverlapHit@physx@@@physx@@MAE_NPBUPxOverlapHit@2@I@Z 10024290 f i NpBatchQuery.obj
 0001:000232a0       ?processTouches@?$PxHitBuffer@UPxRaycastHit@physx@@@physx@@MAE_NPBUPxRaycastHit@2@I@Z 100242a0 f i NpBatchQuery.obj
 0001:000232b0       ?processTouches@?$PxHitBuffer@UPxSweepHit@physx@@@physx@@MAE_NPBUPxSweepHit@2@I@Z 100242b0 f i NpBatchQuery.obj
 0001:000232c0       ?processTouches@?$PxOverflowBuffer@UPxOverlapHit@physx@@@@UAE_NPBUPxOverlapHit@physx@@I@Z 100242c0 f i NpBatchQuery.obj
 0001:000232f0       ?processTouches@?$PxOverflowBuffer@UPxRaycastHit@physx@@@@UAE_NPBUPxRaycastHit@physx@@I@Z 100242f0 f i NpBatchQuery.obj
 0001:00023330       ?processTouches@?$PxOverflowBuffer@UPxSweepHit@physx@@@@UAE_NPBUPxSweepHit@physx@@I@Z 10024330 f i NpBatchQuery.obj
 0001:00023370       ?recreate@?$Array@DVNamedAllocator@shdfnd@physx@@@shdfnd@physx@@IAEXI@Z 10024370 f i NpBatchQuery.obj
 0001:000233e0       ?resizeUninitialized@?$Array@DVNamedAllocator@shdfnd@physx@@@shdfnd@physx@@QAEXI@Z 100243e0 f i NpBatchQuery.obj
 0001:00023710       ?NpConstraintGetRigidObjectsFromScb@physx@@YAXABVConstraint@Scb@1@AAPAVRigidObject@31@1@Z 10024710 f   NpConstraint.obj
 0001:00023760       ?setConstraintFunctions@NpConstraint@physx@@UAEXAAVPxConstraintConnector@2@ABUPxConstraintShaderTable@2@@Z 10024760 f   NpConstraint.obj
 0001:00023920       ?createObject@NpConstraint@physx@@SAPAV12@AAPAEAAVPxDeserializationContext@2@@Z 10024920 f   NpConstraint.obj
 0001:000239a0       ?resolveReferences@NpConstraint@physx@@QAEXAAVPxDeserializationContext@2@@Z 100249a0 f   NpConstraint.obj
 0001:000239e0       ??0NpConstraint@physx@@QAE@PAVPxRigidActor@1@0AAVPxConstraintConnector@1@ABUPxConstraintShaderTable@1@I@Z 100249e0 f   NpConstraint.obj
 0001:00023c10       ??1NpConstraint@physx@@UAE@XZ 10024c10 f   NpConstraint.obj
 0001:00023c50       ?release@NpConstraint@physx@@UAEXXZ 10024c50 f   NpConstraint.obj
 0001:00023d30       ?getScene@NpConstraint@physx@@UBEPAVPxScene@2@XZ 10024d30 f   NpConstraint.obj
 0001:00023d60       ?getActors@NpConstraint@physx@@UBEXAAPAVPxRigidActor@2@0@Z 10024d60 f   NpConstraint.obj
 0001:00023dd0       ?setActors@NpConstraint@physx@@UAEXPAVPxRigidActor@2@0@Z 10024dd0 f   NpConstraint.obj
 0001:00024130       ?getFlags@NpConstraint@physx@@UBE?AV?$PxFlags@W4Enum@PxConstraintFlag@physx@@G@2@XZ 10025130 f   NpConstraint.obj
 0001:000241b0       ?setFlags@NpConstraint@physx@@UAEXV?$PxFlags@W4Enum@PxConstraintFlag@physx@@G@2@@Z 100251b0 f   NpConstraint.obj
 0001:000242b0       ?setFlag@NpConstraint@physx@@UAEXW4Enum@PxConstraintFlag@2@_N@Z 100252b0 f   NpConstraint.obj
 0001:00024410       ?getForce@NpConstraint@physx@@UBEXAAVPxVec3@2@0@Z 10025410 f   NpConstraint.obj
 0001:00024490       ?markDirty@NpConstraint@physx@@UAEXXZ 10025490 f   NpConstraint.obj
 0001:000244a0       ?setBreakForce@NpConstraint@physx@@UAEXMM@Z 100254a0 f   NpConstraint.obj
 0001:000245e0       ?getBreakForce@NpConstraint@physx@@UBEXAAM0@Z 100255e0 f   NpConstraint.obj
 0001:000246a0       ?setMinResponseThreshold@NpConstraint@physx@@UAEXM@Z 100256a0 f   NpConstraint.obj
 0001:00024850       ?getMinResponseThreshold@NpConstraint@physx@@UBEMXZ 10025850 f   NpConstraint.obj
 0001:000248f0       ?isValid@NpConstraint@physx@@UBE_NXZ 100258f0 f   NpConstraint.obj
 0001:000249a0       ?getExternalReference@NpConstraint@physx@@UAEPAXAAI@Z 100259a0 f   NpConstraint.obj
 0001:00024a10       ?updateConstants@NpConstraint@physx@@QAEXXZ 10025a10 f   NpConstraint.obj
 0001:00024a70       ?comShift@NpConstraint@physx@@QAEXPAVPxRigidActor@2@@Z 10025a70 f   NpConstraint.obj
 0001:00024aa0       ?actorDeleted@NpConstraint@physx@@QAEXPAVPxRigidActor@2@@Z 10025aa0 f   NpConstraint.obj
 0001:00024ac0       ?getNpScene@NpConstraint@physx@@QBEPAVNpScene@2@XZ 10025ac0 f   NpConstraint.obj
 0001:00024af0       ?getSceneFromActors@NpConstraint@physx@@QBEPAVNpScene@2@XZ 10025af0 f   NpConstraint.obj
 0001:00024b90       ?getScbRigidObject@NpConstraint@physx@@SAPAVRigidObject@Scb@2@PAVPxRigidActor@2@@Z 10025b90 f   NpConstraint.obj
 0001:00024ba0       ??1PxConstraint@physx@@MAE@XZ 10025ba0 f i NpConstraint.obj
 0001:00024bb0       ??_ENpConstraint@physx@@UAEPAXI@Z 10025bb0 f i NpConstraint.obj
 0001:00024bb0       ??_GNpConstraint@physx@@UAEPAXI@Z 10025bb0 f i NpConstraint.obj
 0001:00024c20       ??_GPxConstraint@physx@@MAEPAXI@Z 10025c20 f i NpConstraint.obj
 0001:00024c20       ??_EPxConstraint@physx@@MAEPAXI@Z 10025c20 f i NpConstraint.obj
 0001:00024c50       ?getConcreteTypeName@PxConstraint@physx@@UBEPBDXZ 10025c50 f i NpConstraint.obj
 0001:00024c60       ?isKindOf@PxConstraint@physx@@MBE_NPBD@Z 10025c60 f i NpConstraint.obj
 0001:00024ce0       ?isSubordinate@NpConstraint@physx@@UBE_NXZ 10025ce0 f i NpConstraint.obj
 0001:00024cf0       ?requiresObjects@NpConstraint@physx@@UAEXAAVPxProcessPxBaseCallback@2@@Z 10025cf0 f i NpConstraint.obj
 0001:00024d00       ?setBodies@Constraint@Scb@physx@@QAEXPAVRigidObject@23@0@Z 10025d00 f i NpConstraint.obj
 0001:00024df0       ?setFlags@Constraint@Scb@physx@@QAEXV?$PxFlags@W4Enum@PxConstraintFlag@physx@@G@3@@Z 10025df0 f i NpConstraint.obj
 0001:00024e80       ??0NpFactory@physx@@QAE@XZ 10025e80 f   NpFactory.obj
 0001:00025680       ??1NpFactory@physx@@EAE@XZ 10026680 f   NpFactory.obj
 0001:00025940       ?createInstance@NpFactory@physx@@SAXXZ 10026940 f   NpFactory.obj
 0001:000259b0       ?destroyInstance@NpFactory@physx@@SAXXZ 100269b0 f   NpFactory.obj
 0001:000259d0       ?registerArticulations@NpFactory@physx@@SAXXZ 100269d0 f   NpFactory.obj
 0001:000259f0       ?registerArticulationRCs@NpFactory@physx@@SAXXZ 100269f0 f   NpFactory.obj
 0001:00025a10       ?release@NpFactory@physx@@QAEXXZ 10026a10 f   NpFactory.obj
 0001:00025e90       ?addCollection@NpFactory@physx@@QAEXABVCollection@Cm@2@@Z 10026e90 f   NpFactory.obj
 0001:00026100       ?createRigidDynamic@NpFactory@physx@@QAEPAVPxRigidDynamic@2@ABVPxTransform@2@@Z 10027100 f   NpFactory.obj
 0001:00026280       ?addRigidDynamic@NpFactory@physx@@QAEXPAVPxRigidDynamic@2@_N@Z 10027280 f   NpFactory.obj
 0001:000262e0       ?releaseRigidDynamicToPool@NpFactory@physx@@QAEXAAVNpRigidDynamic@2@@Z 100272e0 f   NpFactory.obj
 0001:00026330       ?createRigidStatic@NpFactory@physx@@QAEPAVPxRigidStatic@2@ABVPxTransform@2@@Z 10027330 f   NpFactory.obj
 0001:000264b0       ?addRigidStatic@NpFactory@physx@@QAEXPAVPxRigidStatic@2@_N@Z 100274b0 f   NpFactory.obj
 0001:00026510       ?releaseRigidStaticToPool@NpFactory@physx@@QAEXAAVNpRigidStatic@2@@Z 10027510 f   NpFactory.obj
 0001:00026560       ?createShape@NpFactory@physx@@QAEPAVNpShape@2@ABVPxGeometry@2@V?$PxFlags@W4Enum@PxShapeFlag@physx@@E@2@PBQAVPxMaterial@2@G_N@Z 10027560 f   NpFactory.obj
 0001:000269e0       ?addShape@NpFactory@physx@@QAEXPAVPxShape@2@_N@Z 100279e0 f   NpFactory.obj
 0001:00026a40       ?releaseShapeToPool@NpFactory@physx@@QAEXAAVNpShape@2@@Z 10027a40 f   NpFactory.obj
 0001:00026a90       ?getNbShapes@NpFactory@physx@@QBEIXZ 10027a90 f   NpFactory.obj
 0001:00026aa0       ?getShapes@NpFactory@physx@@QBEIPAPAVPxShape@2@II@Z 10027aa0 f   NpFactory.obj
 0001:00026af0       ?createConstraint@NpFactory@physx@@QAEPAVPxConstraint@2@PAVPxRigidActor@2@0AAVPxConstraintConnector@2@ABUPxConstraintShaderTable@2@I@Z 10027af0 f   NpFactory.obj
 0001:00026cb0       ?addConstraint@NpFactory@physx@@QAEXPAVPxConstraint@2@_N@Z 10027cb0 f   NpFactory.obj
 0001:00026d10       ?releaseConstraintToPool@NpFactory@physx@@QAEXAAVNpConstraint@2@@Z 10027d10 f   NpFactory.obj
 0001:00026d60       ?createArticulation@NpFactory@physx@@QAEPAVPxArticulation@2@XZ 10027d60 f   NpFactory.obj
 0001:00026de0       ?addArticulation@NpFactory@physx@@QAEXPAVPxArticulationBase@2@_N@Z 10027de0 f   NpFactory.obj
 0001:00026e40       ?releaseArticulationToPool@NpFactory@physx@@QAEXAAVPxArticulationBase@2@@Z 10027e40 f   NpFactory.obj
 0001:00026ec0       ?createArticulationRC@NpFactory@physx@@QAEPAVPxArticulationReducedCoordinate@2@XZ 10027ec0 f   NpFactory.obj
 0001:00026f40       ?createNpArticulation@NpFactory@physx@@QAEPAVNpArticulation@2@XZ 10027f40 f   NpFactory.obj
 0001:00027040       ?createNpArticulationRC@NpFactory@physx@@QAEPAVNpArticulationReducedCoordinate@2@XZ 10028040 f   NpFactory.obj
 0001:00027140       ?createNpArticulationLink@NpFactory@physx@@QAEPAVNpArticulationLink@2@AAVPxArticulationBase@2@PAV32@ABVPxTransform@2@@Z 10028140 f   NpFactory.obj
 0001:00027250       ?releaseArticulationLinkToPool@NpFactory@physx@@QAEXAAVNpArticulationLink@2@@Z 10028250 f   NpFactory.obj
 0001:000272a0       ?createArticulationLink@NpFactory@physx@@QAEPAVPxArticulationLink@2@AAVPxArticulationBase@2@PAVNpArticulationLink@2@ABVPxTransform@2@@Z 100282a0 f   NpFactory.obj
 0001:000272f0       ?createNpArticulationJoint@NpFactory@physx@@QAEPAVNpArticulationJoint@2@AAVNpArticulationLink@2@ABVPxTransform@2@01@Z 100282f0 f   NpFactory.obj
 0001:00027410       ?releaseArticulationJointToPool@NpFactory@physx@@QAEXAAVNpArticulationJoint@2@@Z 10028410 f   NpFactory.obj
 0001:00027460       ?createNpArticulationJointRC@NpFactory@physx@@QAEPAVNpArticulationJointReducedCoordinate@2@AAVNpArticulationLink@2@ABVPxTransform@2@01@Z 10028460 f   NpFactory.obj
 0001:00027580       ?releaseArticulationJointRCToPool@NpFactory@physx@@QAEXAAVNpArticulationJointReducedCoordinate@2@@Z 10028580 f   NpFactory.obj
 0001:000275d0       ?createAggregate@NpFactory@physx@@QAEPAVPxAggregate@2@I_N@Z 100285d0 f   NpFactory.obj
 0001:00027710       ?addAggregate@NpFactory@physx@@QAEXPAVPxAggregate@2@_N@Z 10028710 f   NpFactory.obj
 0001:00027770       ?releaseAggregateToPool@NpFactory@physx@@QAEXAAVNpAggregate@2@@Z 10028770 f   NpFactory.obj
 0001:000277c0       ?createMaterial@NpFactory@physx@@QAEPAVPxMaterial@2@MMM@Z 100287c0 f   NpFactory.obj
 0001:00027940       ?releaseMaterialToPool@NpFactory@physx@@QAEXAAVNpMaterial@2@@Z 10028940 f   NpFactory.obj
 0001:00027990       ?onActorRelease@NpFactory@physx@@QAEXPAVPxActor@2@@Z 10028990 f   NpFactory.obj
 0001:00027a70       ?onConstraintRelease@NpFactory@physx@@QAEXPAVPxConstraint@2@@Z 10028a70 f   NpFactory.obj
 0001:00027b50       ?onAggregateRelease@NpFactory@physx@@QAEXPAVPxAggregate@2@@Z 10028b50 f   NpFactory.obj
 0001:00027c30       ?onArticulationRelease@NpFactory@physx@@QAEXPAVPxArticulationBase@2@@Z 10028c30 f   NpFactory.obj
 0001:00027d10       ?onShapeRelease@NpFactory@physx@@QAEXPAVPxShape@2@@Z 10028d10 f   NpFactory.obj
 0001:00027d40       ?acquireConnectorArray@NpFactory@physx@@QAEPAVNpConnectorArray@2@XZ 10028d40 f   NpFactory.obj
 0001:00027d70       ?releaseConnectorArray@NpFactory@physx@@QAEXPAVNpConnectorArray@2@@Z 10028d70 f   NpFactory.obj
 0001:00027de0       ?setNpFactoryListener@NpFactory@physx@@QAEXAAVNpFactoryListener@2@@Z 10028de0 f   NpFactory.obj
 0001:00027e00       ?NpDestroy@physx@@YAXAAVBase@Scb@1@@Z 10028e00 f   NpFactory.obj
 0001:00028900       ??$sort@PAXU?$Less@PAX@shdfnd@physx@@VNamedAllocator@23@@shdfnd@physx@@YAXPAPAXIABU?$Less@PAX@01@ABVNamedAllocator@01@I@Z 10029900 f i NpFactory.obj
 0001:00028c20       ??0?$InlineArray@PAX$0EA@VNamedAllocator@shdfnd@physx@@@shdfnd@physx@@QAE@ABVNamedAllocator@12@@Z 10029c20 f i NpFactory.obj
 0001:00028ce0       ??0?$MutexT@V?$ReflectionAllocator@VMutexImpl@shdfnd@physx@@@shdfnd@physx@@@shdfnd@physx@@QAE@ABV?$ReflectionAllocator@VMutexImpl@shdfnd@physx@@@12@@Z 10029ce0 f i NpFactory.obj
 0001:00028d60       ??1?$PoolBase@V?$PtrBlock@$03@NpPtrTableStorageManager@physx@@VNamedAllocator@shdfnd@3@@shdfnd@physx@@QAE@XZ 10029d60 f i NpFactory.obj
 0001:00028f10       ??1?$PoolBase@V?$PtrBlock@$0BA@@NpPtrTableStorageManager@physx@@VNamedAllocator@shdfnd@3@@shdfnd@physx@@QAE@XZ 10029f10 f i NpFactory.obj
 0001:000290c0       ??1?$PoolBase@V?$PtrBlock@$0EA@@NpPtrTableStorageManager@physx@@VNamedAllocator@shdfnd@3@@shdfnd@physx@@QAE@XZ 1002a0c0 f i NpFactory.obj
 0001:00029270       ??1?$PoolBase@VNpAggregate@physx@@VNamedAllocator@shdfnd@2@@shdfnd@physx@@QAE@XZ 1002a270 f i NpFactory.obj
 0001:00029430       ??1?$PoolBase@VNpArticulation@physx@@VNamedAllocator@shdfnd@2@@shdfnd@physx@@QAE@XZ 1002a430 f i NpFactory.obj
 0001:000295f0       ??1?$PoolBase@VNpArticulationJoint@physx@@VNamedAllocator@shdfnd@2@@shdfnd@physx@@QAE@XZ 1002a5f0 f i NpFactory.obj
 0001:000297c0       ??1?$PoolBase@VNpArticulationJointReducedCoordinate@physx@@VNamedAllocator@shdfnd@2@@shdfnd@physx@@QAE@XZ 1002a7c0 f i NpFactory.obj
 0001:00029990       ??1?$PoolBase@VNpArticulationLink@physx@@VNamedAllocator@shdfnd@2@@shdfnd@physx@@QAE@XZ 1002a990 f i NpFactory.obj
 0001:00029b60       ??1?$PoolBase@VNpArticulationReducedCoordinate@physx@@VNamedAllocator@shdfnd@2@@shdfnd@physx@@QAE@XZ 1002ab60 f i NpFactory.obj
 0001:00029d30       ??1?$PoolBase@VNpConnectorArray@physx@@VNamedAllocator@shdfnd@2@@shdfnd@physx@@QAE@XZ 1002ad30 f i NpFactory.obj
 0001:00029dd0       ??1?$PoolBase@VNpConstraint@physx@@VNamedAllocator@shdfnd@2@@shdfnd@physx@@QAE@XZ 1002add0 f i NpFactory.obj
 0001:00029f90       ??1?$PoolBase@VNpMaterial@physx@@VNamedAllocator@shdfnd@2@@shdfnd@physx@@QAE@XZ 1002af90 f i NpFactory.obj
 0001:0002a150       ??1?$PoolBase@VNpRigidDynamic@physx@@VNamedAllocator@shdfnd@2@@shdfnd@physx@@QAE@XZ 1002b150 f i NpFactory.obj
 0001:0002a320       ??1?$PoolBase@VNpRigidStatic@physx@@VNamedAllocator@shdfnd@2@@shdfnd@physx@@QAE@XZ 1002b320 f i NpFactory.obj
 0001:0002a4e0       ??1?$PoolBase@VNpShape@physx@@VNamedAllocator@shdfnd@2@@shdfnd@physx@@QAE@XZ 1002b4e0 f i NpFactory.obj
 0001:0002a6b0       ??1PtrTableStorageManager@Cm@physx@@MAE@XZ 1002b6b0 f i NpFactory.obj
 0001:0002a6c0       ??_GNpFactory@physx@@EAEPAXI@Z 1002b6c0 f i NpFactory.obj
 0001:0002a6c0       ??_ENpFactory@physx@@EAEPAXI@Z 1002b6c0 f i NpFactory.obj
 0001:0002a700       ??_GNpPtrTableStorageManager@physx@@UAEPAXI@Z 1002b700 f i NpFactory.obj
 0001:0002a700       ??_ENpPtrTableStorageManager@physx@@UAEPAXI@Z 1002b700 f i NpFactory.obj
 0001:0002a780       ??_EPtrTableStorageManager@Cm@physx@@MAEPAXI@Z 1002b780 f i NpFactory.obj
 0001:0002a780       ??_GPtrTableStorageManager@Cm@physx@@MAEPAXI@Z 1002b780 f i NpFactory.obj
 0001:0002a7b0       ?allocate@?$Array@PAVPxActor@physx@@V?$ReflectionAllocator@PAVPxActor@physx@@@shdfnd@2@@shdfnd@physx@@IAEPAPAVPxActor@3@I@Z 1002b7b0 f i NpFactory.obj
 0001:0002a840       ?allocate@?$Array@PAVPxAggregate@physx@@V?$ReflectionAllocator@PAVPxAggregate@physx@@@shdfnd@2@@shdfnd@physx@@IAEPAPAVPxAggregate@3@I@Z 1002b840 f i NpFactory.obj
 0001:0002a8d0       ?allocate@?$Array@PAVPxArticulationBase@physx@@V?$ReflectionAllocator@PAVPxArticulationBase@physx@@@shdfnd@2@@shdfnd@physx@@IAEPAPAVPxArticulationBase@3@I@Z 1002b8d0 f i NpFactory.obj
 0001:0002a960       ?allocate@?$Array@PAVPxConstraint@physx@@V?$ReflectionAllocator@PAVPxConstraint@physx@@@shdfnd@2@@shdfnd@physx@@IAEPAPAVPxConstraint@3@I@Z 1002b960 f i NpFactory.obj
 0001:0002a9f0       ?allocate@?$Array@PAXV?$InlineAllocator@$0BAA@VNamedAllocator@shdfnd@physx@@@shdfnd@physx@@@shdfnd@physx@@IAEPAPAXI@Z 1002b9f0 f i NpFactory.obj
 0001:0002aa50       ?allocate@NpPtrTableStorageManager@physx@@UAEPAPAXI@Z 1002ba50 f i NpFactory.obj
 0001:0002ad40       ?canReuse@NpPtrTableStorageManager@physx@@UAE_NII@Z 1002bd40 f i NpFactory.obj
 0001:0002ada0       ?construct@?$PoolBase@VNpConnectorArray@physx@@VNamedAllocator@shdfnd@2@@shdfnd@physx@@QAEPAVNpConnectorArray@3@XZ 1002bda0 f i NpFactory.obj
 0001:0002af20       ?create@?$HashBase@PAVPxActor@physx@@PAV12@U?$Hash@PAVPxActor@physx@@@shdfnd@2@UGetKey@?$HashSetBase@PAVPxActor@physx@@U?$Hash@PAVPxActor@physx@@@shdfnd@2@VNonTrackingAllocator@42@$0A@@internal@42@VNonTrackingAllocator@42@$0A@@internal@shdfnd@physx@@QAEPAPAVPxActor@4@ABQAV54@AA_N@Z 1002bf20 f i NpFactory.obj
 0001:0002b050       ?create@?$HashBase@PAVPxAggregate@physx@@PAV12@U?$Hash@PAVPxAggregate@physx@@@shdfnd@2@UGetKey@?$HashSetBase@PAVPxAggregate@physx@@U?$Hash@PAVPxAggregate@physx@@@shdfnd@2@VNonTrackingAllocator@42@$0A@@internal@42@VNonTrackingAllocator@42@$0A@@internal@shdfnd@physx@@QAEPAPAVPxAggregate@4@ABQAV54@AA_N@Z 1002c050 f i NpFactory.obj
 0001:0002b180       ?create@?$HashBase@PAVPxArticulationBase@physx@@PAV12@U?$Hash@PAVPxArticulationBase@physx@@@shdfnd@2@UGetKey@?$HashSetBase@PAVPxArticulationBase@physx@@U?$Hash@PAVPxArticulationBase@physx@@@shdfnd@2@VNonTrackingAllocator@42@$0A@@internal@42@VNonTrackingAllocator@42@$0A@@internal@shdfnd@physx@@QAEPAPAVPxArticulationBase@4@ABQAV54@AA_N@Z 1002c180 f i NpFactory.obj
 0001:0002b2b0       ?create@?$HashBase@PAVPxConstraint@physx@@PAV12@U?$Hash@PAVPxConstraint@physx@@@shdfnd@2@UGetKey@?$HashSetBase@PAVPxConstraint@physx@@U?$Hash@PAVPxConstraint@physx@@@shdfnd@2@VNonTrackingAllocator@42@$0A@@internal@42@VNonTrackingAllocator@42@$0A@@internal@shdfnd@physx@@QAEPAPAVPxConstraint@4@ABQAV54@AA_N@Z 1002c2b0 f i NpFactory.obj
 0001:0002b3e0       ?create@?$HashBase@PAVPxShape@physx@@PAV12@U?$Hash@PAVPxShape@physx@@@shdfnd@2@UGetKey@?$HashSetBase@PAVPxShape@physx@@U?$Hash@PAVPxShape@physx@@@shdfnd@2@VNonTrackingAllocator@42@$00@internal@42@VNonTrackingAllocator@42@$00@internal@shdfnd@physx@@QAEPAPAVPxShape@4@ABQAV54@AA_N@Z 1002c3e0 f i NpFactory.obj
 0001:0002b510       ?deallocate@NpPtrTableStorageManager@physx@@UAEXPAPAXI@Z 1002c510 f i NpFactory.obj
 0001:0002b5c0       ?disposeElements@?$PoolBase@VNpConnectorArray@physx@@VNamedAllocator@shdfnd@2@@shdfnd@physx@@IAEXXZ 1002c5c0 f i NpFactory.obj
 0001:0002b740       ?erase@?$HashBase@PAVPxShape@physx@@PAV12@U?$Hash@PAVPxShape@physx@@@shdfnd@2@UGetKey@?$HashSetBase@PAVPxShape@physx@@U?$Hash@PAVPxShape@physx@@@shdfnd@2@VNonTrackingAllocator@42@$00@internal@42@VNonTrackingAllocator@42@$00@internal@shdfnd@physx@@QAE_NABQAVPxShape@4@@Z 1002c740 f i NpFactory.obj
 0001:0002b840       ?growAndPushBack@?$Array@PAVPxActor@physx@@V?$ReflectionAllocator@PAVPxActor@physx@@@shdfnd@2@@shdfnd@physx@@IAEAAPAVPxActor@3@ABQAV43@@Z 1002c840 f i NpFactory.obj
 0001:0002b8c0       ?growAndPushBack@?$Array@PAVPxAggregate@physx@@V?$ReflectionAllocator@PAVPxAggregate@physx@@@shdfnd@2@@shdfnd@physx@@IAEAAPAVPxAggregate@3@ABQAV43@@Z 1002c8c0 f i NpFactory.obj
 0001:0002b940       ?growAndPushBack@?$Array@PAVPxArticulationBase@physx@@V?$ReflectionAllocator@PAVPxArticulationBase@physx@@@shdfnd@2@@shdfnd@physx@@IAEAAPAVPxArticulationBase@3@ABQAV43@@Z 1002c940 f i NpFactory.obj
 0001:0002b9c0       ?growAndPushBack@?$Array@PAVPxConstraint@physx@@V?$ReflectionAllocator@PAVPxConstraint@physx@@@shdfnd@2@@shdfnd@physx@@IAEAAPAVPxConstraint@3@ABQAV43@@Z 1002c9c0 f i NpFactory.obj
 0001:0002ba40       ?growAndPushBack@?$Array@PAXV?$InlineAllocator@$0BAA@VNamedAllocator@shdfnd@physx@@@shdfnd@physx@@@shdfnd@physx@@IAEAAPAXABQAX@Z 1002ca40 f i NpFactory.obj
 0001:0002baf0       ?growAndPushBack@?$Array@PAXVNamedAllocator@shdfnd@physx@@@shdfnd@physx@@IAEAAPAXABQAX@Z 1002caf0 f i NpFactory.obj
 0001:0002bba0       ?isValid@PxBoxGeometry@physx@@QBE_NXZ 1002cba0 f i NpFactory.obj
 0001:0002bc30       ?isValid@PxCapsuleGeometry@physx@@QBE_NXZ 1002cc30 f i NpFactory.obj
 0001:0002bc90       ?isValid@PxConvexMeshGeometry@physx@@QBE_NXZ 1002cc90 f i NpFactory.obj
 0001:0002bdb0       ?isValid@PxHeightFieldGeometry@physx@@QBE_NXZ 1002cdb0 f i NpFactory.obj
 0001:0002be50       ?isValid@PxSphereGeometry@physx@@QBE_NXZ 1002ce50 f i NpFactory.obj
 0001:0002be90       ?isValid@PxTriangleMeshGeometry@physx@@QBE_NXZ 1002ce90 f i NpFactory.obj
 0001:0002bfc0       ?recreate@?$Array@GV?$InlineAllocator@$07VNamedAllocator@shdfnd@physx@@@shdfnd@physx@@@shdfnd@physx@@IAEXI@Z 1002cfc0 f i NpFactory.obj
 0001:0002c070       ?recreate@?$Array@PAVPxActor@physx@@V?$ReflectionAllocator@PAVPxActor@physx@@@shdfnd@2@@shdfnd@physx@@IAEXI@Z 1002d070 f i NpFactory.obj
 0001:0002c0d0       ?recreate@?$Array@PAVPxAggregate@physx@@V?$ReflectionAllocator@PAVPxAggregate@physx@@@shdfnd@2@@shdfnd@physx@@IAEXI@Z 1002d0d0 f i NpFactory.obj
 0001:0002c130       ?recreate@?$Array@PAVPxArticulationBase@physx@@V?$ReflectionAllocator@PAVPxArticulationBase@physx@@@shdfnd@2@@shdfnd@physx@@IAEXI@Z 1002d130 f i NpFactory.obj
 0001:0002c190       ?recreate@?$Array@PAVPxConstraint@physx@@V?$ReflectionAllocator@PAVPxConstraint@physx@@@shdfnd@2@@shdfnd@physx@@IAEXI@Z 1002d190 f i NpFactory.obj
 0001:0002c1f0       ?reserveInternal@?$HashBase@PAVPxActor@physx@@PAV12@U?$Hash@PAVPxActor@physx@@@shdfnd@2@UGetKey@?$HashSetBase@PAVPxActor@physx@@U?$Hash@PAVPxActor@physx@@@shdfnd@2@VNonTrackingAllocator@42@$0A@@internal@42@VNonTrackingAllocator@42@$0A@@internal@shdfnd@physx@@AAEXI@Z 1002d1f0 f i NpFactory.obj
 0001:0002c580       ?reserveInternal@?$HashBase@PAVPxAggregate@physx@@PAV12@U?$Hash@PAVPxAggregate@physx@@@shdfnd@2@UGetKey@?$HashSetBase@PAVPxAggregate@physx@@U?$Hash@PAVPxAggregate@physx@@@shdfnd@2@VNonTrackingAllocator@42@$0A@@internal@42@VNonTrackingAllocator@42@$0A@@internal@shdfnd@physx@@AAEXI@Z 1002d580 f i NpFactory.obj
 0001:0002c910       ?reserveInternal@?$HashBase@PAVPxArticulationBase@physx@@PAV12@U?$Hash@PAVPxArticulationBase@physx@@@shdfnd@2@UGetKey@?$HashSetBase@PAVPxArticulationBase@physx@@U?$Hash@PAVPxArticulationBase@physx@@@shdfnd@2@VNonTrackingAllocator@42@$0A@@internal@42@VNonTrackingAllocator@42@$0A@@internal@shdfnd@physx@@AAEXI@Z 1002d910 f i NpFactory.obj
 0001:0002cca0       ?reserveInternal@?$HashBase@PAVPxConstraint@physx@@PAV12@U?$Hash@PAVPxConstraint@physx@@@shdfnd@2@UGetKey@?$HashSetBase@PAVPxConstraint@physx@@U?$Hash@PAVPxConstraint@physx@@@shdfnd@2@VNonTrackingAllocator@42@$0A@@internal@42@VNonTrackingAllocator@42@$0A@@internal@shdfnd@physx@@AAEXI@Z 1002dca0 f i NpFactory.obj
 0001:0002d030       ?reserveInternal@?$HashBase@PAVPxShape@physx@@PAV12@U?$Hash@PAVPxShape@physx@@@shdfnd@2@UGetKey@?$HashSetBase@PAVPxShape@physx@@U?$Hash@PAVPxShape@physx@@@shdfnd@2@VNonTrackingAllocator@42@$00@internal@42@VNonTrackingAllocator@42@$00@internal@shdfnd@physx@@AAEXI@Z 1002e030 f i NpFactory.obj
 0001:0002d1c0       ?resize@?$Array@GV?$InlineAllocator@$07VNamedAllocator@shdfnd@physx@@@shdfnd@physx@@@shdfnd@physx@@QAEXIABG@Z 1002e1c0 f i NpFactory.obj
 0001:0002d280       ?onRefCountZero@NpMaterial@physx@@UAEXXZ 1002e280 f   NpMaterial.obj
 0001:0002d2d0       ?resolveReferences@NpMaterial@physx@@UAEXAAVPxDeserializationContext@2@@Z 1002e2d0 f   NpMaterial.obj
 0001:0002d2f0       ?createObject@NpMaterial@physx@@SAPAV12@AAPAEAAVPxDeserializationContext@2@@Z 1002e2f0 f   NpMaterial.obj
 0001:0002d350       ??0NpMaterial@physx@@QAE@ABVMaterialCore@Sc@1@@Z 1002e350 f   NpMaterial.obj
 0001:0002d3e0       ??1NpMaterial@physx@@UAE@XZ 1002e3e0 f   NpMaterial.obj
 0001:0002d410       ?release@NpMaterial@physx@@UAEXXZ 1002e410 f   NpMaterial.obj
 0001:0002d430       ?acquireReference@NpMaterial@physx@@UAEXXZ 1002e430 f   NpMaterial.obj
 0001:0002d440       ?getReferenceCount@NpMaterial@physx@@UBEIXZ 1002e440 f   NpMaterial.obj
 0001:0002d450       ?setDynamicFriction@NpMaterial@physx@@UAEXM@Z 1002e450 f   NpMaterial.obj
 0001:0002d4d0       ?getDynamicFriction@NpMaterial@physx@@UBEMXZ 1002e4d0 f   NpMaterial.obj
 0001:0002d4e0       ?setStaticFriction@NpMaterial@physx@@UAEXM@Z 1002e4e0 f   NpMaterial.obj
 0001:0002d560       ?getStaticFriction@NpMaterial@physx@@UBEMXZ 1002e560 f   NpMaterial.obj
 0001:0002d570       ?setRestitution@NpMaterial@physx@@UAEXM@Z 1002e570 f   NpMaterial.obj
 0001:0002d680       ?getRestitution@NpMaterial@physx@@UBEMXZ 1002e680 f   NpMaterial.obj
 0001:0002d690       ?setFlag@NpMaterial@physx@@UAEXW4Enum@PxMaterialFlag@2@_N@Z 1002e690 f   NpMaterial.obj
 0001:0002d6d0       ?setFlags@NpMaterial@physx@@UAEXV?$PxFlags@W4Enum@PxMaterialFlag@physx@@G@2@@Z 1002e6d0 f   NpMaterial.obj
 0001:0002d6f0       ?getFlags@NpMaterial@physx@@UBE?AV?$PxFlags@W4Enum@PxMaterialFlag@physx@@G@2@XZ 1002e6f0 f   NpMaterial.obj
 0001:0002d700       ?setFrictionCombineMode@NpMaterial@physx@@UAEXW4Enum@PxCombineMode@2@@Z 1002e700 f   NpMaterial.obj
 0001:0002d730       ?getFrictionCombineMode@NpMaterial@physx@@UBE?AW4Enum@PxCombineMode@2@XZ 1002e730 f   NpMaterial.obj
 0001:0002d740       ?setRestitutionCombineMode@NpMaterial@physx@@UAEXW4Enum@PxCombineMode@2@@Z 1002e740 f   NpMaterial.obj
 0001:0002d760       ?getRestitutionCombineMode@NpMaterial@physx@@UBE?AW4Enum@PxCombineMode@2@XZ 1002e760 f   NpMaterial.obj
 0001:0002d770       ??1PxMaterial@physx@@MAE@XZ 1002e770 f i NpMaterial.obj
 0001:0002d780       ??1RefCountable@Cm@physx@@UAE@XZ 1002e780 f i NpMaterial.obj
 0001:0002d787       ??_ENpMaterial@physx@@WM@AEPAXI@Z 1002e787 f i NpMaterial.obj
 0001:0002d790       ??_ENpMaterial@physx@@UAEPAXI@Z 1002e790 f i NpMaterial.obj
 0001:0002d790       ??_GNpMaterial@physx@@UAEPAXI@Z 1002e790 f i NpMaterial.obj
 0001:0002d7f0       ??_GPxMaterial@physx@@MAEPAXI@Z 1002e7f0 f i NpMaterial.obj
 0001:0002d7f0       ??_EPxMaterial@physx@@MAEPAXI@Z 1002e7f0 f i NpMaterial.obj
 0001:0002d820       ??_ERefCountable@Cm@physx@@UAEPAXI@Z 1002e820 f i NpMaterial.obj
 0001:0002d820       ??_GRefCountable@Cm@physx@@UAEPAXI@Z 1002e820 f i NpMaterial.obj
 0001:0002d850       ?getConcreteTypeName@PxMaterial@physx@@UBEPBDXZ 1002e850 f i NpMaterial.obj
 0001:0002d860       ?isKindOf@PxMaterial@physx@@MBE_NPBD@Z 1002e860 f i NpMaterial.obj
 0001:0002d8e0       ?onRefCountZero@RefCountable@Cm@physx@@UAEXXZ 1002e8e0 f i NpMaterial.obj
 0001:0002d8f0       ?requiresObjects@NpMaterial@physx@@UAEXAAVPxProcessPxBaseCallback@2@@Z 1002e8f0 f i NpMaterial.obj
 0001:0002d910       _PxGetPhysicsBinaryMetaData 1002e910 f   NpMetaData.obj
 0001:0002ea50       ?getBinaryMetaData_PxBase@physx@@YAXAAVPxOutputStream@1@@Z 1002fa50 f   NpMetaData.obj
 0001:0002ebe0       ?getBinaryMetaData@RefCountable@Cm@physx@@SAXAAVPxOutputStream@3@@Z 1002fbe0 f   NpMetaData.obj
 0001:0002ec90       ?getBinaryMetaData@NpMaterial@physx@@SAXAAVPxOutputStream@2@@Z 1002fc90 f   NpMetaData.obj
 0001:0002ee20       ?getBinaryMetaData@NpShape@physx@@SAXAAVPxOutputStream@2@@Z 1002fe20 f   NpMetaData.obj
 0001:0002f130       ?getBinaryMetaData@NpShapeManager@physx@@SAXAAVPxOutputStream@2@@Z 10030130 f   NpMetaData.obj
 0001:0002f2c0       ?getBinaryMetaData@NpConstraint@physx@@SAXAAVPxOutputStream@2@@Z 100302c0 f   NpMetaData.obj
 0001:0002f4f0       ?getBinaryMetaData@NpConnector@physx@@SAXAAVPxOutputStream@2@@Z 100304f0 f   NpMetaData.obj
 0001:0002f640       ?getBinaryMetaData@NpConnectorArray@physx@@SAXAAVPxOutputStream@2@@Z 10030640 f   NpMetaData.obj
 0001:0002f8c0       ?getBinaryMetaData@NpActor@physx@@SAXAAVPxOutputStream@2@@Z 100308c0 f   NpMetaData.obj
 0001:0002f9c0       ?getBinaryMetaData@NpRigidStatic@physx@@SAXAAVPxOutputStream@2@@Z 100309c0 f   NpMetaData.obj
 0001:0002fc90       ?getBinaryMetaData@NpRigidDynamic@physx@@SAXAAVPxOutputStream@2@@Z 10030c90 f   NpMetaData.obj
 0001:0002ff60       ?getBinaryMetaData@NpArticulationLinkArray@physx@@SAXAAVPxOutputStream@2@@Z 10030f60 f   NpMetaData.obj
 0001:000301e0       ?getBinaryMetaData@NpArticulationLink@physx@@SAXAAVPxOutputStream@2@@Z 100311e0 f   NpMetaData.obj
 0001:00030670       ?getBinaryMetaData@NpAggregate@physx@@SAXAAVPxOutputStream@2@@Z 10031670 f   NpMetaData.obj
 0001:00030850       ?getBinaryMetaData@PxArticulationImpl@physx@@SAXAAVPxOutputStream@2@@Z 10031850 f   NpMetaData.obj
 0001:00030a80       ?getBinaryMetaData@PxArticulationJointImpl@physx@@SAXAAVPxOutputStream@2@@Z 10031a80 f   NpMetaData.obj
 0001:00030bd0       ?getBinaryMetaData@NpArticulationJoint@physx@@SAXAAVPxOutputStream@2@@Z 10031bd0 f   NpMetaData.obj
 0001:00030cd0       ?getBinaryMetaData@NpArticulation@physx@@SAXAAVPxOutputStream@2@@Z 10031cd0 f   NpMetaData.obj
 0001:00030e20       ?getBinaryMetaData@NpArticulationJointReducedCoordinate@physx@@SAXAAVPxOutputStream@2@@Z 10031e20 f   NpMetaData.obj
 0001:00030f20       ?getBinaryMetaData@NpArticulationReducedCoordinate@physx@@SAXAAVPxOutputStream@2@@Z 10031f20 f   NpMetaData.obj
 0001:000323f0       _PxRegisterArticulations   100333f0 f   NpPhysics.obj
 0001:00032400       _PxRegisterArticulationsReducedCoordinate 10033400 f   NpPhysics.obj
 0001:00032410       _PxRegisterHeightFields    10033410 f   NpPhysics.obj
 0001:00032450       _PxCreateBasePhysics       10033450 f   NpPhysics.obj
 0001:00032460       _PxGetPhysics              10033460 f   NpPhysics.obj
 0001:00032470       ??0NpPhysics@physx@@AAE@ABVPxTolerancesScale@1@ABUPxvOffsetTable@1@_NPAVPsPvd@pvdsdk@1@@Z 10033470 f   NpPhysics.obj
 0001:000326a0       ??1NpPhysics@physx@@EAE@XZ 100336a0 f   NpPhysics.obj
 0001:00032950       ?createInstance@NpPhysics@physx@@SAPAV12@IAAVPxFoundation@2@ABVPxTolerancesScale@2@_NPAVPsPvd@pvdsdk@2@@Z 10033950 f   NpPhysics.obj
 0001:00032b50       ?releaseInstance@NpPhysics@physx@@SAIXZ 10033b50 f   NpPhysics.obj
 0001:00032bb0       ?release@NpPhysics@physx@@UAEXXZ 10033bb0 f   NpPhysics.obj
 0001:00032c10       ?createScene@NpPhysics@physx@@UAEPAVPxScene@2@ABVPxSceneDesc@2@@Z 10033c10 f   NpPhysics.obj
 0001:00032e30       ?releaseSceneInternal@NpPhysics@physx@@QAEXAAVPxScene@2@@Z 10033e30 f   NpPhysics.obj
 0001:00032e90       ?getNbScenes@NpPhysics@physx@@UBEIXZ 10033e90 f   NpPhysics.obj
 0001:00032eb0       ?getScenes@NpPhysics@physx@@UBEIPAPAVPxScene@2@II@Z 10033eb0 f   NpPhysics.obj
 0001:00032f10       ?createRigidStatic@NpPhysics@physx@@UAEPAVPxRigidStatic@2@ABVPxTransform@2@@Z 10033f10 f   NpPhysics.obj
 0001:00033010       ?createRigidDynamic@NpPhysics@physx@@UAEPAVPxRigidDynamic@2@ABVPxTransform@2@@Z 10034010 f   NpPhysics.obj
 0001:00033110       ?createArticulation@NpPhysics@physx@@UAEPAVPxArticulation@2@XZ 10034110 f   NpPhysics.obj
 0001:00033120       ?createArticulationReducedCoordinate@NpPhysics@physx@@UAEPAVPxArticulationReducedCoordinate@2@XZ 10034120 f   NpPhysics.obj
 0001:00033130       ?createConstraint@NpPhysics@physx@@UAEPAVPxConstraint@2@PAVPxRigidActor@2@0AAVPxConstraintConnector@2@ABUPxConstraintShaderTable@2@I@Z 10034130 f   NpPhysics.obj
 0001:00033140       ?createAggregate@NpPhysics@physx@@UAEPAVPxAggregate@2@I_N@Z 10034140 f   NpPhysics.obj
 0001:00033150       ?createShape@NpPhysics@physx@@UAEPAVPxShape@2@ABVPxGeometry@2@PBQAVPxMaterial@2@G_NV?$PxFlags@W4Enum@PxShapeFlag@physx@@E@2@@Z 10034150 f   NpPhysics.obj
 0001:00033210       ?getNbShapes@NpPhysics@physx@@UBEIXZ 10034210 f   NpPhysics.obj
 0001:00033220       ?getShapes@NpPhysics@physx@@UBEIPAPAVPxShape@2@II@Z 10034220 f   NpPhysics.obj
 0001:00033230       ?createMaterial@NpPhysics@physx@@UAEPAVPxMaterial@2@MMM@Z 10034230 f   NpPhysics.obj
 0001:00033270       ?getNbMaterials@NpPhysics@physx@@UBEIXZ 10034270 f   NpPhysics.obj
 0001:00033290       ?getMaterials@NpPhysics@physx@@UBEIPAPAVPxMaterial@2@II@Z 10034290 f   NpPhysics.obj
 0001:00033300       ?createTriangleMesh@NpPhysics@physx@@UAEPAVPxTriangleMesh@2@AAVPxInputStream@2@@Z 10034300 f   NpPhysics.obj
 0001:00033310       ?getNbTriangleMeshes@NpPhysics@physx@@UBEIXZ 10034310 f   NpPhysics.obj
 0001:00033320       ?getTriangleMeshes@NpPhysics@physx@@UBEIPAPAVPxTriangleMesh@2@II@Z 10034320 f   NpPhysics.obj
 0001:00033330       ?createHeightField@NpPhysics@physx@@UAEPAVPxHeightField@2@AAVPxInputStream@2@@Z 10034330 f   NpPhysics.obj
 0001:00033340       ?getNbHeightFields@NpPhysics@physx@@UBEIXZ 10034340 f   NpPhysics.obj
 0001:00033350       ?getHeightFields@NpPhysics@physx@@UBEIPAPAVPxHeightField@2@II@Z 10034350 f   NpPhysics.obj
 0001:00033360       ?createConvexMesh@NpPhysics@physx@@UAEPAVPxConvexMesh@2@AAVPxInputStream@2@@Z 10034360 f   NpPhysics.obj
 0001:00033370       ?getNbConvexMeshes@NpPhysics@physx@@UBEIXZ 10034370 f   NpPhysics.obj
 0001:00033380       ?getConvexMeshes@NpPhysics@physx@@UBEIPAPAVPxConvexMesh@2@II@Z 10034380 f   NpPhysics.obj
 0001:00033390       ?createBVHStructure@NpPhysics@physx@@UAEPAVPxBVHStructure@2@AAVPxInputStream@2@@Z 10034390 f   NpPhysics.obj
 0001:000333a0       ?getNbBVHStructures@NpPhysics@physx@@UBEIXZ 100343a0 f   NpPhysics.obj
 0001:000333b0       ?getBVHStructures@NpPhysics@physx@@UBEIPAPAVPxBVHStructure@2@II@Z 100343b0 f   NpPhysics.obj
 0001:000333c0       ?registerPhysXIndicatorGpuClient@NpPhysics@physx@@QAEXXZ 100343c0 f   NpPhysics.obj
 0001:000333f0       ?unregisterPhysXIndicatorGpuClient@NpPhysics@physx@@QAEXXZ 100343f0 f   NpPhysics.obj
 0001:00033420       ?createPruningStructure@NpPhysics@physx@@UAEPAVPxPruningStructure@2@PBQAVPxRigidActor@2@I@Z 10034420 f   NpPhysics.obj
 0001:000334d0       ?getTolerancesScale@NpPhysics@physx@@UBEABVPxTolerancesScale@2@XZ 100344d0 f   NpPhysics.obj
 0001:000334e0       ?getFoundation@NpPhysics@physx@@UAEAAVPxFoundation@2@XZ 100344e0 f   NpPhysics.obj
 0001:000334f0       ?registerDeletionListener@NpPhysics@physx@@UAEXAAVPxDeletionListener@2@ABV?$PxFlags@W4Enum@PxDeletionEventFlag@physx@@E@2@_N@Z 100344f0 f   NpPhysics.obj
 0001:00033630       ?unregisterDeletionListener@NpPhysics@physx@@UAEXAAVPxDeletionListener@2@@Z 10034630 f   NpPhysics.obj
 0001:000336b0       ?registerDeletionListenerObjects@NpPhysics@physx@@UAEXAAVPxDeletionListener@2@PBQBVPxBase@2@I@Z 100346b0 f   NpPhysics.obj
 0001:00033770       ?unregisterDeletionListenerObjects@NpPhysics@physx@@UAEXAAVPxDeletionListener@2@PBQBVPxBase@2@I@Z 10034770 f   NpPhysics.obj
 0001:000338b0       ?notifyDeletionListeners@NpPhysics@physx@@QAEXPBVPxBase@2@PAXW4Enum@PxDeletionEventFlag@2@@Z 100348b0 f   NpPhysics.obj
 0001:000339b0       ?removeMaterialFromTable@NpPhysics@physx@@QAEXAAVNpMaterial@2@@Z 100349b0 f   NpPhysics.obj
 0001:00033a60       ?updateMaterial@NpPhysics@physx@@QAEXAAVNpMaterial@2@@Z 10034a60 f   NpPhysics.obj
 0001:00033ab0       ?sendMaterialTable@NpPhysics@physx@@QAE_NAAVNpScene@2@@Z 10034ab0 f   NpPhysics.obj
 0001:00033b00       ?addMaterial@NpPhysics@physx@@QAEPAVNpMaterial@2@PAV32@@Z 10034b00 f   NpPhysics.obj
 0001:00033c70       ?initOffsetTables@NpPhysics@physx@@SAXAAUPxvOffsetTable@2@@Z 10034c70 f   NpPhysics.obj
 0001:00033cf0       _PxAddCollectionToPhysics  10034cf0 f   NpPhysics.obj
 0001:00033d00       ??1GuMeshFactoryListener@physx@@MAE@XZ 10034d00 f i NpPhysics.obj
 0001:00033d10       ??1PxPhysics@physx@@UAE@XZ 10034d10 f i NpPhysics.obj
 0001:00033d20       ??1PxPhysicsInsertionCallback@physx@@MAE@XZ 10034d20 f i NpPhysics.obj
 0001:00033d30       ??_GGuMeshFactoryListener@physx@@MAEPAXI@Z 10034d30 f i NpPhysics.obj
 0001:00033d30       ??_EGuMeshFactoryListener@physx@@MAEPAXI@Z 10034d30 f i NpPhysics.obj
 0001:00033d60       ??_GMeshDeletionListener@NpPhysics@physx@@UAEPAXI@Z 10034d60 f i NpPhysics.obj
 0001:00033d60       ??_EMeshDeletionListener@NpPhysics@physx@@UAEPAXI@Z 10034d60 f i NpPhysics.obj
 0001:00033d90       ??_ENpPhysics@physx@@EAEPAXI@Z 10034d90 f i NpPhysics.obj
 0001:00033d90       ??_GNpPhysics@physx@@EAEPAXI@Z 10034d90 f i NpPhysics.obj
 0001:00033dd0       ??_GNpPhysicsInsertionCallback@physx@@UAEPAXI@Z 10034dd0 f i NpPhysics.obj
 0001:00033dd0       ??_ENpPhysicsInsertionCallback@physx@@UAEPAXI@Z 10034dd0 f i NpPhysics.obj
 0001:00033e00       ??_EPxPhysics@physx@@UAEPAXI@Z 10034e00 f i NpPhysics.obj
 0001:00033e00       ??_GPxPhysics@physx@@UAEPAXI@Z 10034e00 f i NpPhysics.obj
 0001:00033e30       ??_GPxPhysicsInsertionCallback@physx@@MAEPAXI@Z 10034e30 f i NpPhysics.obj
 0001:00033e30       ??_EPxPhysicsInsertionCallback@physx@@MAEPAXI@Z 10034e30 f i NpPhysics.obj
 0001:00033e60       ?buildObjectFromData@NpPhysicsInsertionCallback@physx@@UAEPAVPxBase@2@W4Enum@PxConcreteType@2@PAX@Z 10034e60 f i NpPhysics.obj
 0001:00033ef0       ?create@?$HashBase@PBVPxBase@physx@@PBV12@U?$Hash@PBVPxBase@physx@@@shdfnd@2@UGetKey@?$HashSetBase@PBVPxBase@physx@@U?$Hash@PBVPxBase@physx@@@shdfnd@2@VNonTrackingAllocator@42@$0A@@internal@42@VNonTrackingAllocator@42@$0A@@internal@shdfnd@physx@@QAEPAPBVPxBase@4@ABQBV54@AA_N@Z 10034ef0 f i NpPhysics.obj
 0001:00034020       ?create@?$HashBase@V?$Pair@QAVPxDeletionListener@physx@@PAUNpDelListenerEntry@NpPhysics@2@@shdfnd@physx@@PAVPxDeletionListener@3@U?$Hash@PAVPxDeletionListener@physx@@@23@UGetKey@?$HashMapBase@PAVPxDeletionListener@physx@@PAUNpDelListenerEntry@NpPhysics@2@U?$Hash@PAVPxDeletionListener@physx@@@shdfnd@2@VNonTrackingAllocator@62@@internal@23@VNonTrackingAllocator@23@$00@internal@shdfnd@physx@@QAEPAV?$Pair@QAVPxDeletionListener@physx@@PAUNpDelListenerEntry@NpPhysics@2@@34@ABQAVPxDeletionListener@4@AA_N@Z 10035020 f i NpPhysics.obj
 0001:00034130       ?erase@?$HashBase@V?$Pair@QAVPxDeletionListener@physx@@PAUNpDelListenerEntry@NpPhysics@2@@shdfnd@physx@@PAVPxDeletionListener@3@U?$Hash@PAVPxDeletionListener@physx@@@23@UGetKey@?$HashMapBase@PAVPxDeletionListener@physx@@PAUNpDelListenerEntry@NpPhysics@2@U?$Hash@PAVPxDeletionListener@physx@@@shdfnd@2@VNonTrackingAllocator@62@@internal@23@VNonTrackingAllocator@23@$00@internal@shdfnd@physx@@QAE_NABQAVPxDeletionListener@4@@Z 10035130 f i NpPhysics.obj
 0001:00034230       ?find@?$HashMapBase@PAVPxDeletionListener@physx@@PAUNpDelListenerEntry@NpPhysics@2@U?$Hash@PAVPxDeletionListener@physx@@@shdfnd@2@VNonTrackingAllocator@62@@internal@shdfnd@physx@@QBEPBV?$Pair@QAVPxDeletionListener@physx@@PAUNpDelListenerEntry@NpPhysics@2@@34@ABQAVPxDeletionListener@4@@Z 10035230 f i NpPhysics.obj
 0001:000342b0       ?getPhysicsInsertionCallback@NpPhysics@physx@@UAEAAVPxPhysicsInsertionCallback@2@XZ 100352b0 f i NpPhysics.obj
 0001:000342c0       ?growAndPushBack@?$Array@IVNamedAllocator@shdfnd@physx@@@shdfnd@physx@@IAEAAIABI@Z 100352c0 f i NpPhysics.obj
 0001:00034370       ?growAndPushBack@?$Array@PAVNpScene@physx@@VNamedAllocator@shdfnd@2@@shdfnd@physx@@IAEAAPAVNpScene@3@ABQAV43@@Z 10035370 f i NpPhysics.obj
 0001:00034420       ?isValid@PxSceneDesc@physx@@QBE_NXZ 10035420 f i NpPhysics.obj
 0001:00034680       ?onGuMeshFactoryBufferRelease@MeshDeletionListener@NpPhysics@physx@@UAEXPBVPxBase@3@G@Z 10035680 f i NpPhysics.obj
 0001:000346a0       ?reserveInternal@?$HashBase@PBVPxBase@physx@@PBV12@U?$Hash@PBVPxBase@physx@@@shdfnd@2@UGetKey@?$HashSetBase@PBVPxBase@physx@@U?$Hash@PBVPxBase@physx@@@shdfnd@2@VNonTrackingAllocator@42@$0A@@internal@42@VNonTrackingAllocator@42@$0A@@internal@shdfnd@physx@@AAEXI@Z 100356a0 f i NpPhysics.obj
 0001:00034a30       ?reserveInternal@?$HashBase@V?$Pair@QAVPxDeletionListener@physx@@PAUNpDelListenerEntry@NpPhysics@2@@shdfnd@physx@@PAVPxDeletionListener@3@U?$Hash@PAVPxDeletionListener@physx@@@23@UGetKey@?$HashMapBase@PAVPxDeletionListener@physx@@PAUNpDelListenerEntry@NpPhysics@2@U?$Hash@PAVPxDeletionListener@physx@@@shdfnd@2@VNonTrackingAllocator@62@@internal@23@VNonTrackingAllocator@23@$00@internal@shdfnd@physx@@AAEXI@Z 10035a30 f i NpPhysics.obj
 0001:00034bc0       ??0PvdSceneQueryCollector@Vd@physx@@QAE@AAVScene@Scb@2@_N@Z 10035bc0 f   NpPvdSceneQueryCollector.obj
 0001:00034e60       ?release@PvdSceneQueryCollector@Vd@physx@@QAEXXZ 10035e60 f   NpPvdSceneQueryCollector.obj
 0001:00034ef0       ?raycast@PvdSceneQueryCollector@Vd@physx@@QAEXABVPxVec3@3@0MPBUPxRaycastHit@3@IABUPxQueryFilterData@3@_N@Z 10035ef0 f   NpPvdSceneQueryCollector.obj
 0001:00035160       ?sweep@PvdSceneQueryCollector@Vd@physx@@QAEXABVPxGeometry@3@ABVPxTransform@3@ABVPxVec3@3@MPBUPxSweepHit@3@IABUPxQueryFilterData@3@_N@Z 10036160 f   NpPvdSceneQueryCollector.obj
 0001:00035590       ?overlapMultiple@PvdSceneQueryCollector@Vd@physx@@QAEXABVPxGeometry@3@ABVPxTransform@3@PBUPxOverlapHit@3@IABUPxQueryFilterData@3@@Z 10036590 f   NpPvdSceneQueryCollector.obj
 0001:00035940       ?collectAllBatchedHits@PvdSceneQueryCollector@Vd@physx@@QAEXPBU?$PxBatchQueryResult@UPxRaycastHit@physx@@@3@IIPBU?$PxBatchQueryResult@UPxOverlapHit@physx@@@3@IIPBU?$PxBatchQueryResult@UPxSweepHit@physx@@@3@II@Z 10036940 f   NpPvdSceneQueryCollector.obj
 0001:00035ea0       ??$put@VPxConvexMeshGeometry@physx@@@PxGeometryHolder@physx@@AAEXABVPxGeometry@1@@Z 10036ea0 f i NpPvdSceneQueryCollector.obj
 0001:00035f00       ??$put@VPxHeightFieldGeometry@physx@@@PxGeometryHolder@physx@@AAEXABVPxGeometry@1@@Z 10036f00 f i NpPvdSceneQueryCollector.obj
 0001:00035f40       ??$put@VPxTriangleMeshGeometry@physx@@@PxGeometryHolder@physx@@AAEXABVPxGeometry@1@@Z 10036f40 f i NpPvdSceneQueryCollector.obj
 0001:00035fa0       ??0PvdOverlap@Vd@physx@@QAE@ABU012@@Z 10036fa0 f i NpPvdSceneQueryCollector.obj
 0001:00036020       ??0PvdRaycast@Vd@physx@@QAE@ABU012@@Z 10037020 f i NpPvdSceneQueryCollector.obj
 0001:00036090       ??0PvdSweep@Vd@physx@@QAE@ABU012@@Z 10037090 f i NpPvdSceneQueryCollector.obj
 0001:00036100       ?growAndPushBack@?$Array@UPvdOverlap@Vd@physx@@VNamedAllocator@shdfnd@3@@shdfnd@physx@@IAEAAUPvdOverlap@Vd@3@ABU453@@Z 10037100 f i NpPvdSceneQueryCollector.obj
 0001:00036250       ?growAndPushBack@?$Array@UPvdRaycast@Vd@physx@@VNamedAllocator@shdfnd@3@@shdfnd@physx@@IAEAAUPvdRaycast@Vd@3@ABU453@@Z 10037250 f i NpPvdSceneQueryCollector.obj
 0001:00036380       ?growAndPushBack@?$Array@UPvdSqHit@Vd@physx@@VNamedAllocator@shdfnd@3@@shdfnd@physx@@IAEAAUPvdSqHit@Vd@3@ABU453@@Z 10037380 f i NpPvdSceneQueryCollector.obj
 0001:000364f0       ?growAndPushBack@?$Array@UPvdSweep@Vd@physx@@VNamedAllocator@shdfnd@3@@shdfnd@physx@@IAEAAUPvdSweep@Vd@3@ABU453@@Z 100374f0 f i NpPvdSceneQueryCollector.obj
 0001:00036640       ?growAndPushBack@?$Array@UPxFilterData@physx@@VNamedAllocator@shdfnd@2@@shdfnd@physx@@IAEAAUPxFilterData@3@ABU43@@Z 10037640 f i NpPvdSceneQueryCollector.obj
 0001:00036720       ?growAndPushBack@?$Array@VPxGeometryHolder@physx@@VNamedAllocator@shdfnd@2@@shdfnd@physx@@IAEAAVPxGeometryHolder@3@ABV43@@Z 10037720 f i NpPvdSceneQueryCollector.obj
 0001:00036800       ?growAndPushBack@?$Array@VPxTransform@physx@@VNamedAllocator@shdfnd@2@@shdfnd@physx@@IAEAAVPxTransform@3@ABV43@@Z 10037800 f i NpPvdSceneQueryCollector.obj
 0001:00036960       ??0NpReadCheck@physx@@QAE@PBVNpScene@1@PBD@Z 10037960 f   NpReadCheck.obj
 0001:00036a00       ??1NpReadCheck@physx@@QAE@XZ 10037a00 f   NpReadCheck.obj
 0001:00036a70       ?NpRigidDynamicGetShapes@physx@@YAIAAVBody@Scb@1@AAPBQAXPA_N@Z 10037a70 f   NpRigidDynamic.obj
 0001:00036ab0       ?preExportDataReset@NpRigidDynamic@physx@@QAEXXZ 10037ab0 f   NpRigidDynamic.obj
 0001:00036b30       ?requiresObjects@NpRigidDynamic@physx@@UAEXAAVPxProcessPxBaseCallback@2@@Z 10037b30 f   NpRigidDynamic.obj
 0001:00036b70       ?createObject@NpRigidDynamic@physx@@SAPAV12@AAPAEAAVPxDeserializationContext@2@@Z 10037b70 f   NpRigidDynamic.obj
 0001:00036c40       ??1NpRigidDynamic@physx@@UAE@XZ 10037c40 f   NpRigidDynamic.obj
 0001:00036c80       ?release@NpRigidDynamic@physx@@UAEXXZ 10037c80 f   NpRigidDynamic.obj
 0001:00036d50       ?setGlobalPose@NpRigidDynamic@physx@@UAEXABVPxTransform@2@_N@Z 10037d50 f   NpRigidDynamic.obj
 0001:00037160       ?setKinematicTarget@NpRigidDynamic@physx@@UAEXABVPxTransform@2@@Z 10038160 f   NpRigidDynamic.obj
 0001:00037590       ?getKinematicTarget@NpRigidDynamic@physx@@UBE_NAAVPxTransform@2@@Z 10038590 f   NpRigidDynamic.obj
 0001:00037980       ?setCMassLocalPose@NpRigidDynamic@physx@@UAEXABVPxTransform@2@@Z 10038980 f   NpRigidDynamic.obj
 0001:00038280       ?setLinearDamping@NpRigidDynamic@physx@@UAEXM@Z 10039280 f   NpRigidDynamic.obj
 0001:000383d0       ?getLinearDamping@NpRigidDynamic@physx@@UBEMXZ 100393d0 f   NpRigidDynamic.obj
 0001:00038440       ?setAngularDamping@NpRigidDynamic@physx@@UAEXM@Z 10039440 f   NpRigidDynamic.obj
 0001:00038590       ?getAngularDamping@NpRigidDynamic@physx@@UBEMXZ 10039590 f   NpRigidDynamic.obj
 0001:00038600       ?setLinearVelocity@NpRigidDynamic@physx@@UAEXABVPxVec3@2@_N@Z 10039600 f   NpRigidDynamic.obj
 0001:00038840       ?setAngularVelocity@NpRigidDynamic@physx@@UAEXABVPxVec3@2@_N@Z 10039840 f   NpRigidDynamic.obj
 0001:00038a80       ?setMaxAngularVelocity@NpRigidDynamic@physx@@UAEXM@Z 10039a80 f   NpRigidDynamic.obj
 0001:00038bd0       ?getMaxAngularVelocity@NpRigidDynamic@physx@@UBEMXZ 10039bd0 f   NpRigidDynamic.obj
 0001:00038c40       ?setMaxLinearVelocity@NpRigidDynamic@physx@@UAEXM@Z 10039c40 f   NpRigidDynamic.obj
 0001:00038d90       ?getMaxLinearVelocity@NpRigidDynamic@physx@@UBEMXZ 10039d90 f   NpRigidDynamic.obj
 0001:00038e00       ?addForce@NpRigidDynamic@physx@@UAEXABVPxVec3@2@W4Enum@PxForceMode@2@_N@Z 10039e00 f   NpRigidDynamic.obj
 0001:00039060       ?clearForce@NpRigidDynamic@physx@@UAEXW4Enum@PxForceMode@2@@Z 1003a060 f   NpRigidDynamic.obj
 0001:000391b0       ?addTorque@NpRigidDynamic@physx@@UAEXABVPxVec3@2@W4Enum@PxForceMode@2@_N@Z 1003a1b0 f   NpRigidDynamic.obj
 0001:00039410       ?clearTorque@NpRigidDynamic@physx@@UAEXW4Enum@PxForceMode@2@@Z 1003a410 f   NpRigidDynamic.obj
 0001:00039560       ?setForceAndTorque@NpRigidDynamic@physx@@UAEXABVPxVec3@2@0W4Enum@PxForceMode@2@@Z 1003a560 f   NpRigidDynamic.obj
 0001:00039820       ?isSleeping@NpRigidDynamic@physx@@UBE_NXZ 1003a820 f   NpRigidDynamic.obj
 0001:000398b0       ?getSleepThreshold@NpRigidDynamic@physx@@UBEMXZ 1003a8b0 f   NpRigidDynamic.obj
 0001:00039910       ?setSleepThreshold@NpRigidDynamic@physx@@UAEXM@Z 1003a910 f   NpRigidDynamic.obj
 0001:00039a60       ?getStabilizationThreshold@NpRigidDynamic@physx@@UBEMXZ 1003aa60 f   NpRigidDynamic.obj
 0001:00039ac0       ?setStabilizationThreshold@NpRigidDynamic@physx@@UAEXM@Z 1003aac0 f   NpRigidDynamic.obj
 0001:00039c10       ?setWakeCounter@NpRigidDynamic@physx@@UAEXM@Z 1003ac10 f   NpRigidDynamic.obj
 0001:00039e10       ?getWakeCounter@NpRigidDynamic@physx@@UBEMXZ 1003ae10 f   NpRigidDynamic.obj
 0001:00039e50       ?wakeUp@NpRigidDynamic@physx@@UAEXXZ 1003ae50 f   NpRigidDynamic.obj
 0001:00039f90       ?putToSleep@NpRigidDynamic@physx@@UAEXXZ 1003af90 f   NpRigidDynamic.obj
 0001:0003a0c0       ?setSolverIterationCounts@NpRigidDynamic@physx@@UAEXII@Z 1003b0c0 f   NpRigidDynamic.obj
 0001:0003a200       ?getSolverIterationCounts@NpRigidDynamic@physx@@UBEXAAI0@Z 1003b200 f   NpRigidDynamic.obj
 0001:0003a270       ?setContactReportThreshold@NpRigidDynamic@physx@@UAEXM@Z 1003b270 f   NpRigidDynamic.obj
 0001:0003a3c0       ?getContactReportThreshold@NpRigidDynamic@physx@@UBEMXZ 1003b3c0 f   NpRigidDynamic.obj
 0001:0003a420       ?getRigidDynamicLockFlags@NpRigidDynamic@physx@@UBE?AV?$PxFlags@W4Enum@PxRigidDynamicLockFlag@physx@@E@2@XZ 1003b420 f   NpRigidDynamic.obj
 0001:0003a450       ?setRigidDynamicLockFlags@NpRigidDynamic@physx@@UAEXV?$PxFlags@W4Enum@PxRigidDynamicLockFlag@physx@@E@2@@Z 1003b450 f   NpRigidDynamic.obj
 0001:0003a470       ?setRigidDynamicLockFlag@NpRigidDynamic@physx@@UAEXW4Enum@PxRigidDynamicLockFlag@2@_N@Z 1003b470 f   NpRigidDynamic.obj
 0001:0003a4d0       ??0NpRigidDynamic@physx@@QAE@ABVPxTransform@1@@Z 1003b4d0 f   NpRigidDynamic.obj
 0001:0003a600       ?switchToNoSim@NpRigidDynamic@physx@@UAEXXZ 1003b600 f   NpRigidDynamic.obj
 0001:0003a710       ?switchFromNoSim@NpRigidDynamic@physx@@UAEXXZ 1003b710 f   NpRigidDynamic.obj
 0001:0003a730       ?wakeUpInternalNoKinematicTest@NpRigidDynamic@physx@@QAEXAAVBody@Scb@2@_N1@Z 1003b730 f   NpRigidDynamic.obj
 0001:0003a7a0       ?visualize@NpRigidDynamic@physx@@QAEXAAVRenderOutput@Cm@2@PAVNpScene@2@@Z 1003b7a0 f   NpRigidDynamic.obj
 0001:0003aa10       ??0?$NpActorTemplate@VPxRigidDynamic@physx@@@physx@@QAE@GV?$PxFlags@W4Enum@PxBaseFlag@physx@@G@1@PBDPAX@Z 1003ba10 f i NpRigidDynamic.obj
 0001:0003aa60       ??0?$NpRigidActorTemplate@VPxRigidDynamic@physx@@@physx@@QAE@GV?$PxFlags@W4Enum@PxBaseFlag@physx@@G@1@@Z 1003ba60 f i NpRigidDynamic.obj
 0001:0003aab0       ??0?$NpRigidBodyTemplate@VPxRigidDynamic@physx@@@physx@@QAE@GV?$PxFlags@W4Enum@PxBaseFlag@physx@@G@1@W4Enum@PxActorType@1@ABVPxTransform@1@@Z 1003bab0 f i NpRigidDynamic.obj
 0001:0003abe0       ??1?$NpActorTemplate@VPxRigidDynamic@physx@@@physx@@UAE@XZ 1003bbe0 f i NpRigidDynamic.obj
 0001:0003ac10       ??1?$NpRigidActorTemplate@VPxRigidDynamic@physx@@@physx@@UAE@XZ 1003bc10 f i NpRigidDynamic.obj
 0001:0003ac40       ??1?$NpRigidBodyTemplate@VPxRigidDynamic@physx@@@physx@@UAE@XZ 1003bc40 f i NpRigidDynamic.obj
 0001:0003ac80       ??1PxRigidDynamic@physx@@MAE@XZ 1003bc80 f i NpRigidDynamic.obj
 0001:0003ac90       ??_G?$NpActorTemplate@VPxRigidDynamic@physx@@@physx@@UAEPAXI@Z 1003bc90 f i NpRigidDynamic.obj
 0001:0003ac90       ??_E?$NpActorTemplate@VPxRigidDynamic@physx@@@physx@@UAEPAXI@Z 1003bc90 f i NpRigidDynamic.obj
 0001:0003ace0       ??_G?$NpRigidActorTemplate@VPxRigidDynamic@physx@@@physx@@UAEPAXI@Z 1003bce0 f i NpRigidDynamic.obj
 0001:0003ace0       ??_E?$NpRigidActorTemplate@VPxRigidDynamic@physx@@@physx@@UAEPAXI@Z 1003bce0 f i NpRigidDynamic.obj
 0001:0003ad40       ??_E?$NpRigidBodyTemplate@VPxRigidDynamic@physx@@@physx@@UAEPAXI@Z 1003bd40 f i NpRigidDynamic.obj
 0001:0003ad40       ??_G?$NpRigidBodyTemplate@VPxRigidDynamic@physx@@@physx@@UAEPAXI@Z 1003bd40 f i NpRigidDynamic.obj
 0001:0003adb0       ??_ENpRigidDynamic@physx@@UAEPAXI@Z 1003bdb0 f i NpRigidDynamic.obj
 0001:0003adb0       ??_GNpRigidDynamic@physx@@UAEPAXI@Z 1003bdb0 f i NpRigidDynamic.obj
 0001:0003ae20       ??_EPxRigidDynamic@physx@@MAEPAXI@Z 1003be20 f i NpRigidDynamic.obj
 0001:0003ae20       ??_GPxRigidDynamic@physx@@MAEPAXI@Z 1003be20 f i NpRigidDynamic.obj
 0001:0003ae50       ?addSpatialForce@?$NpRigidBodyTemplate@VPxRigidDynamic@physx@@@physx@@IAEXPBVPxVec3@2@0W4Enum@PxForceMode@2@@Z 1003be50 f i NpRigidDynamic.obj
 0001:0003b0e0       ?attachShape@?$NpRigidActorTemplate@VPxRigidDynamic@physx@@@physx@@UAE_NAAVPxShape@2@@Z 1003c0e0 f i NpRigidDynamic.obj
 0001:0003b1e0       ?attachShape@?$NpRigidBodyTemplate@VPxRigidDynamic@physx@@@physx@@UAE_NAAVPxShape@2@@Z 1003c1e0 f i NpRigidDynamic.obj
 0001:0003b440       ?clearSpatialForce@?$NpRigidBodyTemplate@VPxRigidDynamic@physx@@@physx@@IAEXW4Enum@PxForceMode@2@_N1@Z 1003c440 f i NpRigidDynamic.obj
 0001:0003b620       ?detachShape@?$NpRigidActorTemplate@VPxRigidDynamic@physx@@@physx@@UAEXAAVPxShape@2@_N@Z 1003c620 f i NpRigidDynamic.obj
 0001:0003b6c0       ?exportExtraData@?$NpActorTemplate@VPxRigidDynamic@physx@@@physx@@UAEXAAVPxSerializationContext@2@@Z 1003c6c0 f i NpRigidDynamic.obj
 0001:0003b6d0       ?exportExtraData@?$NpRigidActorTemplate@VPxRigidDynamic@physx@@@physx@@UAEXAAVPxSerializationContext@2@@Z 1003c6d0 f i NpRigidDynamic.obj
 0001:0003b6f0       ?getActorFlags@?$NpActorTemplate@VPxRigidDynamic@physx@@@physx@@UBE?AV?$PxFlags@W4Enum@PxActorFlag@physx@@E@2@XZ 1003c6f0 f i NpRigidDynamic.obj
 0001:0003b760       ?getActorFlags@Actor@Scb@physx@@QBE?AV?$PxFlags@W4Enum@PxActorFlag@physx@@E@3@XZ 1003c760 f i NpRigidDynamic.obj
 0001:0003b790       ?getAggregate@?$NpActorTemplate@VPxRigidDynamic@physx@@@physx@@UBEPAVPxAggregate@2@XZ 1003c790 f i NpRigidDynamic.obj
 0001:0003b7a0       ?getAngularVelocity@?$NpRigidBodyTemplate@VPxRigidDynamic@physx@@@physx@@UBE?AVPxVec3@2@XZ 1003c7a0 f i NpRigidDynamic.obj
 0001:0003b7f0       ?getCMassLocalPose@?$NpRigidBodyTemplate@VPxRigidDynamic@physx@@@physx@@UBE?AVPxTransform@2@XZ 1003c7f0 f i NpRigidDynamic.obj
 0001:0003b870       ?getConcreteTypeName@PxRigidDynamic@physx@@UBEPBDXZ 1003c870 f i NpRigidDynamic.obj
 0001:0003b880       ?getConstraints@?$NpRigidActorTemplate@VPxRigidDynamic@physx@@@physx@@UBEIPAPAVPxConstraint@2@II@Z 1003c880 f i NpRigidDynamic.obj
 0001:0003b910       ?getDominanceGroup@?$NpActorTemplate@VPxRigidDynamic@physx@@@physx@@UBEEXZ 1003c910 f i NpRigidDynamic.obj
 0001:0003b980       ?getFlags@Body@Scb@physx@@QBE?AV?$PxFlags@W4Enum@PxRigidBodyFlag@physx@@E@3@XZ 1003c980 f i NpRigidDynamic.obj
 0001:0003b9b0       ?getGlobalPose@NpRigidDynamic@physx@@UBE?AVPxTransform@2@XZ 1003c9b0 f i NpRigidDynamic.obj
 0001:0003bda0       ?getInternalIslandNodeIndex@?$NpRigidBodyTemplate@VPxRigidDynamic@physx@@@physx@@UBEIXZ 1003cda0 f i NpRigidDynamic.obj
 0001:0003bde0       ?getInvMass@?$NpRigidBodyTemplate@VPxRigidDynamic@physx@@@physx@@UBEMXZ 1003cde0 f i NpRigidDynamic.obj
 0001:0003be50       ?getLinearVelocity@?$NpRigidBodyTemplate@VPxRigidDynamic@physx@@@physx@@UBE?AVPxVec3@2@XZ 1003ce50 f i NpRigidDynamic.obj
 0001:0003bea0       ?getMass@?$NpRigidBodyTemplate@VPxRigidDynamic@physx@@@physx@@UBEMXZ 1003cea0 f i NpRigidDynamic.obj
 0001:0003bf30       ?getMassSpaceInertiaTensor@?$NpRigidBodyTemplate@VPxRigidDynamic@physx@@@physx@@UBE?AVPxVec3@2@XZ 1003cf30 f i NpRigidDynamic.obj
 0001:0003bfe0       ?getMassSpaceInvInertiaTensor@?$NpRigidBodyTemplate@VPxRigidDynamic@physx@@@physx@@UBE?AVPxVec3@2@XZ 1003cfe0 f i NpRigidDynamic.obj
 0001:0003c040       ?getMaxContactImpulse@?$NpRigidBodyTemplate@VPxRigidDynamic@physx@@@physx@@UBEMXZ 1003d040 f i NpRigidDynamic.obj
 0001:0003c0a0       ?getMaxDepenetrationVelocity@?$NpRigidBodyTemplate@VPxRigidDynamic@physx@@@physx@@UBEMXZ 1003d0a0 f i NpRigidDynamic.obj
 0001:0003c110       ?getMinCCDAdvanceCoefficient@?$NpRigidBodyTemplate@VPxRigidDynamic@physx@@@physx@@UBEMXZ 1003d110 f i NpRigidDynamic.obj
 0001:0003c170       ?getName@?$NpActorTemplate@VPxRigidDynamic@physx@@@physx@@UBEPBDXZ 1003d170 f i NpRigidDynamic.obj
 0001:0003c1b0       ?getNbConstraints@?$NpRigidActorTemplate@VPxRigidDynamic@physx@@@physx@@UBEIXZ 1003d1b0 f i NpRigidDynamic.obj
 0001:0003c1f0       ?getNbShapes@?$NpRigidActorTemplate@VPxRigidDynamic@physx@@@physx@@UBEIXZ 1003d1f0 f i NpRigidDynamic.obj
 0001:0003c230       ?getOwnerClient@?$NpActorTemplate@VPxRigidDynamic@physx@@@physx@@UBEEXZ 1003d230 f i NpRigidDynamic.obj
 0001:0003c260       ?getRigidBodyFlags@?$NpRigidBodyTemplate@VPxRigidDynamic@physx@@@physx@@UBE?AV?$PxFlags@W4Enum@PxRigidBodyFlag@physx@@E@2@XZ 1003d260 f i NpRigidDynamic.obj
 0001:0003c2b0       ?getScene@?$NpActorTemplate@VPxRigidDynamic@physx@@@physx@@UBEPAVPxScene@2@XZ 1003d2b0 f i NpRigidDynamic.obj
 0001:0003c2c0       ?getShapes@?$NpRigidActorTemplate@VPxRigidDynamic@physx@@@physx@@UBEIPAPAVPxShape@2@II@Z 1003d2c0 f i NpRigidDynamic.obj
 0001:0003c310       ?getType@NpRigidDynamic@physx@@UBE?AW4Enum@PxActorType@2@XZ 1003d310 f i NpRigidDynamic.obj
 0001:0003c320       ?getWorldBounds@?$NpRigidActorTemplate@VPxRigidDynamic@physx@@@physx@@UBE?AVPxBounds3@2@M@Z 1003d320 f i NpRigidDynamic.obj
 0001:0003c470       ?importExtraData@?$NpActorTemplate@VPxRigidDynamic@physx@@@physx@@UAEXAAVPxDeserializationContext@2@@Z 1003d470 f i NpRigidDynamic.obj
 0001:0003c480       ?importExtraData@?$NpRigidActorTemplate@VPxRigidDynamic@physx@@@physx@@UAEXAAVPxDeserializationContext@2@@Z 1003d480 f i NpRigidDynamic.obj
 0001:0003c4a0       ?isKindOf@PxRigidDynamic@physx@@MBE_NPBD@Z 1003d4a0 f i NpRigidDynamic.obj
 0001:0003c5b0       ?preExportDataReset@?$NpRigidActorTemplate@VPxRigidDynamic@physx@@@physx@@QAEXXZ 1003d5b0 f i NpRigidDynamic.obj
 0001:0003c5f0       ?release@?$NpActorTemplate@VPxRigidDynamic@physx@@@physx@@UAEXXZ 1003d5f0 f i NpRigidDynamic.obj
 0001:0003c600       ?release@?$NpRigidActorTemplate@VPxRigidDynamic@physx@@@physx@@UAEXXZ 1003d600 f i NpRigidDynamic.obj
 0001:0003c660       ?requiresObjects@?$NpRigidActorTemplate@VPxRigidDynamic@physx@@@physx@@UAEXAAVPxProcessPxBaseCallback@2@@Z 1003d660 f i NpRigidDynamic.obj
 0001:0003c6a0       ?resolveReferences@?$NpActorTemplate@VPxRigidDynamic@physx@@@physx@@UAEXAAVPxDeserializationContext@2@@Z 1003d6a0 f i NpRigidDynamic.obj
 0001:0003c6b0       ?resolveReferences@?$NpRigidActorTemplate@VPxRigidDynamic@physx@@@physx@@UAEXAAVPxDeserializationContext@2@@Z 1003d6b0 f i NpRigidDynamic.obj
 0001:0003c710       ?setActorFlag@?$NpActorTemplate@VPxRigidDynamic@physx@@@physx@@UAEXW4Enum@PxActorFlag@2@_N@Z 1003d710 f i NpRigidDynamic.obj
 0001:0003c7c0       ?setActorFlag@?$NpRigidActorTemplate@VPxRigidDynamic@physx@@@physx@@UAEXW4Enum@PxActorFlag@2@_N@Z 1003d7c0 f i NpRigidDynamic.obj
 0001:0003c990       ?setActorFlags@?$NpActorTemplate@VPxRigidDynamic@physx@@@physx@@UAEXV?$PxFlags@W4Enum@PxActorFlag@physx@@E@2@@Z 1003d990 f i NpRigidDynamic.obj
 0001:0003c9e0       ?setActorFlags@?$NpRigidActorTemplate@VPxRigidDynamic@physx@@@physx@@UAEXV?$PxFlags@W4Enum@PxActorFlag@physx@@E@2@@Z 1003d9e0 f i NpRigidDynamic.obj
 0001:0003cb30       ?setCMassLocalPoseInternal@?$NpRigidBodyTemplate@VPxRigidDynamic@physx@@@physx@@IAEXABVPxTransform@2@@Z 1003db30 f i NpRigidDynamic.obj
 0001:0003cec0       ?setDominanceGroup@?$NpActorTemplate@VPxRigidDynamic@physx@@@physx@@UAEXE@Z 1003dec0 f i NpRigidDynamic.obj
 0001:0003cf90       ?setKinematicTarget@Body@Scb@physx@@QAEXABVPxTransform@3@@Z 1003df90 f i NpRigidDynamic.obj
 0001:0003d0d0       ?setLockFlags@Body@Scb@physx@@QAEXV?$PxFlags@W4Enum@PxRigidDynamicLockFlag@physx@@E@3@@Z 1003e0d0 f i NpRigidDynamic.obj
 0001:0003d160       ?setMass@?$NpRigidBodyTemplate@VPxRigidDynamic@physx@@@physx@@UAEXM@Z 1003e160 f i NpRigidDynamic.obj
 0001:0003d300       ?setMassSpaceInertiaTensor@?$NpRigidBodyTemplate@VPxRigidDynamic@physx@@@physx@@UAEXABVPxVec3@2@@Z 1003e300 f i NpRigidDynamic.obj
 0001:0003d580       ?setMaxContactImpulse@?$NpRigidBodyTemplate@VPxRigidDynamic@physx@@@physx@@UAEXM@Z 1003e580 f i NpRigidDynamic.obj
 0001:0003d680       ?setMaxDepenetrationVelocity@?$NpRigidBodyTemplate@VPxRigidDynamic@physx@@@physx@@UAEXM@Z 1003e680 f i NpRigidDynamic.obj
 0001:0003d780       ?setMinCCDAdvanceCoefficient@?$NpRigidBodyTemplate@VPxRigidDynamic@physx@@@physx@@UAEXM@Z 1003e780 f i NpRigidDynamic.obj
 0001:0003d840       ?setName@?$NpActorTemplate@VPxRigidDynamic@physx@@@physx@@UAEXPBD@Z 1003e840 f i NpRigidDynamic.obj
 0001:0003d8b0       ?setOwnerClient@?$NpActorTemplate@VPxRigidDynamic@physx@@@physx@@UAEXE@Z 1003e8b0 f i NpRigidDynamic.obj
 0001:0003d990       ?setRigidBodyFlag@?$NpRigidBodyTemplate@VPxRigidDynamic@physx@@@physx@@UAEXW4Enum@PxRigidBodyFlag@2@_N@Z 1003e990 f i NpRigidDynamic.obj
 0001:0003dce0       ?setRigidBodyFlags@?$NpRigidBodyTemplate@VPxRigidDynamic@physx@@@physx@@UAEXV?$PxFlags@W4Enum@PxRigidBodyFlag@physx@@E@2@@Z 1003ece0 f i NpRigidDynamic.obj
 0001:0003e030       ?setSpatialForce@?$NpRigidBodyTemplate@VPxRigidDynamic@physx@@@physx@@IAEXPBVPxVec3@2@0W4Enum@PxForceMode@2@@Z 1003f030 f i NpRigidDynamic.obj
 0001:0003e2c0       ?switchFromNoSim@?$NpRigidActorTemplate@VPxRigidDynamic@physx@@@physx@@UAEXXZ 1003f2c0 f i NpRigidDynamic.obj
 0001:0003e2d0       ?switchToNoSim@?$NpRigidActorTemplate@VPxRigidDynamic@physx@@@physx@@UAEXXZ 1003f2d0 f i NpRigidDynamic.obj
 0001:0003e2e0       ?updateShaderComs@?$NpRigidActorTemplate@VPxRigidDynamic@physx@@@physx@@QAEXXZ 1003f2e0 f i NpRigidDynamic.obj
 0001:0003e340       ?visualize@?$NpRigidActorTemplate@VPxRigidDynamic@physx@@@physx@@QAEXAAVRenderOutput@Cm@2@PAVNpScene@2@@Z 1003f340 f i NpRigidDynamic.obj
 0001:0003e360       ?visualize@?$NpRigidBodyTemplate@VPxRigidDynamic@physx@@@physx@@QAEXAAVRenderOutput@Cm@2@PAVNpScene@2@@Z 1003f360 f i NpRigidDynamic.obj
 0001:0003e6f0       ?NpRigidStaticGetShapes@physx@@YAIAAVRigidStatic@Scb@1@AAPBQAX@Z 1003f6f0 f   NpRigidStatic.obj
 0001:0003e730       ?requiresObjects@NpRigidStatic@physx@@UAEXAAVPxProcessPxBaseCallback@2@@Z 1003f730 f   NpRigidStatic.obj
 0001:0003e770       ?createObject@NpRigidStatic@physx@@SAPAV12@AAPAEAAVPxDeserializationContext@2@@Z 1003f770 f   NpRigidStatic.obj
 0001:0003e820       ??1NpRigidStatic@physx@@UAE@XZ 1003f820 f   NpRigidStatic.obj
 0001:0003e860       ?release@NpRigidStatic@physx@@UAEXXZ 1003f860 f   NpRigidStatic.obj
 0001:0003e930       ?setGlobalPose@NpRigidStatic@physx@@UAEXABVPxTransform@2@_N@Z 1003f930 f   NpRigidStatic.obj
 0001:0003ebe0       ?getGlobalPose@NpRigidStatic@physx@@UBE?AVPxTransform@2@XZ 1003fbe0 f   NpRigidStatic.obj
 0001:0003ec50       ??0NpRigidStatic@physx@@QAE@ABVPxTransform@1@@Z 1003fc50 f   NpRigidStatic.obj
 0001:0003ed00       ?switchToNoSim@NpRigidStatic@physx@@UAEXXZ 1003fd00 f   NpRigidStatic.obj
 0001:0003ed20       ?switchFromNoSim@NpRigidStatic@physx@@UAEXXZ 1003fd20 f   NpRigidStatic.obj
 0001:0003ed40       ?checkConstraintValidity@NpRigidStatic@physx@@QBE_NXZ 1003fd40 f   NpRigidStatic.obj
 0001:0003ed90       ?visualize@NpRigidStatic@physx@@QAEXAAVRenderOutput@Cm@2@PAVNpScene@2@@Z 1003fd90 f   NpRigidStatic.obj
 0001:0003eeb0       ??0?$NpActorTemplate@VPxRigidStatic@physx@@@physx@@QAE@GV?$PxFlags@W4Enum@PxBaseFlag@physx@@G@1@PBDPAX@Z 1003feb0 f i NpRigidStatic.obj
 0001:0003ef00       ??0?$NpRigidActorTemplate@VPxRigidStatic@physx@@@physx@@QAE@GV?$PxFlags@W4Enum@PxBaseFlag@physx@@G@1@@Z 1003ff00 f i NpRigidStatic.obj
 0001:0003ef50       ??1?$NpActorTemplate@VPxRigidStatic@physx@@@physx@@UAE@XZ 1003ff50 f i NpRigidStatic.obj
 0001:0003ef80       ??1?$NpRigidActorTemplate@VPxRigidStatic@physx@@@physx@@UAE@XZ 1003ff80 f i NpRigidStatic.obj
 0001:0003efb0       ??1PxRigidStatic@physx@@MAE@XZ 1003ffb0 f i NpRigidStatic.obj
 0001:0003efc0       ??_G?$NpActorTemplate@VPxRigidStatic@physx@@@physx@@UAEPAXI@Z 1003ffc0 f i NpRigidStatic.obj
 0001:0003efc0       ??_E?$NpActorTemplate@VPxRigidStatic@physx@@@physx@@UAEPAXI@Z 1003ffc0 f i NpRigidStatic.obj
 0001:0003f010       ??_G?$NpRigidActorTemplate@VPxRigidStatic@physx@@@physx@@UAEPAXI@Z 10040010 f i NpRigidStatic.obj
 0001:0003f010       ??_E?$NpRigidActorTemplate@VPxRigidStatic@physx@@@physx@@UAEPAXI@Z 10040010 f i NpRigidStatic.obj
 0001:0003f070       ??_ENpRigidStatic@physx@@UAEPAXI@Z 10040070 f i NpRigidStatic.obj
 0001:0003f070       ??_GNpRigidStatic@physx@@UAEPAXI@Z 10040070 f i NpRigidStatic.obj
 0001:0003f0e0       ??_EPxRigidStatic@physx@@MAEPAXI@Z 100400e0 f i NpRigidStatic.obj
 0001:0003f0e0       ??_GPxRigidStatic@physx@@MAEPAXI@Z 100400e0 f i NpRigidStatic.obj
 0001:0003f110       ?attachShape@?$NpRigidActorTemplate@VPxRigidStatic@physx@@@physx@@UAE_NAAVPxShape@2@@Z 10040110 f i NpRigidStatic.obj
 0001:0003f210       ?detachShape@?$NpRigidActorTemplate@VPxRigidStatic@physx@@@physx@@UAEXAAVPxShape@2@_N@Z 10040210 f i NpRigidStatic.obj
 0001:0003f2b0       ?exportExtraData@?$NpActorTemplate@VPxRigidStatic@physx@@@physx@@UAEXAAVPxSerializationContext@2@@Z 100402b0 f i NpRigidStatic.obj
 0001:0003f2c0       ?exportExtraData@?$NpRigidActorTemplate@VPxRigidStatic@physx@@@physx@@UAEXAAVPxSerializationContext@2@@Z 100402c0 f i NpRigidStatic.obj
 0001:0003f2e0       ?getActorFlags@?$NpActorTemplate@VPxRigidStatic@physx@@@physx@@UBE?AV?$PxFlags@W4Enum@PxActorFlag@physx@@E@2@XZ 100402e0 f i NpRigidStatic.obj
 0001:0003f350       ?getAggregate@?$NpActorTemplate@VPxRigidStatic@physx@@@physx@@UBEPAVPxAggregate@2@XZ 10040350 f i NpRigidStatic.obj
 0001:0003f360       ?getConcreteTypeName@PxRigidStatic@physx@@UBEPBDXZ 10040360 f i NpRigidStatic.obj
 0001:0003f370       ?getConstraints@?$NpRigidActorTemplate@VPxRigidStatic@physx@@@physx@@UBEIPAPAVPxConstraint@2@II@Z 10040370 f i NpRigidStatic.obj
 0001:0003f400       ?getDominanceGroup@?$NpActorTemplate@VPxRigidStatic@physx@@@physx@@UBEEXZ 10040400 f i NpRigidStatic.obj
 0001:0003f470       ?getName@?$NpActorTemplate@VPxRigidStatic@physx@@@physx@@UBEPBDXZ 10040470 f i NpRigidStatic.obj
 0001:0003f4b0       ?getNbConstraints@?$NpRigidActorTemplate@VPxRigidStatic@physx@@@physx@@UBEIXZ 100404b0 f i NpRigidStatic.obj
 0001:0003f4f0       ?getNbShapes@?$NpRigidActorTemplate@VPxRigidStatic@physx@@@physx@@UBEIXZ 100404f0 f i NpRigidStatic.obj
 0001:0003f530       ?getOwnerClient@?$NpActorTemplate@VPxRigidStatic@physx@@@physx@@UBEEXZ 10040530 f i NpRigidStatic.obj
 0001:0003f560       ?getScene@?$NpActorTemplate@VPxRigidStatic@physx@@@physx@@UBEPAVPxScene@2@XZ 10040560 f i NpRigidStatic.obj
 0001:0003f570       ?getShapes@?$NpRigidActorTemplate@VPxRigidStatic@physx@@@physx@@UBEIPAPAVPxShape@2@II@Z 10040570 f i NpRigidStatic.obj
 0001:0003f5c0       ?getType@NpRigidStatic@physx@@UBE?AW4Enum@PxActorType@2@XZ 100405c0 f i NpRigidStatic.obj
 0001:0003f5d0       ?getWorldBounds@?$NpRigidActorTemplate@VPxRigidStatic@physx@@@physx@@UBE?AVPxBounds3@2@M@Z 100405d0 f i NpRigidStatic.obj
 0001:0003f720       ?importExtraData@?$NpActorTemplate@VPxRigidStatic@physx@@@physx@@UAEXAAVPxDeserializationContext@2@@Z 10040720 f i NpRigidStatic.obj
 0001:0003f730       ?importExtraData@?$NpRigidActorTemplate@VPxRigidStatic@physx@@@physx@@UAEXAAVPxDeserializationContext@2@@Z 10040730 f i NpRigidStatic.obj
 0001:0003f750       ?isKindOf@PxRigidStatic@physx@@MBE_NPBD@Z 10040750 f i NpRigidStatic.obj
 0001:0003f7b0       ?release@?$NpActorTemplate@VPxRigidStatic@physx@@@physx@@UAEXXZ 100407b0 f i NpRigidStatic.obj
 0001:0003f7c0       ?release@?$NpRigidActorTemplate@VPxRigidStatic@physx@@@physx@@UAEXXZ 100407c0 f i NpRigidStatic.obj
 0001:0003f820       ?requiresObjects@?$NpRigidActorTemplate@VPxRigidStatic@physx@@@physx@@UAEXAAVPxProcessPxBaseCallback@2@@Z 10040820 f i NpRigidStatic.obj
 0001:0003f860       ?resolveReferences@?$NpActorTemplate@VPxRigidStatic@physx@@@physx@@UAEXAAVPxDeserializationContext@2@@Z 10040860 f i NpRigidStatic.obj
 0001:0003f870       ?resolveReferences@?$NpRigidActorTemplate@VPxRigidStatic@physx@@@physx@@UAEXAAVPxDeserializationContext@2@@Z 10040870 f i NpRigidStatic.obj
 0001:0003f8d0       ?setActorFlag@?$NpActorTemplate@VPxRigidStatic@physx@@@physx@@UAEXW4Enum@PxActorFlag@2@_N@Z 100408d0 f i NpRigidStatic.obj
 0001:0003f980       ?setActorFlag@?$NpRigidActorTemplate@VPxRigidStatic@physx@@@physx@@UAEXW4Enum@PxActorFlag@2@_N@Z 10040980 f i NpRigidStatic.obj
 0001:0003fb40       ?setActorFlags@?$NpActorTemplate@VPxRigidStatic@physx@@@physx@@UAEXV?$PxFlags@W4Enum@PxActorFlag@physx@@E@2@@Z 10040b40 f i NpRigidStatic.obj
 0001:0003fb90       ?setActorFlags@?$NpRigidActorTemplate@VPxRigidStatic@physx@@@physx@@UAEXV?$PxFlags@W4Enum@PxActorFlag@physx@@E@2@@Z 10040b90 f i NpRigidStatic.obj
 0001:0003fce0       ?setDominanceGroup@?$NpActorTemplate@VPxRigidStatic@physx@@@physx@@UAEXE@Z 10040ce0 f i NpRigidStatic.obj
 0001:0003fdb0       ?setName@?$NpActorTemplate@VPxRigidStatic@physx@@@physx@@UAEXPBD@Z 10040db0 f i NpRigidStatic.obj
 0001:0003fe20       ?setOwnerClient@?$NpActorTemplate@VPxRigidStatic@physx@@@physx@@UAEXE@Z 10040e20 f i NpRigidStatic.obj
 0001:0003ff00       ?switchFromNoSim@?$NpRigidActorTemplate@VPxRigidStatic@physx@@@physx@@UAEXXZ 10040f00 f i NpRigidStatic.obj
 0001:0003ff10       ?switchToNoSim@?$NpRigidActorTemplate@VPxRigidStatic@physx@@@physx@@UAEXXZ 10040f10 f i NpRigidStatic.obj
 0001:0003ff20       ?updateShaderComs@?$NpRigidActorTemplate@VPxRigidStatic@physx@@@physx@@QAEXXZ 10040f20 f i NpRigidStatic.obj
 0001:0003ff80       ?visualize@?$NpRigidActorTemplate@VPxRigidStatic@physx@@@physx@@QAEXAAVRenderOutput@Cm@2@PAVNpScene@2@@Z 10040f80 f i NpRigidStatic.obj
 0001:0003ffb0       ??0NpSceneQueries@physx@@QAE@ABVPxSceneDesc@1@@Z 10040fb0 f   NpScene.obj
 0001:00040130       ??1NpSceneQueries@physx@@UAE@XZ 10041130 f   NpScene.obj
 0001:000401a0       ?setData@NpContactCallbackTask@physx@@QAEXPAVNpScene@2@PBUPxContactPairHeader@2@I@Z 100411a0 f   NpScene.obj
 0001:000401c0       ?run@NpContactCallbackTask@physx@@UAEXXZ 100411c0 f   NpScene.obj
 0001:00040220       ?release@NpScene@physx@@UAEXXZ 10041220 f   NpScene.obj
 0001:000402d0       ?setFlag@NpScene@physx@@UAEXW4Enum@PxSceneFlag@2@_N@Z 100412d0 f   NpScene.obj
 0001:000403d0       ?getFlags@NpScene@physx@@UBE?AV?$PxFlags@W4Enum@PxSceneFlag@physx@@I@2@XZ 100413d0 f   NpScene.obj
 0001:00040420       ?setGravity@NpScene@physx@@UAEXABVPxVec3@2@@Z 10041420 f   NpScene.obj
 0001:000404d0       ?getGravity@NpScene@physx@@UBE?AVPxVec3@2@XZ 100414d0 f   NpScene.obj
 0001:00040550       ?setBounceThresholdVelocity@NpScene@physx@@UAEXM@Z 10041550 f   NpScene.obj
 0001:000405e0       ?getBounceThresholdVelocity@NpScene@physx@@UBEMXZ 100415e0 f   NpScene.obj
 0001:00040640       ?getFrictionOffsetThreshold@NpScene@physx@@UBEMXZ 10041640 f   NpScene.obj
 0001:00040650       ?setLimits@NpScene@physx@@UAEXABVPxSceneLimits@2@@Z 10041650 f   NpScene.obj
 0001:000406e0       ?getLimits@NpScene@physx@@UBE?AVPxSceneLimits@2@XZ 100416e0 f   NpScene.obj
 0001:00040730       ?addActor@NpScene@physx@@UAEXAAVPxActor@2@PBVPxBVHStructure@2@@Z 10041730 f   NpScene.obj
 0001:000409b0       ?removeActor@NpScene@physx@@UAEXAAVPxActor@2@_N@Z 100419b0 f   NpScene.obj
 0001:00040a90       ?getNbConstraints@NpScene@physx@@UBEIXZ 10041a90 f   NpScene.obj
 0001:00040ac0       ?getConstraints@NpScene@physx@@UBEIPAPAVPxConstraint@2@II@Z 10041ac0 f   NpScene.obj
 0001:00040b40       ?addArticulation@NpScene@physx@@UAEXAAVPxArticulationBase@2@@Z 10041b40 f   NpScene.obj
 0001:00040ce0       ?removeArticulation@NpScene@physx@@UAEXAAVPxArticulationBase@2@_N@Z 10041ce0 f   NpScene.obj
 0001:00040dc0       ?getNbArticulations@NpScene@physx@@UBEIXZ 10041dc0 f   NpScene.obj
 0001:00040df0       ?getArticulations@NpScene@physx@@UBEIPAPAVPxArticulationBase@2@II@Z 10041df0 f   NpScene.obj
 0001:00040e70       ?addAggregate@NpScene@physx@@UAEXAAVPxAggregate@2@@Z 10041e70 f   NpScene.obj
 0001:000410d0       ?removeAggregate@NpScene@physx@@UAEXAAVPxAggregate@2@_N@Z 100420d0 f   NpScene.obj
 0001:000412c0       ?getNbAggregates@NpScene@physx@@UBEIXZ 100422c0 f   NpScene.obj
 0001:000412f0       ?getAggregates@NpScene@physx@@UBEIPAPAVPxAggregate@2@II@Z 100422f0 f   NpScene.obj
 0001:00041370       ?addCollection@NpScene@physx@@UAEXABVPxCollection@2@@Z 10042370 f   NpScene.obj
 0001:00041600       ?setDominanceGroupPair@NpScene@physx@@UAEXEEABUPxDominanceGroupPair@2@@Z 10042600 f   NpScene.obj
 0001:00041830       ?getDominanceGroupPair@NpScene@physx@@UBE?AUPxDominanceGroupPair@2@EE@Z 10042830 f   NpScene.obj
 0001:00041960       ?getNbActors@NpScene@physx@@UBEIV?$PxFlags@W4Enum@PxActorTypeFlag@physx@@G@2@@Z 10042960 f   NpScene.obj
 0001:00041a10       ?getActors@NpScene@physx@@UBEIV?$PxFlags@W4Enum@PxActorTypeFlag@physx@@G@2@PAPAVPxActor@2@II@Z 10042a10 f   NpScene.obj
 0001:00041ab0       ?getActiveActors@NpScene@physx@@UAEPAPAVPxActor@2@AAI@Z 10042ab0 f   NpScene.obj
 0001:00041b30       ?getSimulationStatistics@NpScene@physx@@UBEXAAVPxSimulationStatistics@2@@Z 10042b30 f   NpScene.obj
 0001:00041ba0       ?createClient@NpScene@physx@@UAEEXZ 10042ba0 f   NpScene.obj
 0001:00041c50       ?setFrictionType@NpScene@physx@@UAEXW4Enum@PxFrictionType@2@@Z 10042c50 f   NpScene.obj
 0001:00041cc0       ?getFrictionType@NpScene@physx@@UBE?AW4Enum@PxFrictionType@2@XZ 10042cc0 f   NpScene.obj
 0001:00041cf0       ?setSimulationEventCallback@NpScene@physx@@UAEXPAVPxSimulationEventCallback@2@@Z 10042cf0 f   NpScene.obj
 0001:00041d60       ?getSimulationEventCallback@NpScene@physx@@UBEPAVPxSimulationEventCallback@2@XZ 10042d60 f   NpScene.obj
 0001:00041d90       ?setContactModifyCallback@NpScene@physx@@UAEXPAVPxContactModifyCallback@2@@Z 10042d90 f   NpScene.obj
 0001:00041e00       ?getContactModifyCallback@NpScene@physx@@UBEPAVPxContactModifyCallback@2@XZ 10042e00 f   NpScene.obj
 0001:00041e30       ?setCCDContactModifyCallback@NpScene@physx@@UAEXPAVPxCCDContactModifyCallback@2@@Z 10042e30 f   NpScene.obj
 0001:00041ea0       ?getCCDContactModifyCallback@NpScene@physx@@UBEPAVPxCCDContactModifyCallback@2@XZ 10042ea0 f   NpScene.obj
 0001:00041ed0       ?setBroadPhaseCallback@NpScene@physx@@UAEXPAVPxBroadPhaseCallback@2@@Z 10042ed0 f   NpScene.obj
 0001:00041f40       ?getBroadPhaseCallback@NpScene@physx@@UBEPAVPxBroadPhaseCallback@2@XZ 10042f40 f   NpScene.obj
 0001:00041f70       ?setCCDMaxPasses@NpScene@physx@@UAEXI@Z 10042f70 f   NpScene.obj
 0001:00041fe0       ?getCCDMaxPasses@NpScene@physx@@UBEIXZ 10042fe0 f   NpScene.obj
 0001:00042010       ?setFilterShaderData@NpScene@physx@@UAEXPBXI@Z 10043010 f   NpScene.obj
 0001:000420a0       ?getFilterShaderData@NpScene@physx@@UBEPBXXZ 100430a0 f   NpScene.obj
 0001:000420d0       ?getFilterShaderDataSize@NpScene@physx@@UBEIXZ 100430d0 f   NpScene.obj
 0001:00042100       ?getFilterShader@NpScene@physx@@UBEP6A?AV?$PxFlags@W4Enum@PxFilterFlag@physx@@G@2@IUPxFilterData@2@I0AAV?$PxFlags@W4Enum@PxPairFlag@physx@@G@2@PBXI@ZXZ 10043100 f   NpScene.obj
 0001:00042130       ?getFilterCallback@NpScene@physx@@UBEPAVPxSimulationFilterCallback@2@XZ 10043130 f   NpScene.obj
 0001:00042160       ?resetFiltering@NpScene@physx@@UAEXAAVPxActor@2@@Z 10043160 f   NpScene.obj
 0001:000422c0       ?resetFiltering@NpScene@physx@@UAEXAAVPxRigidActor@2@PBQAVPxShape@2@I@Z 100432c0 f   NpScene.obj
 0001:00042470       ?getKinematicKinematicFilteringMode@NpScene@physx@@UBE?AW4Enum@PxPairFilteringMode@2@XZ 10043470 f   NpScene.obj
 0001:000424a0       ?getStaticKinematicFilteringMode@NpScene@physx@@UBE?AW4Enum@PxPairFilteringMode@2@XZ 100434a0 f   NpScene.obj
 0001:000424d0       ?getPhysics@NpScene@physx@@UAEAAVPxPhysics@2@XZ 100434d0 f   NpScene.obj
 0001:000424e0       ?simulate@NpScene@physx@@UAEXMPAVPxBaseTask@2@PAXI_N@Z 100434e0 f   NpScene.obj
 0001:00042510       ?advance@NpScene@physx@@UAEXPAVPxBaseTask@2@@Z 10043510 f   NpScene.obj
 0001:00042650       ?collide@NpScene@physx@@UAEXMPAVPxBaseTask@2@PAXI_N@Z 10043650 f   NpScene.obj
 0001:00042680       ?checkResults@NpScene@physx@@UAE_N_N@Z 10043680 f   NpScene.obj
 0001:00042690       ?checkCollision@NpScene@physx@@UAE_N_N@Z 10043690 f   NpScene.obj
 0001:000426a0       ?fetchCollision@NpScene@physx@@UAE_N_N@Z 100436a0 f   NpScene.obj
 0001:00042720       ?fetchResults@NpScene@physx@@UAE_N_NPAI@Z 10043720 f   NpScene.obj
 0001:00042910       ?fetchResultsStart@NpScene@physx@@UAE_NAAPBUPxContactPairHeader@2@AAI_N@Z 10043910 f   NpScene.obj
 0001:00042a60       ?processCallbacks@NpScene@physx@@UAEXPAVPxBaseTask@2@@Z 10043a60 f   NpScene.obj
 0001:00042ce0       ?fetchResultsFinish@NpScene@physx@@UAEXPAI@Z 10043ce0 f   NpScene.obj
 0001:00042e30       ?flushSimulation@NpScene@physx@@UAEX_N@Z 10043e30 f   NpScene.obj
 0001:00042fb0       ?flushQueryUpdates@NpScene@physx@@UAEXXZ 10043fb0 f   NpScene.obj
 0001:00043070       ?getRenderBuffer@NpScene@physx@@UAEABVPxRenderBuffer@2@XZ 10044070 f   NpScene.obj
 0001:000430b0       ?createBatchQuery@NpScene@physx@@UAEPAVPxBatchQuery@2@ABVPxBatchQueryDesc@2@@Z 100440b0 f   NpScene.obj
 0001:000431f0       ?releaseBatchQuery@NpScene@physx@@QAEXPAVPxBatchQuery@2@@Z 100441f0 f   NpScene.obj
 0001:000432c0       ?setDynamicTreeRebuildRateHint@NpScene@physx@@UAEXI@Z 100442c0 f   NpScene.obj
 0001:00043300       ?getDynamicTreeRebuildRateHint@NpScene@physx@@UBEIXZ 10044300 f   NpScene.obj
 0001:00043330       ?forceDynamicTreeRebuild@NpScene@physx@@UAEX_N0@Z 10044330 f   NpScene.obj
 0001:00043400       ?sceneQueriesUpdate@NpScene@physx@@UAEXPAVPxBaseTask@2@_N@Z 10044400 f   NpScene.obj
 0001:000436c0       ?checkQueries@NpScene@physx@@UAE_N_N@Z 100446c0 f   NpScene.obj
 0001:000436d0       ?fetchQueries@NpScene@physx@@UAE_N_N@Z 100446d0 f   NpScene.obj
 0001:000437e0       ?setSceneQueryUpdateMode@NpScene@physx@@UAEXW4Enum@PxSceneQueryUpdateMode@2@@Z 100447e0 f   NpScene.obj
 0001:00043820       ?getSceneQueryUpdateMode@NpScene@physx@@UBE?AW4Enum@PxSceneQueryUpdateMode@2@XZ 10044820 f   NpScene.obj
 0001:00043850       ?setSolverBatchSize@NpScene@physx@@UAEXI@Z 10044850 f   NpScene.obj
 0001:000438d0       ?getSolverBatchSize@NpScene@physx@@UBEIXZ 100448d0 f   NpScene.obj
 0001:00043920       ?setSolverArticulationBatchSize@NpScene@physx@@UAEXI@Z 10044920 f   NpScene.obj
 0001:000439a0       ?getSolverArticulationBatchSize@NpScene@physx@@UBEIXZ 100449a0 f   NpScene.obj
 0001:000439f0       ?setVisualizationParameter@NpScene@physx@@UAE_NW4Enum@PxVisualizationParameter@2@M@Z 100449f0 f   NpScene.obj
 0001:00043b10       ?getVisualizationParameter@NpScene@physx@@UBEMW4Enum@PxVisualizationParameter@2@@Z 10044b10 f   NpScene.obj
 0001:00043b80       ?setVisualizationCullingBox@NpScene@physx@@UAEXABVPxBounds3@2@@Z 10044b80 f   NpScene.obj
 0001:00043d80       ?getVisualizationCullingBox@NpScene@physx@@UBE?AVPxBounds3@2@XZ 10044d80 f   NpScene.obj
 0001:00043df0       ?setNbContactDataBlocks@NpScene@physx@@UAEXI@Z 10044df0 f   NpScene.obj
 0001:00043e30       ?getNbContactDataBlocksUsed@NpScene@physx@@UBEIXZ 10044e30 f   NpScene.obj
 0001:00043e70       ?getMaxNbContactDataBlocksUsed@NpScene@physx@@UBEIXZ 10044e70 f   NpScene.obj
 0001:00043eb0       ?getContactReportStreamBufferSize@NpScene@physx@@UBEIXZ 10044eb0 f   NpScene.obj
 0001:00043ec0       ?getTimestamp@NpScene@physx@@UBEIXZ 10044ec0 f   NpScene.obj
 0001:00043ed0       ?getSceneQueryStaticTimestamp@NpScene@physx@@UBEIXZ 10044ed0 f   NpScene.obj
 0001:00043ee0       ?getCpuDispatcher@NpScene@physx@@UBEPAVPxCpuDispatcher@2@XZ 10044ee0 f   NpScene.obj
 0001:00043ef0       ?getCudaContextManager@NpScene@physx@@UBEPAVPxCudaContextManager@2@XZ 10044ef0 f   NpScene.obj
 0001:00043f00       ?getStaticStructure@NpScene@physx@@UBE?AW4Enum@PxPruningStructureType@2@XZ 10044f00 f   NpScene.obj
 0001:00043f10       ?getDynamicStructure@NpScene@physx@@UBE?AW4Enum@PxPruningStructureType@2@XZ 10044f10 f   NpScene.obj
 0001:00043f20       ?getBroadPhaseType@NpScene@physx@@UBE?AW4Enum@PxBroadPhaseType@2@XZ 10044f20 f   NpScene.obj
 0001:00043f50       ?getBroadPhaseCaps@NpScene@physx@@UBE_NAAUPxBroadPhaseCaps@2@@Z 10044f50 f   NpScene.obj
 0001:00043f90       ?getNbBroadPhaseRegions@NpScene@physx@@UBEIXZ 10044f90 f   NpScene.obj
 0001:00043fc0       ?getBroadPhaseRegions@NpScene@physx@@UBEIPAUPxBroadPhaseRegionInfo@2@II@Z 10044fc0 f   NpScene.obj
 0001:00044000       ?addBroadPhaseRegion@NpScene@physx@@UAEIABUPxBroadPhaseRegion@2@_N@Z 10045000 f   NpScene.obj
 0001:00044250       ?removeBroadPhaseRegion@NpScene@physx@@UAE_NI@Z 10045250 f   NpScene.obj
 0001:00044290       ?addActors@NpScene@physx@@UAEXPBQAVPxActor@2@I@Z 10045290 f   NpScene.obj
 0001:000442b0       ?addActors@NpScene@physx@@UAEXABVPxPruningStructure@2@@Z 100452b0 f   NpScene.obj
 0001:000442f0       ?removeActors@NpScene@physx@@UAEXPBQAVPxActor@2@I_N@Z 100452f0 f   NpScene.obj
 0001:00044980       ?lockRead@NpScene@physx@@UAEXPBDI@Z 10045980 f   NpScene.obj
 0001:00044a00       ?unlockRead@NpScene@physx@@UAEXXZ 10045a00 f   NpScene.obj
 0001:00044a90       ?lockWrite@NpScene@physx@@UAEXPBDI@Z 10045a90 f   NpScene.obj
 0001:00044b60       ?unlockWrite@NpScene@physx@@UAEXXZ 10045b60 f   NpScene.obj
 0001:00044c00       ?getWakeCounterResetValue@NpScene@physx@@UBEMXZ 10045c00 f   NpScene.obj
 0001:00044c40       ?shiftOrigin@NpScene@physx@@UAEXABVPxVec3@2@@Z 10045c40 f   NpScene.obj
 0001:00045180       ?getScenePvdClient@NpScene@physx@@UAEPAVPxPvdSceneClient@2@XZ 10046180 f   NpScene.obj
 0001:00045190       ?getSimulationController@NpScene@physx@@UAEPAVPxsSimulationController@2@XZ 10046190 f   NpScene.obj
 0001:000451a0       ?setActiveActors@NpScene@physx@@UAEXPAPAVPxActor@2@I@Z 100461a0 f   NpScene.obj
 0001:000451e0       ?getFrozenActors@NpScene@physx@@UAEPAPAVPxActor@2@AAI@Z 100461e0 f   NpScene.obj
 0001:00045260       ?setFrozenActorFlag@NpScene@physx@@UAEX_N@Z 10046260 f   NpScene.obj
 0001:000452d0       ?forceSceneQueryRebuild@NpScene@physx@@UAEXXZ 100462d0 f   NpScene.obj
 0001:00045310       ?frameEnd@NpScene@physx@@UAEXXZ 10046310 f   NpScene.obj
 0001:00045320       ??0NpScene@physx@@QAE@ABVPxSceneDesc@1@@Z 10046320 f   NpScene.obj
 0001:000459d0       ??1NpScene@physx@@UAE@XZ   100469d0 f   NpScene.obj
 0001:00045ec0       ?addActorInternal@NpScene@physx@@QAEXAAVPxActor@2@PBVPxBVHStructure@2@@Z 10046ec0 f   NpScene.obj
 0001:00045fd0       ?removeActorInternal@NpScene@physx@@QAEXAAVPxActor@2@_N1@Z 10046fd0 f   NpScene.obj
 0001:000461a0       ?addActorsInternal@NpScene@physx@@QAEXPIBQAVPxActor@2@IPBVPruningStructure@Sq@2@@Z 100471a0 f   NpScene.obj
 0001:00046a10       ?addArticulationInternal@NpScene@physx@@QAEXAAVPxArticulationBase@2@@Z 10047a10 f   NpScene.obj
 0001:00046ef0       ?removeArticulationInternal@NpScene@physx@@QAEXAAVPxArticulationBase@2@_N1@Z 10047ef0 f   NpScene.obj
 0001:00047100       ?addMaterial@NpScene@physx@@QAEXABVNpMaterial@2@@Z 10048100 f   NpScene.obj
 0001:00047110       ?updateMaterial@NpScene@physx@@QAEXABVNpMaterial@2@@Z 10048110 f   NpScene.obj
 0001:00047120       ?removeMaterial@NpScene@physx@@QAEXABVNpMaterial@2@@Z 10048120 f   NpScene.obj
 0001:00047130       ?executeScene@NpScene@physx@@QAEXPAVPxBaseTask@2@@Z 10048130 f   NpScene.obj
 0001:00047150       ?executeCollide@NpScene@physx@@QAEXPAVPxBaseTask@2@@Z 10048150 f   NpScene.obj
 0001:00047170       ?executeAdvance@NpScene@physx@@QAEXPAVPxBaseTask@2@@Z 10048170 f   NpScene.obj
 0001:00047190       ?loadFromDesc@NpScene@physx@@QAE_NABVPxSceneDesc@2@@Z 10048190 f   NpScene.obj
 0001:000471f0       ?removeFromRigidActorList@NpScene@physx@@QAEXABI@Z 100481f0 f   NpScene.obj
 0001:00047250       ?addArticulationLink@NpScene@physx@@QAEXAAVNpArticulationLink@2@@Z 10048250 f   NpScene.obj
 0001:000472e0       ?addArticulationLinkBody@NpScene@physx@@QAEXAAVNpArticulationLink@2@@Z 100482e0 f   NpScene.obj
 0001:00047310       ?addArticulationLinkConstraint@NpScene@physx@@QAEXAAVNpArticulationLink@2@@Z 10048310 f   NpScene.obj
 0001:00047350       ?removeArticulationLink@NpScene@physx@@QAEXAAVNpArticulationLink@2@_N@Z 10048350 f   NpScene.obj
 0001:000473b0       ?startWrite@NpScene@physx@@QAE?AW4Enum@StartWriteResult@12@_N@Z 100483b0 f   NpScene.obj
 0001:000474d0       ?stopWrite@NpScene@physx@@QAEX_N@Z 100484d0 f   NpScene.obj
 0001:00047550       ?startRead@NpScene@physx@@QBE_NXZ 10048550 f   NpScene.obj
 0001:00047620       ?stopRead@NpScene@physx@@QBEXXZ 10048620 f   NpScene.obj
 0001:000476a0       ?checkPositionSanity@NpScene@physx@@QBEXABVPxRigidActor@2@ABVPxTransform@2@PBD@Z 100486a0 f   NpScene.obj
 0001:00047720       ?updatePhysXIndicator@NpScene@physx@@QAEXXZ 10048720 f   NpScene.obj
 0001:00047740       ?checkResultsInternal@NpScene@physx@@AAE_N_N@Z 10048740 f   NpScene.obj
 0001:000477c0       ?checkCollisionInternal@NpScene@physx@@AAE_N_N@Z 100487c0 f   NpScene.obj
 0001:00047840       ?checkSceneQueriesInternal@NpScene@physx@@AAE_N_N@Z 10048840 f   NpScene.obj
 0001:000478c0       ?simulateOrCollide@NpScene@physx@@AAEXMPAVPxBaseTask@2@PAXI_NPBDW4Enum@SimulationStage@Sc@2@@Z 100488c0 f   NpScene.obj
 0001:00047d30       ?addRigidStatic@NpScene@physx@@AAEXAAVNpRigidStatic@2@PBVBVHStructure@Gu@2@_N@Z 10048d30 f   NpScene.obj
 0001:00047e20       ?removeRigidStatic@NpScene@physx@@AAEXAAVNpRigidStatic@2@_N1@Z 10048e20 f   NpScene.obj
 0001:00047f10       ?addRigidDynamic@NpScene@physx@@AAEXAAVNpRigidDynamic@2@PBVBVHStructure@Gu@2@_N@Z 10048f10 f   NpScene.obj
 0001:00048000       ?removeRigidDynamic@NpScene@physx@@AAEXAAVNpRigidDynamic@2@_N1@Z 10049000 f   NpScene.obj
 0001:000480f0       ?visualize@NpScene@physx@@AAEXXZ 100490f0 f   NpScene.obj
 0001:00048500       ?updateDirtyShaders@NpScene@physx@@AAEXXZ 10049500 f   NpScene.obj
 0001:000485b0       ?fireOutOfBoundsCallbacks@NpScene@physx@@AAEXXZ 100495b0 f   NpScene.obj
 0001:000486d0       ?fetchResultsPreContactCallbacks@NpScene@physx@@AAEXXZ 100496d0 f   NpScene.obj
 0001:000488a0       ?fetchResultsPostContactCallbacks@NpScene@physx@@AAEXXZ 100498a0 f   NpScene.obj
 0001:00048af0       ?updateScbStateAndSetupSq@NpScene@physx@@AAEXABVPxRigidActor@2@AAVActor@Scb@2@AAVNpShapeManager@2@_NPBVPxBounds3@2@3@Z 10049af0 f   NpScene.obj
 0001:00048bd0       ??$allocArrayBuffer@PAVShape@Scb@physx@@@Scene@Scb@physx@@AAEPAPAVShape@12@AAV?$Array@PAVShape@Scb@physx@@VNamedAllocator@shdfnd@3@@shdfnd@2@IAAI@Z 10049bd0 f i NpScene.obj
 0001:00048c10       ??0?$SyncT@V?$ReflectionAllocator@VSyncImpl@shdfnd@physx@@@shdfnd@physx@@@shdfnd@physx@@QAE@ABV?$ReflectionAllocator@VSyncImpl@shdfnd@physx@@@12@@Z 10049c10 f i NpScene.obj
 0001:00048c90       ??0PxBounds3@physx@@QAE@XZ 10049c90 f i NpScene.obj
 0001:00048ca0       ??1?$Array@IVNamedAllocator@shdfnd@physx@@@shdfnd@physx@@QAE@XZ 10049ca0 f i NpScene.obj
 0001:00048cc0       ??1?$Array@PAVInteraction@Sc@physx@@VNamedAllocator@shdfnd@3@@shdfnd@physx@@QAE@XZ 10049cc0 f i NpScene.obj
 0001:00048ce0       ??1?$PoolBase@U?$Block@E$0BAA@@Scene@Sc@physx@@VNamedAllocator@shdfnd@4@@shdfnd@physx@@QAE@XZ 10049ce0 f i NpScene.obj
 0001:00048e90       ??1?$PoolBase@U?$Block@E$0BIA@@Scene@Sc@physx@@VNamedAllocator@shdfnd@4@@shdfnd@physx@@QAE@XZ 10049e90 f i NpScene.obj
 0001:00049040       ??1?$PoolBase@U?$Block@E$0IA@@Scene@Sc@physx@@VNamedAllocator@shdfnd@4@@shdfnd@physx@@QAE@XZ 1004a040 f i NpScene.obj
 0001:000491f0       ??1?$PoolBase@U?$Block@PAX$07@Scene@Sc@physx@@VNamedAllocator@shdfnd@4@@shdfnd@physx@@QAE@XZ 1004a1f0 f i NpScene.obj
 0001:000493a0       ??1?$PoolBase@U?$Block@PAX$0BA@@Scene@Sc@physx@@VNamedAllocator@shdfnd@4@@shdfnd@physx@@QAE@XZ 1004a3a0 f i NpScene.obj
 0001:00049550       ??1?$PoolBase@U?$Block@PAX$0CA@@Scene@Sc@physx@@VNamedAllocator@shdfnd@4@@shdfnd@physx@@QAE@XZ 1004a550 f i NpScene.obj
 0001:00049700       ??1FanoutTask@Cm@physx@@UAE@XZ 1004a700 f i NpScene.obj
 0001:000497a0       ??1FlushPool@Cm@physx@@QAE@XZ 1004a7a0 f i NpScene.obj
 0001:00049810       ??1NpSceneAccessor@physx@@UAE@XZ 1004a810 f i NpScene.obj
 0001:00049820       ??1PvdSceneQueryCollector@Vd@physx@@QAE@XZ 1004a820 f i NpScene.obj
 0001:00049960       ??1PxBaseTask@physx@@UAE@XZ 1004a960 f i NpScene.obj
 0001:00049970       ??1PxLightCpuTask@physx@@UAE@XZ 1004a970 f i NpScene.obj
 0001:00049980       ??1PxRenderBuffer@physx@@UAE@XZ 1004a980 f i NpScene.obj
 0001:00049990       ??1PxScene@physx@@MAE@XZ   1004a990 f i NpScene.obj
 0001:000499a0       ??1RenderBuffer@Cm@physx@@UAE@XZ 1004a9a0 f i NpScene.obj
 0001:00049a60       ??1Scene@Sc@physx@@QAE@XZ  1004aa60 f i NpScene.obj
 0001:0004a4d0       ??1Scene@Scb@physx@@QAE@XZ 1004b4d0 f i NpScene.obj
 0001:0004a670       ??1SqRefFinder@Sc@physx@@UAE@XZ 1004b670 f i NpScene.obj
 0001:0004a680       ??_E?$DelegateTask@VNpScene@physx@@$H?executeAdvance@12@QAEXPAVPxBaseTask@2@@ZA@@Cm@physx@@UAEPAXI@Z 1004b680 f i NpScene.obj
 0001:0004a680       ??_G?$DelegateTask@VNpScene@physx@@$H?executeAdvance@12@QAEXPAVPxBaseTask@2@@ZA@@Cm@physx@@UAEPAXI@Z 1004b680 f i NpScene.obj
 0001:0004a6c0       ??_G?$DelegateTask@VNpScene@physx@@$H?executeCollide@12@QAEXPAVPxBaseTask@2@@ZA@@Cm@physx@@UAEPAXI@Z 1004b6c0 f i NpScene.obj
 0001:0004a6c0       ??_E?$DelegateTask@VNpScene@physx@@$H?executeCollide@12@QAEXPAVPxBaseTask@2@@ZA@@Cm@physx@@UAEPAXI@Z 1004b6c0 f i NpScene.obj
 0001:0004a700       ??_E?$DelegateTask@VNpScene@physx@@$H?executeScene@12@QAEXPAVPxBaseTask@2@@ZA@@Cm@physx@@UAEPAXI@Z 1004b700 f i NpScene.obj
 0001:0004a700       ??_G?$DelegateTask@VNpScene@physx@@$H?executeScene@12@QAEXPAVPxBaseTask@2@@ZA@@Cm@physx@@UAEPAXI@Z 1004b700 f i NpScene.obj
 0001:0004a740       ??_E?$DelegateTask@VNpSceneQueries@physx@@$1?sceneQueriesDynamicPrunerUpdate@12@QAEXPAVPxBaseTask@2@@Z@Cm@physx@@UAEPAXI@Z 1004b740 f i NpScene.obj
 0001:0004a740       ??_G?$DelegateTask@VNpSceneQueries@physx@@$1?sceneQueriesDynamicPrunerUpdate@12@QAEXPAVPxBaseTask@2@@Z@Cm@physx@@UAEPAXI@Z 1004b740 f i NpScene.obj
 0001:0004a780       ??_G?$DelegateTask@VNpSceneQueries@physx@@$1?sceneQueriesStaticPrunerUpdate@12@QAEXPAVPxBaseTask@2@@Z@Cm@physx@@UAEPAXI@Z 1004b780 f i NpScene.obj
 0001:0004a780       ??_E?$DelegateTask@VNpSceneQueries@physx@@$1?sceneQueriesStaticPrunerUpdate@12@QAEXPAVPxBaseTask@2@@Z@Cm@physx@@UAEPAXI@Z 1004b780 f i NpScene.obj
 0001:0004a7c0       ??_GNpContactCallbackTask@physx@@UAEPAXI@Z 1004b7c0 f i NpScene.obj
 0001:0004a7c0       ??_ENpContactCallbackTask@physx@@UAEPAXI@Z 1004b7c0 f i NpScene.obj
 0001:0004a7f0       ??_ENpScene@physx@@UAEPAXI@Z 1004b7f0 f i NpScene.obj
 0001:0004a7f0       ??_GNpScene@physx@@UAEPAXI@Z 1004b7f0 f i NpScene.obj
 0001:0004a830       ??_ENpSceneAccessor@physx@@UAEPAXI@Z 1004b830 f i NpScene.obj
 0001:0004a830       ??_GNpSceneAccessor@physx@@UAEPAXI@Z 1004b830 f i NpScene.obj
 0001:0004a860       ??_GNpSceneQueries@physx@@UAEPAXI@Z 1004b860 f i NpScene.obj
 0001:0004a860       ??_ENpSceneQueries@physx@@UAEPAXI@Z 1004b860 f i NpScene.obj
 0001:0004a890       ??_EPxBaseTask@physx@@UAEPAXI@Z 1004b890 f i NpScene.obj
 0001:0004a890       ??_GPxBaseTask@physx@@UAEPAXI@Z 1004b890 f i NpScene.obj
 0001:0004a8c0       ??_GPxLightCpuTask@physx@@UAEPAXI@Z 1004b8c0 f i NpScene.obj
 0001:0004a8c0       ??_EPxLightCpuTask@physx@@UAEPAXI@Z 1004b8c0 f i NpScene.obj
 0001:0004a8f0       ??_EPxRenderBuffer@physx@@UAEPAXI@Z 1004b8f0 f i NpScene.obj
 0001:0004a8f0       ??_GPxRenderBuffer@physx@@UAEPAXI@Z 1004b8f0 f i NpScene.obj
 0001:0004a920       ??_GPxScene@physx@@MAEPAXI@Z 1004b920 f i NpScene.obj
 0001:0004a920       ??_EPxScene@physx@@MAEPAXI@Z 1004b920 f i NpScene.obj
 0001:0004a950       ??_GRenderBuffer@Cm@physx@@UAEPAXI@Z 1004b950 f i NpScene.obj
 0001:0004a950       ??_ERenderBuffer@Cm@physx@@UAEPAXI@Z 1004b950 f i NpScene.obj
 0001:0004a990       ??_GSceneCompletion@NpScene@physx@@UAEPAXI@Z 1004b990 f i NpScene.obj
 0001:0004a990       ??_ESceneCompletion@NpScene@physx@@UAEPAXI@Z 1004b990 f i NpScene.obj
 0001:0004a9c0       ??_GSqRefFinder@@UAEPAXI@Z 1004b9c0 f i NpScene.obj
 0001:0004a9c0       ??_ESqRefFinder@@UAEPAXI@Z 1004b9c0 f i NpScene.obj
 0001:0004a9f0       ??_GSqRefFinder@Sc@physx@@UAEPAXI@Z 1004b9f0 f i NpScene.obj
 0001:0004a9f0       ??_ESqRefFinder@Sc@physx@@UAEPAXI@Z 1004b9f0 f i NpScene.obj
 0001:0004aa20       ??_ETask@Cm@physx@@UAEPAXI@Z 1004ba20 f i NpScene.obj
 0001:0004aa20       ??_GTask@Cm@physx@@UAEPAXI@Z 1004ba20 f i NpScene.obj
 0001:0004aa50       ?addReference@PxLightCpuTask@physx@@UAEXXZ 1004ba50 f i NpScene.obj
 0001:0004aa60       ?allocate@?$Array@VPxBounds3@physx@@V?$InlineAllocator@$0MA@VNamedAllocator@shdfnd@physx@@@shdfnd@2@@shdfnd@physx@@IAEPAVPxBounds3@3@I@Z 1004ba60 f i NpScene.obj
 0001:0004aad0       ?append@RenderBuffer@Cm@physx@@UAEXABVPxRenderBuffer@3@@Z 1004bad0 f i NpScene.obj
 0001:0004aee0       ?clear@RenderBuffer@Cm@physx@@UAEXXZ 1004bee0 f i NpScene.obj
 0001:0004af10       ?copy@?$Array@UPxDebugPoint@physx@@VNamedAllocator@shdfnd@2@@shdfnd@physx@@KAXPAUPxDebugPoint@3@0PBU43@@Z 1004bf10 f i NpScene.obj
 0001:0004af60       ?copy@?$Array@UPxDebugText@physx@@VNamedAllocator@shdfnd@2@@shdfnd@physx@@KAXPAUPxDebugText@3@0PBU43@@Z 1004bf60 f i NpScene.obj
 0001:0004afc0       ?copy@?$Array@UPxDebugTriangle@physx@@VNamedAllocator@shdfnd@2@@shdfnd@physx@@KAXPAUPxDebugTriangle@3@0PBU43@@Z 1004bfc0 f i NpScene.obj
 0001:0004b040       ?create@?$HashBase@PAVPxAggregate@physx@@PAV12@U?$Hash@PAVPxAggregate@physx@@@shdfnd@2@UGetKey@?$HashSetBase@PAVPxAggregate@physx@@U?$Hash@PAVPxAggregate@physx@@@shdfnd@2@VNonTrackingAllocator@42@$00@internal@42@VNonTrackingAllocator@42@$00@internal@shdfnd@physx@@QAEPAPAVPxAggregate@4@ABQAV54@AA_N@Z 1004c040 f i NpScene.obj
 0001:0004b170       ?create@?$HashBase@PAVPxArticulationBase@physx@@PAV12@U?$Hash@PAVPxArticulationBase@physx@@@shdfnd@2@UGetKey@?$HashSetBase@PAVPxArticulationBase@physx@@U?$Hash@PAVPxArticulationBase@physx@@@shdfnd@2@VNonTrackingAllocator@42@$00@internal@42@VNonTrackingAllocator@42@$00@internal@shdfnd@physx@@QAEPAPAVPxArticulationBase@4@ABQAV54@AA_N@Z 1004c170 f i NpScene.obj
 0001:0004b2a0       ?find@SqRefFinder@@UAEIPBVPxRigidBody@physx@@PBVPxShape@3@@Z 1004c2a0 f i NpScene.obj
 0001:0004b2c0       ?flush@NpScene@physx@@UAEX_N@Z 1004c2c0 f i NpScene.obj
 0001:0004b2d0       ?getCudaContextManager@NpScene@physx@@UAEPAVPxCudaContextManager@2@XZ 1004c2d0 f i NpScene.obj
 0001:0004b2e0       ?getLines@RenderBuffer@Cm@physx@@UBEPBUPxDebugLine@3@XZ 1004c2e0 f i NpScene.obj
 0001:0004b2f0       ?getName@?$DelegateTask@VNpScene@physx@@$H?executeAdvance@12@QAEXPAVPxBaseTask@2@@ZA@@Cm@physx@@UBEPBDXZ 1004c2f0 f i NpScene.obj
 0001:0004b300       ?getName@?$DelegateTask@VNpScene@physx@@$H?executeCollide@12@QAEXPAVPxBaseTask@2@@ZA@@Cm@physx@@UBEPBDXZ 1004c300 f i NpScene.obj
 0001:0004b310       ?getName@?$DelegateTask@VNpScene@physx@@$H?executeScene@12@QAEXPAVPxBaseTask@2@@ZA@@Cm@physx@@UBEPBDXZ 1004c310 f i NpScene.obj
 0001:0004b320       ?getName@?$DelegateTask@VNpSceneQueries@physx@@$1?sceneQueriesDynamicPrunerUpdate@12@QAEXPAVPxBaseTask@2@@Z@Cm@physx@@UBEPBDXZ 1004c320 f i NpScene.obj
 0001:0004b330       ?getName@?$DelegateTask@VNpSceneQueries@physx@@$1?sceneQueriesStaticPrunerUpdate@12@QAEXPAVPxBaseTask@2@@Z@Cm@physx@@UBEPBDXZ 1004c330 f i NpScene.obj
 0001:0004b340       ?getName@NpContactCallbackTask@physx@@UBEPBDXZ 1004c340 f i NpScene.obj
 0001:0004b350       ?getName@SceneCompletion@NpScene@physx@@UBEPBDXZ 1004c350 f i NpScene.obj
 0001:0004b360       ?getNbLines@RenderBuffer@Cm@physx@@UBEIXZ 1004c360 f i NpScene.obj
 0001:0004b370       ?getNbPoints@RenderBuffer@Cm@physx@@UBEIXZ 1004c370 f i NpScene.obj
 0001:0004b380       ?getNbTexts@RenderBuffer@Cm@physx@@UBEIXZ 1004c380 f i NpScene.obj
 0001:0004b390       ?getNbTriangles@RenderBuffer@Cm@physx@@UBEIXZ 1004c390 f i NpScene.obj
 0001:0004b3a0       ?getPoints@RenderBuffer@Cm@physx@@UBEPBUPxDebugPoint@3@XZ 1004c3a0 f i NpScene.obj
 0001:0004b3b0       ?getReference@PxLightCpuTask@physx@@UBEHXZ 1004c3b0 f i NpScene.obj
 0001:0004b3c0       ?getTaskManager@NpScene@physx@@UAEPAVPxTaskManager@2@XZ 1004c3c0 f i NpScene.obj
 0001:0004b3d0       ?getTaskManager@NpScene@physx@@UBEPAVPxTaskManager@2@XZ 1004c3d0 f i NpScene.obj
 0001:0004b3e0       ?getTexts@RenderBuffer@Cm@physx@@UBEPBUPxDebugText@3@XZ 1004c3e0 f i NpScene.obj
 0001:0004b3f0       ?getTriangles@RenderBuffer@Cm@physx@@UBEPBUPxDebugTriangle@3@XZ 1004c3f0 f i NpScene.obj
 0001:0004b400       ?growAndPushBack@?$Array@PAEVNamedAllocator@shdfnd@physx@@@shdfnd@physx@@IAEAAPAEABQAE@Z 1004c400 f i NpScene.obj
 0001:0004b4b0       ?growAndPushBack@?$Array@PAVNpBatchQuery@physx@@VNamedAllocator@shdfnd@2@@shdfnd@physx@@IAEAAPAVNpBatchQuery@3@ABQAV43@@Z 1004c4b0 f i NpScene.obj
 0001:0004b560       ?growAndPushBack@?$Array@PAVPxActor@physx@@VNamedAllocator@shdfnd@2@@shdfnd@physx@@IAEAAPAVPxActor@3@ABQAV43@@Z 1004c560 f i NpScene.obj
 0001:0004b610       ?growAndPushBack@?$Array@PAVPxRigidActor@physx@@VNamedAllocator@shdfnd@2@@shdfnd@physx@@IAEAAPAVPxRigidActor@3@ABQAV43@@Z 1004c610 f i NpScene.obj
 0001:0004b6c0       ?growAndPushBack@?$Array@UPxDebugLine@physx@@VNamedAllocator@shdfnd@2@@shdfnd@physx@@IAEAAUPxDebugLine@3@ABU43@@Z 1004c6c0 f i NpScene.obj
 0001:0004b790       ?growAndPushBack@?$Array@UPxDebugPoint@physx@@VNamedAllocator@shdfnd@2@@shdfnd@physx@@IAEAAUPxDebugPoint@3@ABU43@@Z 1004c790 f i NpScene.obj
 0001:0004b840       ?growAndPushBack@?$Array@UPxDebugText@physx@@VNamedAllocator@shdfnd@2@@shdfnd@physx@@IAEAAUPxDebugText@3@ABU43@@Z 1004c840 f i NpScene.obj
 0001:0004b910       ?growAndPushBack@?$Array@UPxDebugTriangle@physx@@VNamedAllocator@shdfnd@2@@shdfnd@physx@@IAEAAUPxDebugTriangle@3@ABU43@@Z 1004c910 f i NpScene.obj
 0001:0004ba00       ?isAddedShape@RigidObject@Scb@physx@@QAE_NAAVShape@23@@Z 1004ca00 f i NpScene.obj
 0001:0004ba70       ?recreate@?$Array@GVNamedAllocator@shdfnd@physx@@@shdfnd@physx@@IAEXI@Z 1004ca70 f i NpScene.obj
 0001:0004baf0       ?recreate@?$Array@PAVActor@Scb@physx@@VNamedAllocator@shdfnd@3@@shdfnd@physx@@IAEXI@Z 1004caf0 f i NpScene.obj
 0001:0004bb70       ?recreate@?$Array@PAVPxActor@physx@@VNamedAllocator@shdfnd@2@@shdfnd@physx@@IAEXI@Z 1004cb70 f i NpScene.obj
 0001:0004bbf0       ?recreate@?$Array@PAVPxRigidActor@physx@@VNamedAllocator@shdfnd@2@@shdfnd@physx@@IAEXI@Z 1004cbf0 f i NpScene.obj
 0001:0004bc70       ?recreate@?$Array@PAVShape@Scb@physx@@VNamedAllocator@shdfnd@3@@shdfnd@physx@@IAEXI@Z 1004cc70 f i NpScene.obj
 0001:0004bcf0       ?recreate@?$Array@UPxDebugPoint@physx@@VNamedAllocator@shdfnd@2@@shdfnd@physx@@IAEXI@Z 1004ccf0 f i NpScene.obj
 0001:0004bd60       ?recreate@?$Array@UPxDebugText@physx@@VNamedAllocator@shdfnd@2@@shdfnd@physx@@IAEXI@Z 1004cd60 f i NpScene.obj
 0001:0004bde0       ?recreate@?$Array@UPxDebugTriangle@physx@@VNamedAllocator@shdfnd@2@@shdfnd@physx@@IAEXI@Z 1004cde0 f i NpScene.obj
 0001:0004be60       ?recreate@?$Array@VPxBounds3@physx@@V?$InlineAllocator@$0MA@VNamedAllocator@shdfnd@physx@@@shdfnd@2@@shdfnd@physx@@IAEXI@Z 1004ce60 f i NpScene.obj
 0001:0004bf30       ?release@PxLightCpuTask@physx@@UAEXXZ 1004cf30 f i NpScene.obj
 0001:0004bf40       ?release@SceneCompletion@NpScene@physx@@UAEXXZ 1004cf40 f i NpScene.obj
 0001:0004bf60       ?removeReference@PxLightCpuTask@physx@@UAEXXZ 1004cf60 f i NpScene.obj
 0001:0004bf70       ?reserveInternal@?$HashBase@PAVPxAggregate@physx@@PAV12@U?$Hash@PAVPxAggregate@physx@@@shdfnd@2@UGetKey@?$HashSetBase@PAVPxAggregate@physx@@U?$Hash@PAVPxAggregate@physx@@@shdfnd@2@VNonTrackingAllocator@42@$00@internal@42@VNonTrackingAllocator@42@$00@internal@shdfnd@physx@@AAEXI@Z 1004cf70 f i NpScene.obj
 0001:0004c100       ?reserveInternal@?$HashBase@PAVPxArticulationBase@physx@@PAV12@U?$Hash@PAVPxArticulationBase@physx@@@shdfnd@2@UGetKey@?$HashSetBase@PAVPxArticulationBase@physx@@U?$Hash@PAVPxArticulationBase@physx@@@shdfnd@2@VNonTrackingAllocator@42@$00@internal@42@VNonTrackingAllocator@42@$00@internal@shdfnd@physx@@AAEXI@Z 1004d100 f i NpScene.obj
 0001:0004c290       ?resetFiltering@?$NpRigidActorTemplate@VPxArticulationLink@physx@@@physx@@QAE_NAAVRigidObject@Scb@2@PBQAVPxShape@2@I@Z 1004d290 f i NpScene.obj
 0001:0004c4e0       ?resetFiltering@?$NpRigidActorTemplate@VPxRigidDynamic@physx@@@physx@@QAE_NAAVRigidObject@Scb@2@PBQAVPxShape@2@I@Z 1004d4e0 f i NpScene.obj
 0001:0004c730       ?resetFiltering@?$NpRigidActorTemplate@VPxRigidStatic@physx@@@physx@@QAE_NAAVRigidObject@Scb@2@PBQAVPxShape@2@I@Z 1004d730 f i NpScene.obj
 0001:0004c980       ?resetFiltering@RigidObject@Scb@physx@@QAEXPBQAVShape@23@I@Z 1004d980 f i NpScene.obj
 0001:0004cb90       ?resize@?$Array@GVNamedAllocator@shdfnd@physx@@@shdfnd@physx@@QAEXIABG@Z 1004db90 f i NpScene.obj
 0001:0004cc50       ?resize@?$Array@PAVActor@Scb@physx@@VNamedAllocator@shdfnd@3@@shdfnd@physx@@QAEXIABQAVActor@Scb@3@@Z 1004dc50 f i NpScene.obj
 0001:0004ccf0       ?resize@?$Array@PAVShape@Scb@physx@@VNamedAllocator@shdfnd@3@@shdfnd@physx@@QAEXIABQAVShape@Scb@3@@Z 1004dcf0 f i NpScene.obj
 0001:0004cd90       ?resizeUninitialized@?$Array@VPxBounds3@physx@@V?$InlineAllocator@$0MA@VNamedAllocator@shdfnd@physx@@@shdfnd@2@@shdfnd@physx@@QAEXI@Z 1004dd90 f i NpScene.obj
 0001:0004cdc0       ?run@Task@Cm@physx@@UAEXXZ 1004ddc0 f i NpScene.obj
 0001:0004cdf0       ?runInternal@?$DelegateTask@VNpScene@physx@@$H?executeAdvance@12@QAEXPAVPxBaseTask@2@@ZA@@Cm@physx@@UAEXXZ 1004ddf0 f i NpScene.obj
 0001:0004ce10       ?runInternal@?$DelegateTask@VNpScene@physx@@$H?executeCollide@12@QAEXPAVPxBaseTask@2@@ZA@@Cm@physx@@UAEXXZ 1004de10 f i NpScene.obj
 0001:0004ce30       ?runInternal@?$DelegateTask@VNpScene@physx@@$H?executeScene@12@QAEXPAVPxBaseTask@2@@ZA@@Cm@physx@@UAEXXZ 1004de30 f i NpScene.obj
 0001:0004ce50       ?runInternal@?$DelegateTask@VNpSceneQueries@physx@@$1?sceneQueriesDynamicPrunerUpdate@12@QAEXPAVPxBaseTask@2@@Z@Cm@physx@@UAEXXZ 1004de50 f i NpScene.obj
 0001:0004ce60       ?runInternal@?$DelegateTask@VNpSceneQueries@physx@@$1?sceneQueriesStaticPrunerUpdate@12@QAEXPAVPxBaseTask@2@@Z@Cm@physx@@UAEXXZ 1004de60 f i NpScene.obj
 0001:0004ce70       ?runInternal@SceneCompletion@NpScene@physx@@UAEXXZ 1004de70 f i NpScene.obj
 0001:0004ce80       ?shift@RenderBuffer@Cm@physx@@QAEXABVPxVec3@3@@Z 1004de80 f i NpScene.obj
 0001:0004d040       ?raycast@NpSceneQueries@physx@@UBE_NABVPxVec3@2@0MAAU?$PxHitCallback@UPxRaycastHit@physx@@@2@V?$PxFlags@W4Enum@PxHitFlag@physx@@G@2@ABUPxQueryFilterData@2@PAVPxQueryFilterCallback@2@PBUPxQueryCache@2@@Z 1004e040 f   NpSceneQueries.obj
 0001:0004d170       ?sweep@NpSceneQueries@physx@@UBE_NABVPxGeometry@2@ABVPxTransform@2@ABVPxVec3@2@MAAU?$PxHitCallback@UPxSweepHit@physx@@@2@V?$PxFlags@W4Enum@PxHitFlag@physx@@G@2@ABUPxQueryFilterData@2@PAVPxQueryFilterCallback@2@PBUPxQueryCache@2@M@Z 1004e170 f   NpSceneQueries.obj
 0001:0004d3a0       ?overlap@NpSceneQueries@physx@@UBE_NABVPxGeometry@2@ABVPxTransform@2@AAU?$PxHitCallback@UPxOverlapHit@physx@@@2@ABUPxQueryFilterData@2@PAVPxQueryFilterCallback@2@@Z 1004e3a0 f   NpSceneQueries.obj
 0001:0004d4b0       ?sceneQueriesStaticPrunerUpdate@NpSceneQueries@physx@@QAEXPAVPxBaseTask@2@@Z 1004e4b0 f   NpSceneQueries.obj
 0001:0004d520       ?sceneQueriesDynamicPrunerUpdate@NpSceneQueries@physx@@QAEXPAVPxBaseTask@2@@Z 1004e520 f   NpSceneQueries.obj
 0001:0004d710       ??$multiQuery@UPxOverlapHit@physx@@@NpSceneQueries@physx@@QBE_NABUMultiQueryInput@1@AAU?$PxHitCallback@UPxOverlapHit@physx@@@1@V?$PxFlags@W4Enum@PxHitFlag@physx@@G@1@PBUPxQueryCache@1@ABUPxQueryFilterData@1@PAVPxQueryFilterCallback@1@PAUBatchQueryFilterData@1@@Z 1004e710 f i NpSceneQueries.obj
 0001:0004db70       ??$multiQuery@UPxRaycastHit@physx@@@NpSceneQueries@physx@@QBE_NABUMultiQueryInput@1@AAU?$PxHitCallback@UPxRaycastHit@physx@@@1@V?$PxFlags@W4Enum@PxHitFlag@physx@@G@1@PBUPxQueryCache@1@ABUPxQueryFilterData@1@PAVPxQueryFilterCallback@1@PAUBatchQueryFilterData@1@@Z 1004eb70 f i NpSceneQueries.obj
 0001:0004e240       ??$multiQuery@UPxSweepHit@physx@@@NpSceneQueries@physx@@QBE_NABUMultiQueryInput@1@AAU?$PxHitCallback@UPxSweepHit@physx@@@1@V?$PxFlags@W4Enum@PxHitFlag@physx@@G@1@PBUPxQueryCache@1@ABUPxQueryFilterData@1@PAVPxQueryFilterCallback@1@PAUBatchQueryFilterData@1@@Z 1004f240 f i NpSceneQueries.obj
 0001:0004ea10       ??0Capsule@Gu@physx@@QAE@ABVPxVec3@2@0M@Z 1004fa10 f i NpSceneQueries.obj
 0001:0004ea50       ??0PxOverlapHit@physx@@QAE@XZ 1004fa50 f i NpSceneQueries.obj
 0001:0004ea70       ??0PxRaycastHit@physx@@QAE@ABU01@@Z 1004fa70 f i NpSceneQueries.obj
 0001:0004eae0       ??0PxRaycastHit@physx@@QAE@XZ 1004fae0 f i NpSceneQueries.obj
 0001:0004eb20       ??0PxSweepHit@physx@@QAE@XZ 1004fb20 f i NpSceneQueries.obj
 0001:0004eb60       ??1?$CapturePvdOnReturn@UPxOverlapHit@physx@@@@UAE@XZ 1004fb60 f i NpSceneQueries.obj
 0001:0004ec90       ??1?$CapturePvdOnReturn@UPxRaycastHit@physx@@@@UAE@XZ 1004fc90 f i NpSceneQueries.obj
 0001:0004edd0       ??1?$CapturePvdOnReturn@UPxSweepHit@physx@@@@UAE@XZ 1004fdd0 f i NpSceneQueries.obj
 0001:0004efb0       ??1PrunerCallback@Sq@physx@@UAE@XZ 1004ffb0 f i NpSceneQueries.obj
 0001:0004efc0       ??4PxBounds3@physx@@QAEAAV01@ABV01@@Z 1004ffc0 f i NpSceneQueries.obj
 0001:0004eff0       ??4PxRaycastHit@physx@@QAEAAU01@ABU01@@Z 1004fff0 f i NpSceneQueries.obj
 0001:0004f060       ??_G?$CapturePvdOnReturn@UPxOverlapHit@physx@@@@UAEPAXI@Z 10050060 f i NpSceneQueries.obj
 0001:0004f060       ??_E?$CapturePvdOnReturn@UPxOverlapHit@physx@@@@UAEPAXI@Z 10050060 f i NpSceneQueries.obj
 0001:0004f080       ??_E?$CapturePvdOnReturn@UPxRaycastHit@physx@@@@UAEPAXI@Z 10050080 f i NpSceneQueries.obj
 0001:0004f080       ??_G?$CapturePvdOnReturn@UPxRaycastHit@physx@@@@UAEPAXI@Z 10050080 f i NpSceneQueries.obj
 0001:0004f0b0       ??_G?$CapturePvdOnReturn@UPxSweepHit@physx@@@@UAEPAXI@Z 100500b0 f i NpSceneQueries.obj
 0001:0004f0b0       ??_E?$CapturePvdOnReturn@UPxSweepHit@physx@@@@UAEPAXI@Z 100500b0 f i NpSceneQueries.obj
 0001:0004f0d0       ??_E?$MultiQueryCallback@UPxOverlapHit@physx@@@@UAEPAXI@Z 100500d0 f i NpSceneQueries.obj
 0001:0004f0d0       ??_G?$MultiQueryCallback@UPxOverlapHit@physx@@@@UAEPAXI@Z 100500d0 f i NpSceneQueries.obj
 0001:0004f100       ??_G?$MultiQueryCallback@UPxRaycastHit@physx@@@@UAEPAXI@Z 10050100 f i NpSceneQueries.obj
 0001:0004f100       ??_E?$MultiQueryCallback@UPxRaycastHit@physx@@@@UAEPAXI@Z 10050100 f i NpSceneQueries.obj
 0001:0004f130       ??_G?$MultiQueryCallback@UPxSweepHit@physx@@@@UAEPAXI@Z 10050130 f i NpSceneQueries.obj
 0001:0004f130       ??_E?$MultiQueryCallback@UPxSweepHit@physx@@@@UAEPAXI@Z 10050130 f i NpSceneQueries.obj
 0001:0004f160       ??_GPrunerCallback@Sq@physx@@UAEPAXI@Z 10050160 f i NpSceneQueries.obj
 0001:0004f160       ??_EPrunerCallback@Sq@physx@@UAEPAXI@Z 10050160 f i NpSceneQueries.obj
 0001:0004f190       ?growAndPushBack@?$Array@UPxOverlapHit@physx@@VNamedAllocator@shdfnd@2@@shdfnd@physx@@IAEAAUPxOverlapHit@3@ABU43@@Z 10050190 f i NpSceneQueries.obj
 0001:0004f240       ?growAndPushBack@?$Array@UPxRaycastHit@physx@@VNamedAllocator@shdfnd@2@@shdfnd@physx@@IAEAAUPxRaycastHit@3@ABU43@@Z 10050240 f i NpSceneQueries.obj
 0001:0004f370       ?growAndPushBack@?$Array@UPxSweepHit@physx@@VNamedAllocator@shdfnd@2@@shdfnd@physx@@IAEAAUPxSweepHit@3@ABU43@@Z 10050370 f i NpSceneQueries.obj
 0001:0004f4e0       ?invoke@?$MultiQueryCallback@UPxOverlapHit@physx@@@@UAE_NAAMABUPrunerPayload@Sq@physx@@@Z 100504e0 f i NpSceneQueries.obj
 0001:0004f9c0       ?invoke@?$MultiQueryCallback@UPxRaycastHit@physx@@@@UAE_NAAMABUPrunerPayload@Sq@physx@@@Z 100509c0 f i NpSceneQueries.obj
 0001:000501c0       ?invoke@?$MultiQueryCallback@UPxSweepHit@physx@@@@UAE_NAAMABUPrunerPayload@Sq@physx@@@Z 100511c0 f i NpSceneQueries.obj
 0001:00051000       ?processTouches@?$CapturePvdOnReturn@UPxOverlapHit@physx@@@@UAE_NPBUPxOverlapHit@physx@@I@Z 10052000 f i NpSceneQueries.obj
 0001:00051060       ?processTouches@?$CapturePvdOnReturn@UPxRaycastHit@physx@@@@UAE_NPBUPxRaycastHit@physx@@I@Z 10052060 f i NpSceneQueries.obj
 0001:000510c0       ?processTouches@?$CapturePvdOnReturn@UPxSweepHit@physx@@@@UAE_NPBUPxSweepHit@physx@@I@Z 100520c0 f i NpSceneQueries.obj
 0001:00051170       _PxRegisterPhysicsSerializers 10052170 f   NpSerializerAdapter.obj
 0001:00051520       _PxUnregisterPhysicsSerializers 10052520 f   NpSerializerAdapter.obj
 0001:000517f0       ??1PxProcessPxBaseCallback@physx@@UAE@XZ 100527f0 f i NpSerializerAdapter.obj
 0001:00051800       ??1PxSerializer@physx@@UAE@XZ 10052800 f i NpSerializerAdapter.obj
 0001:00051810       ??_E?$PxSerializerDefaultAdapter@VBV4TriangleMesh@Gu@physx@@@physx@@UAEPAXI@Z 10052810 f i NpSerializerAdapter.obj
 0001:00051810       ??_G?$PxSerializerDefaultAdapter@VBV4TriangleMesh@Gu@physx@@@physx@@UAEPAXI@Z 10052810 f i NpSerializerAdapter.obj
 0001:00051840       ??_G?$PxSerializerDefaultAdapter@VConvexMesh@Gu@physx@@@physx@@UAEPAXI@Z 10052840 f i NpSerializerAdapter.obj
 0001:00051840       ??_E?$PxSerializerDefaultAdapter@VConvexMesh@Gu@physx@@@physx@@UAEPAXI@Z 10052840 f i NpSerializerAdapter.obj
 0001:00051870       ??_G?$PxSerializerDefaultAdapter@VHeightField@Gu@physx@@@physx@@UAEPAXI@Z 10052870 f i NpSerializerAdapter.obj
 0001:00051870       ??_E?$PxSerializerDefaultAdapter@VHeightField@Gu@physx@@@physx@@UAEPAXI@Z 10052870 f i NpSerializerAdapter.obj
 0001:000518a0       ??_G?$PxSerializerDefaultAdapter@VNpAggregate@physx@@@physx@@UAEPAXI@Z 100528a0 f i NpSerializerAdapter.obj
 0001:000518a0       ??_E?$PxSerializerDefaultAdapter@VNpAggregate@physx@@@physx@@UAEPAXI@Z 100528a0 f i NpSerializerAdapter.obj
 0001:000518d0       ??_E?$PxSerializerDefaultAdapter@VNpArticulation@physx@@@physx@@UAEPAXI@Z 100528d0 f i NpSerializerAdapter.obj
 0001:000518d0       ??_G?$PxSerializerDefaultAdapter@VNpArticulation@physx@@@physx@@UAEPAXI@Z 100528d0 f i NpSerializerAdapter.obj
 0001:00051900       ??_E?$PxSerializerDefaultAdapter@VNpArticulationJoint@physx@@@physx@@UAEPAXI@Z 10052900 f i NpSerializerAdapter.obj
 0001:00051900       ??_G?$PxSerializerDefaultAdapter@VNpArticulationJoint@physx@@@physx@@UAEPAXI@Z 10052900 f i NpSerializerAdapter.obj
 0001:00051930       ??_G?$PxSerializerDefaultAdapter@VNpArticulationJointReducedCoordinate@physx@@@physx@@UAEPAXI@Z 10052930 f i NpSerializerAdapter.obj
 0001:00051930       ??_E?$PxSerializerDefaultAdapter@VNpArticulationJointReducedCoordinate@physx@@@physx@@UAEPAXI@Z 10052930 f i NpSerializerAdapter.obj
 0001:00051960       ??_G?$PxSerializerDefaultAdapter@VNpArticulationLink@physx@@@physx@@UAEPAXI@Z 10052960 f i NpSerializerAdapter.obj
 0001:00051960       ??_E?$PxSerializerDefaultAdapter@VNpArticulationLink@physx@@@physx@@UAEPAXI@Z 10052960 f i NpSerializerAdapter.obj
 0001:00051990       ??_G?$PxSerializerDefaultAdapter@VNpArticulationReducedCoordinate@physx@@@physx@@UAEPAXI@Z 10052990 f i NpSerializerAdapter.obj
 0001:00051990       ??_E?$PxSerializerDefaultAdapter@VNpArticulationReducedCoordinate@physx@@@physx@@UAEPAXI@Z 10052990 f i NpSerializerAdapter.obj
 0001:000519c0       ??_E?$PxSerializerDefaultAdapter@VNpConstraint@physx@@@physx@@UAEPAXI@Z 100529c0 f i NpSerializerAdapter.obj
 0001:000519c0       ??_G?$PxSerializerDefaultAdapter@VNpConstraint@physx@@@physx@@UAEPAXI@Z 100529c0 f i NpSerializerAdapter.obj
 0001:000519f0       ??_G?$PxSerializerDefaultAdapter@VNpMaterial@physx@@@physx@@UAEPAXI@Z 100529f0 f i NpSerializerAdapter.obj
 0001:000519f0       ??_E?$PxSerializerDefaultAdapter@VNpMaterial@physx@@@physx@@UAEPAXI@Z 100529f0 f i NpSerializerAdapter.obj
 0001:00051a20       ??_G?$PxSerializerDefaultAdapter@VNpRigidDynamic@physx@@@physx@@UAEPAXI@Z 10052a20 f i NpSerializerAdapter.obj
 0001:00051a20       ??_E?$PxSerializerDefaultAdapter@VNpRigidDynamic@physx@@@physx@@UAEPAXI@Z 10052a20 f i NpSerializerAdapter.obj
 0001:00051a50       ??_E?$PxSerializerDefaultAdapter@VNpRigidStatic@physx@@@physx@@UAEPAXI@Z 10052a50 f i NpSerializerAdapter.obj
 0001:00051a50       ??_G?$PxSerializerDefaultAdapter@VNpRigidStatic@physx@@@physx@@UAEPAXI@Z 10052a50 f i NpSerializerAdapter.obj
 0001:00051a80       ??_E?$PxSerializerDefaultAdapter@VNpShape@physx@@@physx@@UAEPAXI@Z 10052a80 f i NpSerializerAdapter.obj
 0001:00051a80       ??_G?$PxSerializerDefaultAdapter@VNpShape@physx@@@physx@@UAEPAXI@Z 10052a80 f i NpSerializerAdapter.obj
 0001:00051ab0       ??_G?$PxSerializerDefaultAdapter@VPruningStructure@Sq@physx@@@physx@@UAEPAXI@Z 10052ab0 f i NpSerializerAdapter.obj
 0001:00051ab0       ??_E?$PxSerializerDefaultAdapter@VPruningStructure@Sq@physx@@@physx@@UAEPAXI@Z 10052ab0 f i NpSerializerAdapter.obj
 0001:00051ae0       ??_G?$PxSerializerDefaultAdapter@VRTreeTriangleMesh@Gu@physx@@@physx@@UAEPAXI@Z 10052ae0 f i NpSerializerAdapter.obj
 0001:00051ae0       ??_E?$PxSerializerDefaultAdapter@VRTreeTriangleMesh@Gu@physx@@@physx@@UAEPAXI@Z 10052ae0 f i NpSerializerAdapter.obj
 0001:00051b10       ??_EPxProcessPxBaseCallback@physx@@UAEPAXI@Z 10052b10 f i NpSerializerAdapter.obj
 0001:00051b10       ??_GPxProcessPxBaseCallback@physx@@UAEPAXI@Z 10052b10 f i NpSerializerAdapter.obj
 0001:00051b40       ??_GPxSerializer@physx@@UAEPAXI@Z 10052b40 f i NpSerializerAdapter.obj
 0001:00051b40       ??_EPxSerializer@physx@@UAEPAXI@Z 10052b40 f i NpSerializerAdapter.obj
 0001:00051b70       ??_GRequiresCallback@?1??registerReferences@?$PxSerializerDefaultAdapter@VBV4TriangleMesh@Gu@physx@@@physx@@UBEXAAVPxBase@3@AAVPxSerializationContext@3@@Z@UAEPAXI@Z 10052b70 f i NpSerializerAdapter.obj
 0001:00051b70       ??_ERequiresCallback@?1??registerReferences@?$PxSerializerDefaultAdapter@VBV4TriangleMesh@Gu@physx@@@physx@@UBEXAAVPxBase@3@AAVPxSerializationContext@3@@Z@UAEPAXI@Z 10052b70 f i NpSerializerAdapter.obj
 0001:00051ba0       ??_ERequiresCallback@?1??registerReferences@?$PxSerializerDefaultAdapter@VConvexMesh@Gu@physx@@@physx@@UBEXAAVPxBase@3@AAVPxSerializationContext@3@@Z@UAEPAXI@Z 10052ba0 f i NpSerializerAdapter.obj
 0001:00051ba0       ??_GRequiresCallback@?1??registerReferences@?$PxSerializerDefaultAdapter@VConvexMesh@Gu@physx@@@physx@@UBEXAAVPxBase@3@AAVPxSerializationContext@3@@Z@UAEPAXI@Z 10052ba0 f i NpSerializerAdapter.obj
 0001:00051bd0       ??_ERequiresCallback@?1??registerReferences@?$PxSerializerDefaultAdapter@VHeightField@Gu@physx@@@physx@@UBEXAAVPxBase@3@AAVPxSerializationContext@3@@Z@UAEPAXI@Z 10052bd0 f i NpSerializerAdapter.obj
 0001:00051bd0       ??_GRequiresCallback@?1??registerReferences@?$PxSerializerDefaultAdapter@VHeightField@Gu@physx@@@physx@@UBEXAAVPxBase@3@AAVPxSerializationContext@3@@Z@UAEPAXI@Z 10052bd0 f i NpSerializerAdapter.obj
 0001:00051c00       ??_ERequiresCallback@?1??registerReferences@?$PxSerializerDefaultAdapter@VNpAggregate@physx@@@physx@@UBEXAAVPxBase@3@AAVPxSerializationContext@3@@Z@UAEPAXI@Z 10052c00 f i NpSerializerAdapter.obj
 0001:00051c00       ??_GRequiresCallback@?1??registerReferences@?$PxSerializerDefaultAdapter@VNpAggregate@physx@@@physx@@UBEXAAVPxBase@3@AAVPxSerializationContext@3@@Z@UAEPAXI@Z 10052c00 f i NpSerializerAdapter.obj
 0001:00051c30       ??_GRequiresCallback@?1??registerReferences@?$PxSerializerDefaultAdapter@VNpArticulation@physx@@@physx@@UBEXAAVPxBase@3@AAVPxSerializationContext@3@@Z@UAEPAXI@Z 10052c30 f i NpSerializerAdapter.obj
 0001:00051c30       ??_ERequiresCallback@?1??registerReferences@?$PxSerializerDefaultAdapter@VNpArticulation@physx@@@physx@@UBEXAAVPxBase@3@AAVPxSerializationContext@3@@Z@UAEPAXI@Z 10052c30 f i NpSerializerAdapter.obj
 0001:00051c60       ??_ERequiresCallback@?1??registerReferences@?$PxSerializerDefaultAdapter@VNpArticulationJoint@physx@@@physx@@UBEXAAVPxBase@3@AAVPxSerializationContext@3@@Z@UAEPAXI@Z 10052c60 f i NpSerializerAdapter.obj
 0001:00051c60       ??_GRequiresCallback@?1??registerReferences@?$PxSerializerDefaultAdapter@VNpArticulationJoint@physx@@@physx@@UBEXAAVPxBase@3@AAVPxSerializationContext@3@@Z@UAEPAXI@Z 10052c60 f i NpSerializerAdapter.obj
 0001:00051c90       ??_ERequiresCallback@?1??registerReferences@?$PxSerializerDefaultAdapter@VNpArticulationJointReducedCoordinate@physx@@@physx@@UBEXAAVPxBase@3@AAVPxSerializationContext@3@@Z@UAEPAXI@Z 10052c90 f i NpSerializerAdapter.obj
 0001:00051c90       ??_GRequiresCallback@?1??registerReferences@?$PxSerializerDefaultAdapter@VNpArticulationJointReducedCoordinate@physx@@@physx@@UBEXAAVPxBase@3@AAVPxSerializationContext@3@@Z@UAEPAXI@Z 10052c90 f i NpSerializerAdapter.obj
 0001:00051cc0       ??_GRequiresCallback@?1??registerReferences@?$PxSerializerDefaultAdapter@VNpArticulationLink@physx@@@physx@@UBEXAAVPxBase@3@AAVPxSerializationContext@3@@Z@UAEPAXI@Z 10052cc0 f i NpSerializerAdapter.obj
 0001:00051cc0       ??_ERequiresCallback@?1??registerReferences@?$PxSerializerDefaultAdapter@VNpArticulationLink@physx@@@physx@@UBEXAAVPxBase@3@AAVPxSerializationContext@3@@Z@UAEPAXI@Z 10052cc0 f i NpSerializerAdapter.obj
 0001:00051cf0       ??_GRequiresCallback@?1??registerReferences@?$PxSerializerDefaultAdapter@VNpArticulationReducedCoordinate@physx@@@physx@@UBEXAAVPxBase@3@AAVPxSerializationContext@3@@Z@UAEPAXI@Z 10052cf0 f i NpSerializerAdapter.obj
 0001:00051cf0       ??_ERequiresCallback@?1??registerReferences@?$PxSerializerDefaultAdapter@VNpArticulationReducedCoordinate@physx@@@physx@@UBEXAAVPxBase@3@AAVPxSerializationContext@3@@Z@UAEPAXI@Z 10052cf0 f i NpSerializerAdapter.obj
 0001:00051d20       ??_ERequiresCallback@?1??registerReferences@?$PxSerializerDefaultAdapter@VNpConstraint@physx@@@physx@@UBEXAAVPxBase@3@AAVPxSerializationContext@3@@Z@UAEPAXI@Z 10052d20 f i NpSerializerAdapter.obj
 0001:00051d20       ??_GRequiresCallback@?1??registerReferences@?$PxSerializerDefaultAdapter@VNpConstraint@physx@@@physx@@UBEXAAVPxBase@3@AAVPxSerializationContext@3@@Z@UAEPAXI@Z 10052d20 f i NpSerializerAdapter.obj
 0001:00051d50       ??_ERequiresCallback@?1??registerReferences@?$PxSerializerDefaultAdapter@VNpRigidDynamic@physx@@@physx@@UBEXAAVPxBase@3@AAVPxSerializationContext@3@@Z@UAEPAXI@Z 10052d50 f i NpSerializerAdapter.obj
 0001:00051d50       ??_GRequiresCallback@?1??registerReferences@?$PxSerializerDefaultAdapter@VNpRigidDynamic@physx@@@physx@@UBEXAAVPxBase@3@AAVPxSerializationContext@3@@Z@UAEPAXI@Z 10052d50 f i NpSerializerAdapter.obj
 0001:00051d80       ??_GRequiresCallback@?1??registerReferences@?$PxSerializerDefaultAdapter@VNpRigidStatic@physx@@@physx@@UBEXAAVPxBase@3@AAVPxSerializationContext@3@@Z@UAEPAXI@Z 10052d80 f i NpSerializerAdapter.obj
 0001:00051d80       ??_ERequiresCallback@?1??registerReferences@?$PxSerializerDefaultAdapter@VNpRigidStatic@physx@@@physx@@UBEXAAVPxBase@3@AAVPxSerializationContext@3@@Z@UAEPAXI@Z 10052d80 f i NpSerializerAdapter.obj
 0001:00051db0       ??_GRequiresCallback@?1??registerReferences@?$PxSerializerDefaultAdapter@VNpShape@physx@@@physx@@UBEXAAVPxBase@3@AAVPxSerializationContext@3@@Z@UAEPAXI@Z 10052db0 f i NpSerializerAdapter.obj
 0001:00051db0       ??_ERequiresCallback@?1??registerReferences@?$PxSerializerDefaultAdapter@VNpShape@physx@@@physx@@UBEXAAVPxBase@3@AAVPxSerializationContext@3@@Z@UAEPAXI@Z 10052db0 f i NpSerializerAdapter.obj
 0001:00051de0       ??_GRequiresCallback@?1??registerReferences@?$PxSerializerDefaultAdapter@VPruningStructure@Sq@physx@@@physx@@UBEXAAVPxBase@3@AAVPxSerializationContext@3@@Z@UAEPAXI@Z 10052de0 f i NpSerializerAdapter.obj
 0001:00051de0       ??_ERequiresCallback@?1??registerReferences@?$PxSerializerDefaultAdapter@VPruningStructure@Sq@physx@@@physx@@UBEXAAVPxBase@3@AAVPxSerializationContext@3@@Z@UAEPAXI@Z 10052de0 f i NpSerializerAdapter.obj
 0001:00051e10       ??_GRequiresCallback@?1??registerReferences@?$PxSerializerDefaultAdapter@VRTreeTriangleMesh@Gu@physx@@@physx@@UBEXAAVPxBase@3@AAVPxSerializationContext@3@@Z@UAEPAXI@Z 10052e10 f i NpSerializerAdapter.obj
 0001:00051e10       ??_ERequiresCallback@?1??registerReferences@?$PxSerializerDefaultAdapter@VRTreeTriangleMesh@Gu@physx@@@physx@@UBEXAAVPxBase@3@AAVPxSerializationContext@3@@Z@UAEPAXI@Z 10052e10 f i NpSerializerAdapter.obj
 0001:00051e40       ?createObject@?$PxSerializerDefaultAdapter@VBV4TriangleMesh@Gu@physx@@@physx@@UBEPAVPxBase@2@AAPAEAAVPxDeserializationContext@2@@Z 10052e40 f i NpSerializerAdapter.obj
 0001:00051e60       ?createObject@?$PxSerializerDefaultAdapter@VConvexMesh@Gu@physx@@@physx@@UBEPAVPxBase@2@AAPAEAAVPxDeserializationContext@2@@Z 10052e60 f i NpSerializerAdapter.obj
 0001:00051e80       ?createObject@?$PxSerializerDefaultAdapter@VHeightField@Gu@physx@@@physx@@UBEPAVPxBase@2@AAPAEAAVPxDeserializationContext@2@@Z 10052e80 f i NpSerializerAdapter.obj
 0001:00051ea0       ?createObject@?$PxSerializerDefaultAdapter@VNpAggregate@physx@@@physx@@UBEPAVPxBase@2@AAPAEAAVPxDeserializationContext@2@@Z 10052ea0 f i NpSerializerAdapter.obj
 0001:00051ec0       ?createObject@?$PxSerializerDefaultAdapter@VNpArticulation@physx@@@physx@@UBEPAVPxBase@2@AAPAEAAVPxDeserializationContext@2@@Z 10052ec0 f i NpSerializerAdapter.obj
 0001:00051ee0       ?createObject@?$PxSerializerDefaultAdapter@VNpArticulationJoint@physx@@@physx@@UBEPAVPxBase@2@AAPAEAAVPxDeserializationContext@2@@Z 10052ee0 f i NpSerializerAdapter.obj
 0001:00051f00       ?createObject@?$PxSerializerDefaultAdapter@VNpArticulationJointReducedCoordinate@physx@@@physx@@UBEPAVPxBase@2@AAPAEAAVPxDeserializationContext@2@@Z 10052f00 f i NpSerializerAdapter.obj
 0001:00051f20       ?createObject@?$PxSerializerDefaultAdapter@VNpArticulationLink@physx@@@physx@@UBEPAVPxBase@2@AAPAEAAVPxDeserializationContext@2@@Z 10052f20 f i NpSerializerAdapter.obj
 0001:00051f40       ?createObject@?$PxSerializerDefaultAdapter@VNpArticulationReducedCoordinate@physx@@@physx@@UBEPAVPxBase@2@AAPAEAAVPxDeserializationContext@2@@Z 10052f40 f i NpSerializerAdapter.obj
 0001:00051f60       ?createObject@?$PxSerializerDefaultAdapter@VNpConstraint@physx@@@physx@@UBEPAVPxBase@2@AAPAEAAVPxDeserializationContext@2@@Z 10052f60 f i NpSerializerAdapter.obj
 0001:00051f80       ?createObject@?$PxSerializerDefaultAdapter@VNpMaterial@physx@@@physx@@UBEPAVPxBase@2@AAPAEAAVPxDeserializationContext@2@@Z 10052f80 f i NpSerializerAdapter.obj
 0001:00051fa0       ?createObject@?$PxSerializerDefaultAdapter@VNpRigidDynamic@physx@@@physx@@UBEPAVPxBase@2@AAPAEAAVPxDeserializationContext@2@@Z 10052fa0 f i NpSerializerAdapter.obj
 0001:00051fc0       ?createObject@?$PxSerializerDefaultAdapter@VNpRigidStatic@physx@@@physx@@UBEPAVPxBase@2@AAPAEAAVPxDeserializationContext@2@@Z 10052fc0 f i NpSerializerAdapter.obj
 0001:00051fe0       ?createObject@?$PxSerializerDefaultAdapter@VNpShape@physx@@@physx@@UBEPAVPxBase@2@AAPAEAAVPxDeserializationContext@2@@Z 10052fe0 f i NpSerializerAdapter.obj
 0001:00052000       ?createObject@?$PxSerializerDefaultAdapter@VPruningStructure@Sq@physx@@@physx@@UBEPAVPxBase@2@AAPAEAAVPxDeserializationContext@2@@Z 10053000 f i NpSerializerAdapter.obj
 0001:00052020       ?createObject@?$PxSerializerDefaultAdapter@VRTreeTriangleMesh@Gu@physx@@@physx@@UBEPAVPxBase@2@AAPAEAAVPxDeserializationContext@2@@Z 10053020 f i NpSerializerAdapter.obj
 0001:00052040       ?exportData@?$PxSerializerDefaultAdapter@VBV4TriangleMesh@Gu@physx@@@physx@@UBEXAAVPxBase@2@AAVPxSerializationContext@2@@Z 10053040 f i NpSerializerAdapter.obj
 0001:000520b0       ?exportData@?$PxSerializerDefaultAdapter@VConvexMesh@Gu@physx@@@physx@@UBEXAAVPxBase@2@AAVPxSerializationContext@2@@Z 100530b0 f i NpSerializerAdapter.obj
 0001:00052120       ?exportData@?$PxSerializerDefaultAdapter@VHeightField@Gu@physx@@@physx@@UBEXAAVPxBase@2@AAVPxSerializationContext@2@@Z 10053120 f i NpSerializerAdapter.obj
 0001:00052180       ?exportData@?$PxSerializerDefaultAdapter@VNpAggregate@physx@@@physx@@UBEXAAVPxBase@2@AAVPxSerializationContext@2@@Z 10053180 f i NpSerializerAdapter.obj
 0001:000521f0       ?exportData@?$PxSerializerDefaultAdapter@VNpArticulation@physx@@@physx@@UBEXAAVPxBase@2@AAVPxSerializationContext@2@@Z 100531f0 f i NpSerializerAdapter.obj
 0001:00052250       ?exportData@?$PxSerializerDefaultAdapter@VNpArticulationJoint@physx@@@physx@@UBEXAAVPxBase@2@AAVPxSerializationContext@2@@Z 10053250 f i NpSerializerAdapter.obj
 0001:000522c0       ?exportData@?$PxSerializerDefaultAdapter@VNpArticulationJointReducedCoordinate@physx@@@physx@@UBEXAAVPxBase@2@AAVPxSerializationContext@2@@Z 100532c0 f i NpSerializerAdapter.obj
 0001:00052330       ?exportData@?$PxSerializerDefaultAdapter@VNpArticulationLink@physx@@@physx@@UBEXAAVPxBase@2@AAVPxSerializationContext@2@@Z 10053330 f i NpSerializerAdapter.obj
 0001:000523c0       ?exportData@?$PxSerializerDefaultAdapter@VNpArticulationReducedCoordinate@physx@@@physx@@UBEXAAVPxBase@2@AAVPxSerializationContext@2@@Z 100533c0 f i NpSerializerAdapter.obj
 0001:00052430       ?exportData@?$PxSerializerDefaultAdapter@VNpConstraint@physx@@@physx@@UBEXAAVPxBase@2@AAVPxSerializationContext@2@@Z 10053430 f i NpSerializerAdapter.obj
 0001:00052490       ?exportData@?$PxSerializerDefaultAdapter@VNpMaterial@physx@@@physx@@UBEXAAVPxBase@2@AAVPxSerializationContext@2@@Z 10053490 f i NpSerializerAdapter.obj
 0001:00052500       ?exportData@?$PxSerializerDefaultAdapter@VNpRigidDynamic@physx@@@physx@@UBEXAAVPxBase@2@AAVPxSerializationContext@2@@Z 10053500 f i NpSerializerAdapter.obj
 0001:00052570       ?exportData@?$PxSerializerDefaultAdapter@VNpRigidStatic@physx@@@physx@@UBEXAAVPxBase@2@AAVPxSerializationContext@2@@Z 10053570 f i NpSerializerAdapter.obj
 0001:00052600       ?exportData@?$PxSerializerDefaultAdapter@VNpShape@physx@@@physx@@UBEXAAVPxBase@2@AAVPxSerializationContext@2@@Z 10053600 f i NpSerializerAdapter.obj
 0001:00052670       ?exportData@?$PxSerializerDefaultAdapter@VPruningStructure@Sq@physx@@@physx@@UBEXAAVPxBase@2@AAVPxSerializationContext@2@@Z 10053670 f i NpSerializerAdapter.obj
 0001:000526e0       ?exportData@?$PxSerializerDefaultAdapter@VRTreeTriangleMesh@Gu@physx@@@physx@@UBEXAAVPxBase@2@AAVPxSerializationContext@2@@Z 100536e0 f i NpSerializerAdapter.obj
 0001:00052750       ?exportExtraData@?$PxSerializerDefaultAdapter@VBV4TriangleMesh@Gu@physx@@@physx@@UBEXAAVPxBase@2@AAVPxSerializationContext@2@@Z 10053750 f i NpSerializerAdapter.obj
 0001:00052760       ?exportExtraData@?$PxSerializerDefaultAdapter@VConvexMesh@Gu@physx@@@physx@@UBEXAAVPxBase@2@AAVPxSerializationContext@2@@Z 10053760 f i NpSerializerAdapter.obj
 0001:00052770       ?exportExtraData@?$PxSerializerDefaultAdapter@VHeightField@Gu@physx@@@physx@@UBEXAAVPxBase@2@AAVPxSerializationContext@2@@Z 10053770 f i NpSerializerAdapter.obj
 0001:00052780       ?exportExtraData@?$PxSerializerDefaultAdapter@VNpAggregate@physx@@@physx@@UBEXAAVPxBase@2@AAVPxSerializationContext@2@@Z 10053780 f i NpSerializerAdapter.obj
 0001:00052790       ?exportExtraData@?$PxSerializerDefaultAdapter@VNpArticulation@physx@@@physx@@UBEXAAVPxBase@2@AAVPxSerializationContext@2@@Z 10053790 f i NpSerializerAdapter.obj
 0001:000527b0       ?exportExtraData@?$PxSerializerDefaultAdapter@VNpArticulationJoint@physx@@@physx@@UBEXAAVPxBase@2@AAVPxSerializationContext@2@@Z 100537b0 f i NpSerializerAdapter.obj
 0001:000527c0       ?exportExtraData@?$PxSerializerDefaultAdapter@VNpArticulationJointReducedCoordinate@physx@@@physx@@UBEXAAVPxBase@2@AAVPxSerializationContext@2@@Z 100537c0 f i NpSerializerAdapter.obj
 0001:000527d0       ?exportExtraData@?$PxSerializerDefaultAdapter@VNpArticulationLink@physx@@@physx@@UBEXAAVPxBase@2@AAVPxSerializationContext@2@@Z 100537d0 f i NpSerializerAdapter.obj
 0001:000527f0       ?exportExtraData@?$PxSerializerDefaultAdapter@VNpArticulationReducedCoordinate@physx@@@physx@@UBEXAAVPxBase@2@AAVPxSerializationContext@2@@Z 100537f0 f i NpSerializerAdapter.obj
 0001:00052810       ?exportExtraData@?$PxSerializerDefaultAdapter@VNpConstraint@physx@@@physx@@UBEXAAVPxBase@2@AAVPxSerializationContext@2@@Z 10053810 f i NpSerializerAdapter.obj
 0001:00052820       ?exportExtraData@?$PxSerializerDefaultAdapter@VNpMaterial@physx@@@physx@@UBEXAAVPxBase@2@AAVPxSerializationContext@2@@Z 10053820 f i NpSerializerAdapter.obj
 0001:00052830       ?exportExtraData@?$PxSerializerDefaultAdapter@VNpRigidDynamic@physx@@@physx@@UBEXAAVPxBase@2@AAVPxSerializationContext@2@@Z 10053830 f i NpSerializerAdapter.obj
 0001:00052850       ?exportExtraData@?$PxSerializerDefaultAdapter@VNpRigidStatic@physx@@@physx@@UBEXAAVPxBase@2@AAVPxSerializationContext@2@@Z 10053850 f i NpSerializerAdapter.obj
 0001:00052860       ?exportExtraData@?$PxSerializerDefaultAdapter@VNpShape@physx@@@physx@@UBEXAAVPxBase@2@AAVPxSerializationContext@2@@Z 10053860 f i NpSerializerAdapter.obj
 0001:00052880       ?exportExtraData@?$PxSerializerDefaultAdapter@VPruningStructure@Sq@physx@@@physx@@UBEXAAVPxBase@2@AAVPxSerializationContext@2@@Z 10053880 f i NpSerializerAdapter.obj
 0001:00052890       ?exportExtraData@?$PxSerializerDefaultAdapter@VRTreeTriangleMesh@Gu@physx@@@physx@@UBEXAAVPxBase@2@AAVPxSerializationContext@2@@Z 10053890 f i NpSerializerAdapter.obj
 0001:000528a0       ?getClassSize@?$PxSerializerDefaultAdapter@VBV4TriangleMesh@Gu@physx@@@physx@@UBEIXZ 100538a0 f i NpSerializerAdapter.obj
 0001:000528b0       ?getClassSize@?$PxSerializerDefaultAdapter@VConvexMesh@Gu@physx@@@physx@@UBEIXZ 100538b0 f i NpSerializerAdapter.obj
 0001:000528c0       ?getClassSize@?$PxSerializerDefaultAdapter@VHeightField@Gu@physx@@@physx@@UBEIXZ 100538c0 f i NpSerializerAdapter.obj
 0001:000528d0       ?getClassSize@?$PxSerializerDefaultAdapter@VNpAggregate@physx@@@physx@@UBEIXZ 100538d0 f i NpSerializerAdapter.obj
 0001:000528e0       ?getClassSize@?$PxSerializerDefaultAdapter@VNpArticulation@physx@@@physx@@UBEIXZ 100538e0 f i NpSerializerAdapter.obj
 0001:000528f0       ?getClassSize@?$PxSerializerDefaultAdapter@VNpArticulationJoint@physx@@@physx@@UBEIXZ 100538f0 f i NpSerializerAdapter.obj
 0001:00052900       ?getClassSize@?$PxSerializerDefaultAdapter@VNpArticulationJointReducedCoordinate@physx@@@physx@@UBEIXZ 10053900 f i NpSerializerAdapter.obj
 0001:00052910       ?getClassSize@?$PxSerializerDefaultAdapter@VNpArticulationLink@physx@@@physx@@UBEIXZ 10053910 f i NpSerializerAdapter.obj
 0001:00052920       ?getClassSize@?$PxSerializerDefaultAdapter@VNpArticulationReducedCoordinate@physx@@@physx@@UBEIXZ 10053920 f i NpSerializerAdapter.obj
 0001:00052930       ?getClassSize@?$PxSerializerDefaultAdapter@VNpConstraint@physx@@@physx@@UBEIXZ 10053930 f i NpSerializerAdapter.obj
 0001:00052940       ?getClassSize@?$PxSerializerDefaultAdapter@VNpMaterial@physx@@@physx@@UBEIXZ 10053940 f i NpSerializerAdapter.obj
 0001:00052950       ?getClassSize@?$PxSerializerDefaultAdapter@VNpRigidDynamic@physx@@@physx@@UBEIXZ 10053950 f i NpSerializerAdapter.obj
 0001:00052960       ?getClassSize@?$PxSerializerDefaultAdapter@VNpRigidStatic@physx@@@physx@@UBEIXZ 10053960 f i NpSerializerAdapter.obj
 0001:00052970       ?getClassSize@?$PxSerializerDefaultAdapter@VNpShape@physx@@@physx@@UBEIXZ 10053970 f i NpSerializerAdapter.obj
 0001:00052980       ?getClassSize@?$PxSerializerDefaultAdapter@VPruningStructure@Sq@physx@@@physx@@UBEIXZ 10053980 f i NpSerializerAdapter.obj
 0001:00052990       ?getClassSize@?$PxSerializerDefaultAdapter@VRTreeTriangleMesh@Gu@physx@@@physx@@UBEIXZ 10053990 f i NpSerializerAdapter.obj
 0001:000529a0       ?getConcreteTypeName@?$PxSerializerDefaultAdapter@VBV4TriangleMesh@Gu@physx@@@physx@@UBEPBDXZ 100539a0 f i NpSerializerAdapter.obj
 0001:000529b0       ?getConcreteTypeName@?$PxSerializerDefaultAdapter@VConvexMesh@Gu@physx@@@physx@@UBEPBDXZ 100539b0 f i NpSerializerAdapter.obj
 0001:000529c0       ?getConcreteTypeName@?$PxSerializerDefaultAdapter@VHeightField@Gu@physx@@@physx@@UBEPBDXZ 100539c0 f i NpSerializerAdapter.obj
 0001:000529d0       ?getConcreteTypeName@?$PxSerializerDefaultAdapter@VNpAggregate@physx@@@physx@@UBEPBDXZ 100539d0 f i NpSerializerAdapter.obj
 0001:000529e0       ?getConcreteTypeName@?$PxSerializerDefaultAdapter@VNpArticulation@physx@@@physx@@UBEPBDXZ 100539e0 f i NpSerializerAdapter.obj
 0001:000529f0       ?getConcreteTypeName@?$PxSerializerDefaultAdapter@VNpArticulationJoint@physx@@@physx@@UBEPBDXZ 100539f0 f i NpSerializerAdapter.obj
 0001:00052a00       ?getConcreteTypeName@?$PxSerializerDefaultAdapter@VNpArticulationJointReducedCoordinate@physx@@@physx@@UBEPBDXZ 10053a00 f i NpSerializerAdapter.obj
 0001:00052a10       ?getConcreteTypeName@?$PxSerializerDefaultAdapter@VNpArticulationLink@physx@@@physx@@UBEPBDXZ 10053a10 f i NpSerializerAdapter.obj
 0001:00052a20       ?getConcreteTypeName@?$PxSerializerDefaultAdapter@VNpArticulationReducedCoordinate@physx@@@physx@@UBEPBDXZ 10053a20 f i NpSerializerAdapter.obj
 0001:00052a30       ?getConcreteTypeName@?$PxSerializerDefaultAdapter@VNpConstraint@physx@@@physx@@UBEPBDXZ 10053a30 f i NpSerializerAdapter.obj
 0001:00052a40       ?getConcreteTypeName@?$PxSerializerDefaultAdapter@VNpMaterial@physx@@@physx@@UBEPBDXZ 10053a40 f i NpSerializerAdapter.obj
 0001:00052a50       ?getConcreteTypeName@?$PxSerializerDefaultAdapter@VNpRigidDynamic@physx@@@physx@@UBEPBDXZ 10053a50 f i NpSerializerAdapter.obj
 0001:00052a60       ?getConcreteTypeName@?$PxSerializerDefaultAdapter@VNpRigidStatic@physx@@@physx@@UBEPBDXZ 10053a60 f i NpSerializerAdapter.obj
 0001:00052a70       ?getConcreteTypeName@?$PxSerializerDefaultAdapter@VNpShape@physx@@@physx@@UBEPBDXZ 10053a70 f i NpSerializerAdapter.obj
 0001:00052a80       ?getConcreteTypeName@?$PxSerializerDefaultAdapter@VPruningStructure@Sq@physx@@@physx@@UBEPBDXZ 10053a80 f i NpSerializerAdapter.obj
 0001:00052a90       ?getConcreteTypeName@?$PxSerializerDefaultAdapter@VRTreeTriangleMesh@Gu@physx@@@physx@@UBEPBDXZ 10053a90 f i NpSerializerAdapter.obj
 0001:00052aa0       ?isSubordinate@?$PxSerializerDefaultAdapter@VBV4TriangleMesh@Gu@physx@@@physx@@UBE_NXZ 10053aa0 f i NpSerializerAdapter.obj
 0001:00052ab0       ?isSubordinate@?$PxSerializerDefaultAdapter@VConvexMesh@Gu@physx@@@physx@@UBE_NXZ 10053ab0 f i NpSerializerAdapter.obj
 0001:00052ac0       ?isSubordinate@?$PxSerializerDefaultAdapter@VHeightField@Gu@physx@@@physx@@UBE_NXZ 10053ac0 f i NpSerializerAdapter.obj
 0001:00052ad0       ?isSubordinate@?$PxSerializerDefaultAdapter@VNpAggregate@physx@@@physx@@UBE_NXZ 10053ad0 f i NpSerializerAdapter.obj
 0001:00052ae0       ?isSubordinate@?$PxSerializerDefaultAdapter@VNpArticulation@physx@@@physx@@UBE_NXZ 10053ae0 f i NpSerializerAdapter.obj
 0001:00052af0       ?isSubordinate@?$PxSerializerDefaultAdapter@VNpArticulationJoint@physx@@@physx@@UBE_NXZ 10053af0 f i NpSerializerAdapter.obj
 0001:00052b00       ?isSubordinate@?$PxSerializerDefaultAdapter@VNpArticulationJointReducedCoordinate@physx@@@physx@@UBE_NXZ 10053b00 f i NpSerializerAdapter.obj
 0001:00052b10       ?isSubordinate@?$PxSerializerDefaultAdapter@VNpArticulationLink@physx@@@physx@@UBE_NXZ 10053b10 f i NpSerializerAdapter.obj
 0001:00052b20       ?isSubordinate@?$PxSerializerDefaultAdapter@VNpArticulationReducedCoordinate@physx@@@physx@@UBE_NXZ 10053b20 f i NpSerializerAdapter.obj
 0001:00052b30       ?isSubordinate@?$PxSerializerDefaultAdapter@VNpConstraint@physx@@@physx@@UBE_NXZ 10053b30 f i NpSerializerAdapter.obj
 0001:00052b40       ?isSubordinate@?$PxSerializerDefaultAdapter@VNpMaterial@physx@@@physx@@UBE_NXZ 10053b40 f i NpSerializerAdapter.obj
 0001:00052b50       ?isSubordinate@?$PxSerializerDefaultAdapter@VNpRigidDynamic@physx@@@physx@@UBE_NXZ 10053b50 f i NpSerializerAdapter.obj
 0001:00052b60       ?isSubordinate@?$PxSerializerDefaultAdapter@VNpRigidStatic@physx@@@physx@@UBE_NXZ 10053b60 f i NpSerializerAdapter.obj
 0001:00052b70       ?isSubordinate@?$PxSerializerDefaultAdapter@VNpShape@physx@@@physx@@UBE_NXZ 10053b70 f i NpSerializerAdapter.obj
 0001:00052b80       ?isSubordinate@?$PxSerializerDefaultAdapter@VPruningStructure@Sq@physx@@@physx@@UBE_NXZ 10053b80 f i NpSerializerAdapter.obj
 0001:00052b90       ?isSubordinate@?$PxSerializerDefaultAdapter@VRTreeTriangleMesh@Gu@physx@@@physx@@UBE_NXZ 10053b90 f i NpSerializerAdapter.obj
 0001:00052ba0       ?preExportDataReset@?$NpRigidActorTemplate@VPxArticulationLink@physx@@@physx@@QAEXXZ 10053ba0 f i NpSerializerAdapter.obj
 0001:00052be0       ?preExportDataReset@?$NpRigidActorTemplate@VPxRigidStatic@physx@@@physx@@QAEXXZ 10053be0 f i NpSerializerAdapter.obj
 0001:00052c20       ?process@RequiresCallback@?1??registerReferences@?$PxSerializerDefaultAdapter@VBV4TriangleMesh@Gu@physx@@@physx@@UBEXAAVPxBase@4@AAVPxSerializationContext@4@@Z@UAEX0@Z 10053c20 f i NpSerializerAdapter.obj
 0001:00052c40       ?process@RequiresCallback@?1??registerReferences@?$PxSerializerDefaultAdapter@VConvexMesh@Gu@physx@@@physx@@UBEXAAVPxBase@4@AAVPxSerializationContext@4@@Z@UAEX0@Z 10053c40 f i NpSerializerAdapter.obj
 0001:00052c60       ?process@RequiresCallback@?1??registerReferences@?$PxSerializerDefaultAdapter@VHeightField@Gu@physx@@@physx@@UBEXAAVPxBase@4@AAVPxSerializationContext@4@@Z@UAEX0@Z 10053c60 f i NpSerializerAdapter.obj
 0001:00052c80       ?process@RequiresCallback@?1??registerReferences@?$PxSerializerDefaultAdapter@VNpAggregate@physx@@@physx@@UBEXAAVPxBase@4@AAVPxSerializationContext@4@@Z@UAEX0@Z 10053c80 f i NpSerializerAdapter.obj
 0001:00052ca0       ?process@RequiresCallback@?1??registerReferences@?$PxSerializerDefaultAdapter@VNpArticulation@physx@@@physx@@UBEXAAVPxBase@4@AAVPxSerializationContext@4@@Z@UAEX0@Z 10053ca0 f i NpSerializerAdapter.obj
 0001:00052cc0       ?process@RequiresCallback@?1??registerReferences@?$PxSerializerDefaultAdapter@VNpArticulationJoint@physx@@@physx@@UBEXAAVPxBase@4@AAVPxSerializationContext@4@@Z@UAEX0@Z 10053cc0 f i NpSerializerAdapter.obj
 0001:00052ce0       ?process@RequiresCallback@?1??registerReferences@?$PxSerializerDefaultAdapter@VNpArticulationJointReducedCoordinate@physx@@@physx@@UBEXAAVPxBase@4@AAVPxSerializationContext@4@@Z@UAEX0@Z 10053ce0 f i NpSerializerAdapter.obj
 0001:00052d00       ?process@RequiresCallback@?1??registerReferences@?$PxSerializerDefaultAdapter@VNpArticulationLink@physx@@@physx@@UBEXAAVPxBase@4@AAVPxSerializationContext@4@@Z@UAEX0@Z 10053d00 f i NpSerializerAdapter.obj
 0001:00052d20       ?process@RequiresCallback@?1??registerReferences@?$PxSerializerDefaultAdapter@VNpArticulationReducedCoordinate@physx@@@physx@@UBEXAAVPxBase@4@AAVPxSerializationContext@4@@Z@UAEX0@Z 10053d20 f i NpSerializerAdapter.obj
 0001:00052d40       ?process@RequiresCallback@?1??registerReferences@?$PxSerializerDefaultAdapter@VNpConstraint@physx@@@physx@@UBEXAAVPxBase@4@AAVPxSerializationContext@4@@Z@UAEX0@Z 10053d40 f i NpSerializerAdapter.obj
 0001:00052d60       ?process@RequiresCallback@?1??registerReferences@?$PxSerializerDefaultAdapter@VNpRigidDynamic@physx@@@physx@@UBEXAAVPxBase@4@AAVPxSerializationContext@4@@Z@UAEX0@Z 10053d60 f i NpSerializerAdapter.obj
 0001:00052d80       ?process@RequiresCallback@?1??registerReferences@?$PxSerializerDefaultAdapter@VNpRigidStatic@physx@@@physx@@UBEXAAVPxBase@4@AAVPxSerializationContext@4@@Z@UAEX0@Z 10053d80 f i NpSerializerAdapter.obj
 0001:00052da0       ?process@RequiresCallback@?1??registerReferences@?$PxSerializerDefaultAdapter@VNpShape@physx@@@physx@@UBEXAAVPxBase@4@AAVPxSerializationContext@4@@Z@UAEX0@Z 10053da0 f i NpSerializerAdapter.obj
 0001:00052de0       ?process@RequiresCallback@?1??registerReferences@?$PxSerializerDefaultAdapter@VPruningStructure@Sq@physx@@@physx@@UBEXAAVPxBase@4@AAVPxSerializationContext@4@@Z@UAEX0@Z 10053de0 f i NpSerializerAdapter.obj
 0001:00052e00       ?process@RequiresCallback@?1??registerReferences@?$PxSerializerDefaultAdapter@VRTreeTriangleMesh@Gu@physx@@@physx@@UBEXAAVPxBase@4@AAVPxSerializationContext@4@@Z@UAEX0@Z 10053e00 f i NpSerializerAdapter.obj
 0001:00052e20       ?registerReferences@?$PxSerializerDefaultAdapter@VBV4TriangleMesh@Gu@physx@@@physx@@UBEXAAVPxBase@2@AAVPxSerializationContext@2@@Z 10053e20 f i NpSerializerAdapter.obj
 0001:00052e60       ?registerReferences@?$PxSerializerDefaultAdapter@VConvexMesh@Gu@physx@@@physx@@UBEXAAVPxBase@2@AAVPxSerializationContext@2@@Z 10053e60 f i NpSerializerAdapter.obj
 0001:00052ea0       ?registerReferences@?$PxSerializerDefaultAdapter@VHeightField@Gu@physx@@@physx@@UBEXAAVPxBase@2@AAVPxSerializationContext@2@@Z 10053ea0 f i NpSerializerAdapter.obj
 0001:00052ee0       ?registerReferences@?$PxSerializerDefaultAdapter@VNpAggregate@physx@@@physx@@UBEXAAVPxBase@2@AAVPxSerializationContext@2@@Z 10053ee0 f i NpSerializerAdapter.obj
 0001:00052f20       ?registerReferences@?$PxSerializerDefaultAdapter@VNpArticulation@physx@@@physx@@UBEXAAVPxBase@2@AAVPxSerializationContext@2@@Z 10053f20 f i NpSerializerAdapter.obj
 0001:00052f60       ?registerReferences@?$PxSerializerDefaultAdapter@VNpArticulationJoint@physx@@@physx@@UBEXAAVPxBase@2@AAVPxSerializationContext@2@@Z 10053f60 f i NpSerializerAdapter.obj
 0001:00052fa0       ?registerReferences@?$PxSerializerDefaultAdapter@VNpArticulationJointReducedCoordinate@physx@@@physx@@UBEXAAVPxBase@2@AAVPxSerializationContext@2@@Z 10053fa0 f i NpSerializerAdapter.obj
 0001:00052fe0       ?registerReferences@?$PxSerializerDefaultAdapter@VNpArticulationLink@physx@@@physx@@UBEXAAVPxBase@2@AAVPxSerializationContext@2@@Z 10053fe0 f i NpSerializerAdapter.obj
 0001:00053020       ?registerReferences@?$PxSerializerDefaultAdapter@VNpArticulationReducedCoordinate@physx@@@physx@@UBEXAAVPxBase@2@AAVPxSerializationContext@2@@Z 10054020 f i NpSerializerAdapter.obj
 0001:00053060       ?registerReferences@?$PxSerializerDefaultAdapter@VNpConstraint@physx@@@physx@@UBEXAAVPxBase@2@AAVPxSerializationContext@2@@Z 10054060 f i NpSerializerAdapter.obj
 0001:000530a0       ?registerReferences@?$PxSerializerDefaultAdapter@VNpMaterial@physx@@@physx@@UBEXAAVPxBase@2@AAVPxSerializationContext@2@@Z 100540a0 f i NpSerializerAdapter.obj
 0001:000530d0       ?registerReferences@?$PxSerializerDefaultAdapter@VNpRigidDynamic@physx@@@physx@@UBEXAAVPxBase@2@AAVPxSerializationContext@2@@Z 100540d0 f i NpSerializerAdapter.obj
 0001:00053110       ?registerReferences@?$PxSerializerDefaultAdapter@VNpRigidStatic@physx@@@physx@@UBEXAAVPxBase@2@AAVPxSerializationContext@2@@Z 10054110 f i NpSerializerAdapter.obj
 0001:00053150       ?registerReferences@?$PxSerializerDefaultAdapter@VNpShape@physx@@@physx@@UBEXAAVPxBase@2@AAVPxSerializationContext@2@@Z 10054150 f i NpSerializerAdapter.obj
 0001:00053190       ?registerReferences@?$PxSerializerDefaultAdapter@VPruningStructure@Sq@physx@@@physx@@UBEXAAVPxBase@2@AAVPxSerializationContext@2@@Z 10054190 f i NpSerializerAdapter.obj
 0001:000531d0       ?registerReferences@?$PxSerializerDefaultAdapter@VRTreeTriangleMesh@Gu@physx@@@physx@@UBEXAAVPxBase@2@AAVPxSerializationContext@2@@Z 100541d0 f i NpSerializerAdapter.obj
 0001:00053210       ?requiresObjects@?$PxSerializerDefaultAdapter@VBV4TriangleMesh@Gu@physx@@@physx@@UBEXAAVPxBase@2@AAVPxProcessPxBaseCallback@2@@Z 10054210 f i NpSerializerAdapter.obj
 0001:00053220       ?requiresObjects@?$PxSerializerDefaultAdapter@VConvexMesh@Gu@physx@@@physx@@UBEXAAVPxBase@2@AAVPxProcessPxBaseCallback@2@@Z 10054220 f i NpSerializerAdapter.obj
 0001:00053230       ?requiresObjects@?$PxSerializerDefaultAdapter@VHeightField@Gu@physx@@@physx@@UBEXAAVPxBase@2@AAVPxProcessPxBaseCallback@2@@Z 10054230 f i NpSerializerAdapter.obj
 0001:00053240       ?requiresObjects@?$PxSerializerDefaultAdapter@VNpAggregate@physx@@@physx@@UBEXAAVPxBase@2@AAVPxProcessPxBaseCallback@2@@Z 10054240 f i NpSerializerAdapter.obj
 0001:00053250       ?requiresObjects@?$PxSerializerDefaultAdapter@VNpArticulation@physx@@@physx@@UBEXAAVPxBase@2@AAVPxProcessPxBaseCallback@2@@Z 10054250 f i NpSerializerAdapter.obj
 0001:00053270       ?requiresObjects@?$PxSerializerDefaultAdapter@VNpArticulationJoint@physx@@@physx@@UBEXAAVPxBase@2@AAVPxProcessPxBaseCallback@2@@Z 10054270 f i NpSerializerAdapter.obj
 0001:00053290       ?requiresObjects@?$PxSerializerDefaultAdapter@VNpArticulationJointReducedCoordinate@physx@@@physx@@UBEXAAVPxBase@2@AAVPxProcessPxBaseCallback@2@@Z 10054290 f i NpSerializerAdapter.obj
 0001:000532a0       ?requiresObjects@?$PxSerializerDefaultAdapter@VNpArticulationLink@physx@@@physx@@UBEXAAVPxBase@2@AAVPxProcessPxBaseCallback@2@@Z 100542a0 f i NpSerializerAdapter.obj
 0001:000532c0       ?requiresObjects@?$PxSerializerDefaultAdapter@VNpArticulationReducedCoordinate@physx@@@physx@@UBEXAAVPxBase@2@AAVPxProcessPxBaseCallback@2@@Z 100542c0 f i NpSerializerAdapter.obj
 0001:000532e0       ?requiresObjects@?$PxSerializerDefaultAdapter@VNpConstraint@physx@@@physx@@UBEXAAVPxBase@2@AAVPxProcessPxBaseCallback@2@@Z 100542e0 f i NpSerializerAdapter.obj
 0001:000532f0       ?requiresObjects@?$PxSerializerDefaultAdapter@VNpMaterial@physx@@@physx@@UBEXAAVPxBase@2@AAVPxProcessPxBaseCallback@2@@Z 100542f0 f i NpSerializerAdapter.obj
 0001:00053300       ?requiresObjects@?$PxSerializerDefaultAdapter@VNpRigidDynamic@physx@@@physx@@UBEXAAVPxBase@2@AAVPxProcessPxBaseCallback@2@@Z 10054300 f i NpSerializerAdapter.obj
 0001:00053320       ?requiresObjects@?$PxSerializerDefaultAdapter@VNpRigidStatic@physx@@@physx@@UBEXAAVPxBase@2@AAVPxProcessPxBaseCallback@2@@Z 10054320 f i NpSerializerAdapter.obj
 0001:00053330       ?requiresObjects@?$PxSerializerDefaultAdapter@VNpShape@physx@@@physx@@UBEXAAVPxBase@2@AAVPxProcessPxBaseCallback@2@@Z 10054330 f i NpSerializerAdapter.obj
 0001:00053350       ?requiresObjects@?$PxSerializerDefaultAdapter@VPruningStructure@Sq@physx@@@physx@@UBEXAAVPxBase@2@AAVPxProcessPxBaseCallback@2@@Z 10054350 f i NpSerializerAdapter.obj
 0001:00053360       ?requiresObjects@?$PxSerializerDefaultAdapter@VRTreeTriangleMesh@Gu@physx@@@physx@@UBEXAAVPxBase@2@AAVPxProcessPxBaseCallback@2@@Z 10054360 f i NpSerializerAdapter.obj
 0001:00053370       ?NpShapeGetScPtrOffset@physx@@YAIXZ 10054370 f   NpShape.obj
 0001:00053380       ?NpShapeIncRefCount@physx@@YAXAAVShape@Scb@1@@Z 10054380 f   NpShape.obj
 0001:00053390       ?NpShapeDecRefCount@physx@@YAXAAVShape@Scb@1@@Z 10054390 f   NpShape.obj
 0001:000533c0       ?NpShapeGetScRigidObjectFromScbSLOW@physx@@YAPAVRigidCore@Sc@1@ABVShape@Scb@1@@Z 100543c0 f   NpShape.obj
 0001:00053410       ??0NpShape@physx@@QAE@V?$PxFlags@W4Enum@PxBaseFlag@physx@@G@1@@Z 10054410 f   NpShape.obj
 0001:00053470       ?preExportDataReset@NpShape@physx@@QAEXXZ 10054470 f   NpShape.obj
 0001:00053490       ?exportExtraData@NpShape@physx@@UAEXAAVPxSerializationContext@2@@Z 10054490 f   NpShape.obj
 0001:000534c0       ?importExtraData@NpShape@physx@@QAEXAAVPxDeserializationContext@2@@Z 100544c0 f   NpShape.obj
 0001:00053500       ?requiresObjects@NpShape@physx@@UAEXAAVPxProcessPxBaseCallback@2@@Z 10054500 f   NpShape.obj
 0001:000535e0       ?resolveReferences@NpShape@physx@@QAEXAAVPxDeserializationContext@2@@Z 100545e0 f   NpShape.obj
 0001:00053750       ?createObject@NpShape@physx@@SAPAV12@AAPAEAAVPxDeserializationContext@2@@Z 10054750 f   NpShape.obj
 0001:00053800       ??0NpShape@physx@@QAE@ABVPxGeometry@1@V?$PxFlags@W4Enum@PxShapeFlag@physx@@E@1@PBGG_N@Z 10054800 f   NpShape.obj
 0001:00053930       ??1NpShape@physx@@UAE@XZ   10054930 f   NpShape.obj
 0001:00053a10       ?release@NpShape@physx@@UAEXXZ 10054a10 f   NpShape.obj
 0001:00053ab0       ?getReferenceCount@NpShape@physx@@UBEIXZ 10054ab0 f   NpShape.obj
 0001:00053ac0       ?acquireReference@NpShape@physx@@UAEXXZ 10054ac0 f   NpShape.obj
 0001:00053ad0       ?getGeometryType@NpShape@physx@@UBE?AW4Enum@PxGeometryType@2@XZ 10054ad0 f   NpShape.obj
 0001:00053b10       ?setGeometry@NpShape@physx@@UAEXABVPxGeometry@2@@Z 10054b10 f   NpShape.obj
 0001:00054140       ?getGeometry@NpShape@physx@@UBE?AVPxGeometryHolder@2@XZ 10055140 f   NpShape.obj
 0001:00054170       ?getBoxGeometry@NpShape@physx@@UBE_NAAVPxBoxGeometry@2@@Z 10055170 f   NpShape.obj
 0001:00054200       ?getSphereGeometry@NpShape@physx@@UBE_NAAVPxSphereGeometry@2@@Z 10055200 f   NpShape.obj
 0001:00054280       ?getCapsuleGeometry@NpShape@physx@@UBE_NAAVPxCapsuleGeometry@2@@Z 10055280 f   NpShape.obj
 0001:00054300       ?getPlaneGeometry@NpShape@physx@@UBE_NAAVPxPlaneGeometry@2@@Z 10055300 f   NpShape.obj
 0001:00054370       ?getConvexMeshGeometry@NpShape@physx@@UBE_NAAVPxConvexMeshGeometry@2@@Z 10055370 f   NpShape.obj
 0001:00054430       ?getTriangleMeshGeometry@NpShape@physx@@UBE_NAAVPxTriangleMeshGeometry@2@@Z 10055430 f   NpShape.obj
 0001:000544f0       ?getHeightFieldGeometry@NpShape@physx@@UBE_NAAVPxHeightFieldGeometry@2@@Z 100554f0 f   NpShape.obj
 0001:000545a0       ?getActor@NpShape@physx@@UBEPAVPxRigidActor@2@XZ 100555a0 f   NpShape.obj
 0001:000545e0       ?setLocalPose@NpShape@physx@@UAEXABVPxTransform@2@@Z 100555e0 f   NpShape.obj
 0001:00054760       ?getLocalPose@NpShape@physx@@UBE?AVPxTransform@2@XZ 10055760 f   NpShape.obj
 0001:000547e0       ?setSimulationFilterData@NpShape@physx@@UAEXABUPxFilterData@2@@Z 100557e0 f   NpShape.obj
 0001:00054890       ?getSimulationFilterData@NpShape@physx@@UBE?AUPxFilterData@2@XZ 10055890 f   NpShape.obj
 0001:00054900       ?setQueryFilterData@NpShape@physx@@UAEXABUPxFilterData@2@@Z 10055900 f   NpShape.obj
 0001:000549e0       ?getQueryFilterData@NpShape@physx@@UBE?AUPxFilterData@2@XZ 100559e0 f   NpShape.obj
 0001:00054a40       ?setMaterials@NpShape@physx@@UAEXPBQAVPxMaterial@2@G@Z 10055a40 f   NpShape.obj
 0001:00054cf0       ?getNbMaterials@NpShape@physx@@UBEGXZ 10055cf0 f   NpShape.obj
 0001:00054d60       ?getMaterials@NpShape@physx@@UBEIPAPAVPxMaterial@2@II@Z 10055d60 f   NpShape.obj
 0001:00054dc0       ?getMaterialFromInternalFaceIndex@NpShape@physx@@UBEPAVPxMaterial@2@I@Z 10055dc0 f   NpShape.obj
 0001:00054f40       ?setContactOffset@NpShape@physx@@UAEXM@Z 10055f40 f   NpShape.obj
 0001:000551b0       ?getContactOffset@NpShape@physx@@UBEMXZ 100561b0 f   NpShape.obj
 0001:00055210       ?setRestOffset@NpShape@physx@@UAEXM@Z 10056210 f   NpShape.obj
 0001:00055460       ?getRestOffset@NpShape@physx@@UBEMXZ 10056460 f   NpShape.obj
 0001:000554c0       ?setTorsionalPatchRadius@NpShape@physx@@UAEXM@Z 100564c0 f   NpShape.obj
 0001:000556a0       ?getTorsionalPatchRadius@NpShape@physx@@UBEMXZ 100566a0 f   NpShape.obj
 0001:00055700       ?setMinTorsionalPatchRadius@NpShape@physx@@UAEXM@Z 10056700 f   NpShape.obj
 0001:000558e0       ?getMinTorsionalPatchRadius@NpShape@physx@@UBEMXZ 100568e0 f   NpShape.obj
 0001:00055940       ?setFlag@NpShape@physx@@UAEXW4Enum@PxShapeFlag@2@_N@Z 10056940 f   NpShape.obj
 0001:00055a70       ?setFlags@NpShape@physx@@UAEXV?$PxFlags@W4Enum@PxShapeFlag@physx@@E@2@@Z 10056a70 f   NpShape.obj
 0001:00055b60       ?getFlags@NpShape@physx@@UBE?AV?$PxFlags@W4Enum@PxShapeFlag@physx@@E@2@XZ 10056b60 f   NpShape.obj
 0001:00055bc0       ?isExclusive@NpShape@physx@@UBE_NXZ 10056bc0 f   NpShape.obj
 0001:00055c10       ?setName@NpShape@physx@@UAEXPBD@Z 10056c10 f   NpShape.obj
 0001:00055ce0       ?getName@NpShape@physx@@UBEPBDXZ 10056ce0 f   NpShape.obj
 0001:00055d20       ?onRefCountZero@NpShape@physx@@UAEXXZ 10056d20 f   NpShape.obj
 0001:00055d40       ?setFlagsInternal@NpShape@physx@@QAEXV?$PxFlags@W4Enum@PxShapeFlag@physx@@E@2@@Z 10056d40 f   NpShape.obj
 0001:00055fc0       ?checkMaterialSetup@NpShape@physx@@SA_NABVPxGeometry@2@PBDPBQAVPxMaterial@2@G@Z 10056fc0 f   NpShape.obj
 0001:00056160       ?onActorAttach@NpShape@physx@@QAEXAAVPxRigidActor@2@@Z 10057160 f   NpShape.obj
 0001:000561a0       ?onActorDetach@NpShape@physx@@QAEXXZ 100571a0 f   NpShape.obj
 0001:000561e0       ?getScRigidObjectExclusive@NpShape@physx@@QBEAAVRigidCore@Sc@2@XZ 100571e0 f   NpShape.obj
 0001:000561f0       ?releaseInternal@NpShape@physx@@QAEXXZ 100571f0 f   NpShape.obj
 0001:00056210       ?getOwnerScene@NpShape@physx@@QBEPAVNpScene@2@XZ 10057210 f   NpShape.obj
 0001:00056230       ?getAPIScene@NpShape@physx@@ABEPAVNpScene@2@XZ 10057230 f   NpShape.obj
 0001:00056240       ?incMeshRefCount@NpShape@physx@@AAEXXZ 10057240 f   NpShape.obj
 0001:00056260       ?decMeshRefCount@NpShape@physx@@AAEXXZ 10057260 f   NpShape.obj
 0001:00056290       ?getMeshRefCountable@NpShape@physx@@AAEPAVRefCountable@Cm@2@XZ 10057290 f   NpShape.obj
 0001:00056300       ?isWritable@NpShape@physx@@AAE_NXZ 10057300 f   NpShape.obj
 0001:00056320       ?updateSQ@NpShape@physx@@AAEXPBD@Z 10057320 f   NpShape.obj
 0001:000563b0       ??$allocArrayBuffer@G@Scene@Scb@physx@@AAEPAGAAV?$Array@GVNamedAllocator@shdfnd@physx@@@shdfnd@2@IAAI@Z 100573b0 f i NpShape.obj
 0001:000563f0       ??1PxShape@physx@@MAE@XZ   100573f0 f i NpShape.obj
 0001:000563f7       ??_ENpShape@physx@@WM@AEPAXI@Z 100573f7 f i NpShape.obj
 0001:00056400       ??_ENpShape@physx@@UAEPAXI@Z 10057400 f i NpShape.obj
 0001:00056400       ??_GNpShape@physx@@UAEPAXI@Z 10057400 f i NpShape.obj
 0001:00056510       ??_EPxShape@physx@@MAEPAXI@Z 10057510 f i NpShape.obj
 0001:00056510       ??_GPxShape@physx@@MAEPAXI@Z 10057510 f i NpShape.obj
 0001:00056540       ?getConcreteTypeName@PxShape@physx@@UBEPBDXZ 10057540 f i NpShape.obj
 0001:00056550       ?getMaterials@Shape@Scb@physx@@QBEIPAPAVPxMaterial@3@II@Z 10057550 f i NpShape.obj
 0001:000565e0       ?isKindOf@PxShape@physx@@MBE_NPBD@Z 100575e0 f i NpShape.obj
 0001:00056660       ?setGeometry@Shape@Scb@physx@@QAEPAUShapeBuffer@23@ABVPxGeometry@3@@Z 10057660 f i NpShape.obj
 0001:00056780       ?setShape2Actor@Shape@Scb@physx@@QAEXABVPxTransform@3@@Z 10057780 f i NpShape.obj
 0001:000568e0       ?setSimulationFilterData@Shape@Scb@physx@@QAEXABUPxFilterData@3@@Z 100578e0 f i NpShape.obj
 0001:00056a10       ??0NpShapeManager@physx@@QAE@W4PxEMPTY@1@@Z 10057a10 f   NpShapeManager.obj
 0001:00056a50       ?preExportDataReset@NpShapeManager@physx@@QAEXXZ 10057a50 f   NpShapeManager.obj
 0001:00056a70       ?exportExtraData@NpShapeManager@physx@@QAEXAAVPxSerializationContext@2@@Z 10057a70 f   NpShapeManager.obj
 0001:00056ac0       ?importExtraData@NpShapeManager@physx@@QAEXAAVPxDeserializationContext@2@@Z 10057ac0 f   NpShapeManager.obj
 0001:00056ae0       ??0NpShapeManager@physx@@QAE@XZ 10057ae0 f   NpShapeManager.obj
 0001:00056b10       ??1NpShapeManager@physx@@QAE@XZ 10057b10 f   NpShapeManager.obj
 0001:00056b50       ?getShapes@NpShapeManager@physx@@QBEIPAPAVPxShape@2@II@Z 10057b50 f   NpShapeManager.obj
 0001:00056ba0       ?attachShape@NpShapeManager@physx@@QAEXAAVNpShape@2@AAVPxRigidActor@2@@Z 10057ba0 f   NpShapeManager.obj
 0001:00056c30       ?detachShape@NpShapeManager@physx@@QAE_NAAVNpShape@2@AAVPxRigidActor@2@_N@Z 10057c30 f   NpShapeManager.obj
 0001:00056d40       ?detachAll@NpShapeManager@physx@@QAEXPAVNpScene@2@ABVPxRigidActor@2@@Z 10057d40 f   NpShapeManager.obj
 0001:00056e90       ?teardownSceneQuery@NpShapeManager@physx@@QAEXAAVSceneQueryManager@Sq@2@ABVNpShape@2@@Z 10057e90 f   NpShapeManager.obj
 0001:00056ef0       ?setupSceneQuery@NpShapeManager@physx@@QAEXAAVSceneQueryManager@Sq@2@ABVPxRigidActor@2@ABVNpShape@2@@Z 10057ef0 f   NpShapeManager.obj
 0001:00056f20       ?addPrunerShape@NpShapeManager@physx@@QAEXAAVSceneQueryManager@Sq@2@IABVNpShape@2@ABVPxRigidActor@2@_NPBVPxBounds3@2@3@Z 10057f20 f   NpShapeManager.obj
 0001:00056f80       ?setupAllSceneQuery@NpShapeManager@physx@@QAEXPAVNpScene@2@ABVPxRigidActor@2@_NPBVPxBounds3@2@PBVBVHStructure@Gu@2@@Z 10057f80 f   NpShapeManager.obj
 0001:00057070       ?teardownAllSceneQuery@NpShapeManager@physx@@QAEXAAVSceneQueryManager@Sq@2@ABVPxRigidActor@2@@Z 10058070 f   NpShapeManager.obj
 0001:00057150       ?markAllSceneQueryForUpdate@NpShapeManager@physx@@QAEXAAVSceneQueryManager@Sq@2@ABVPxRigidActor@2@@Z 10058150 f   NpShapeManager.obj
 0001:000571e0       ?findSceneQueryData@NpShapeManager@physx@@QBEIABVNpShape@2@AAI@Z 100581e0 f   NpShapeManager.obj
 0001:00057220       ?findSceneQueryData@NpShapeManager@physx@@QBEIABVNpShape@2@@Z 10058220 f   NpShapeManager.obj
 0001:00057250       ?getWorldBounds@NpShapeManager@physx@@QBE?AVPxBounds3@2@ABVPxRigidActor@2@@Z 10058250 f   NpShapeManager.obj
 0001:000575b0       ?addBVHStructureShapes@NpShapeManager@physx@@QAEXAAVSceneQueryManager@Sq@2@ABVPxRigidActor@2@PBVBVHStructure@Gu@2@@Z 100585b0 f   NpShapeManager.obj
 0001:00057740       ?clearShapesOnRelease@NpShapeManager@physx@@QAEXAAVScene@Scb@2@AAVPxRigidActor@2@@Z 10058740 f   NpShapeManager.obj
 0001:000577c0       ?releaseExclusiveUserReferences@NpShapeManager@physx@@QAEXXZ 100587c0 f   NpShapeManager.obj
 0001:00057810       ?visualize@NpShapeManager@physx@@QAEXAAVRenderOutput@Cm@2@PAVNpScene@2@ABVPxRigidActor@2@@Z 10058810 f   NpShapeManager.obj
 0001:00058130       ?setupSceneQuery@NpShapeManager@physx@@IAEXAAVSceneQueryManager@Sq@2@ABVPxRigidActor@2@I@Z 10059130 f   NpShapeManager.obj
 0001:000581b0       ?teardownSceneQuery@NpShapeManager@physx@@IAEXAAVSceneQueryManager@Sq@2@I@Z 100591b0 f   NpShapeManager.obj
 0001:00058250       ??0PxMat44@physx@@QAE@ABVPxMat33@1@ABVPxVec3@1@@Z 10059250 f i NpShapeManager.obj
 0001:000582d0       ??0PxMat44@physx@@QAE@ABVPxTransform@1@@Z 100592d0 f i NpShapeManager.obj
 0001:00058470       ??0PxVec4@physx@@QAE@XZ    10059470 f i NpShapeManager.obj
 0001:000586f0       ?growAndPushBack@?$Array@PAVShape@Scb@physx@@V?$InlineAllocator@$0BA@VNamedAllocator@shdfnd@physx@@@shdfnd@3@@shdfnd@physx@@IAEAAPAVShape@Scb@3@ABQAV453@@Z 100596f0 f i NpShapeManager.obj
 0001:000587c0       ?growAndPushBack@?$Array@URemovedShape@Scb@physx@@V?$InlineAllocator@$0CA@VNamedAllocator@shdfnd@physx@@@shdfnd@3@@shdfnd@physx@@IAEAAURemovedShape@Scb@3@ABU453@@Z 100597c0 f i NpShapeManager.obj
 0001:000588a0       ?onShapeAttach@RigidObject@Scb@physx@@QAEXAAVShape@23@@Z 100598a0 f i NpShapeManager.obj
 0001:00058a50       ?onShapeDetach@RigidObject@Scb@physx@@QAEXAAVShape@23@_N1@Z 10059a50 f i NpShapeManager.obj
 0001:0005b580       ??0NpWriteCheck@physx@@QAE@PAVNpScene@1@PBD_N@Z 1005c580 f   NpWriteCheck.obj
 0001:0005b630       ??1NpWriteCheck@physx@@QAE@XZ 1005c630 f   NpWriteCheck.obj
 0001:0005b6b0       ??0PvdMetaDataBinding@Vd@physx@@QAE@XZ 1005c6b0 f   PvdMetaDataPvdBinding.obj
 0001:0005b8a0       ??1PvdMetaDataBinding@Vd@physx@@QAE@XZ 1005c8a0 f   PvdMetaDataPvdBinding.obj
 0001:0005ba10       ?registerSDKProperties@PvdMetaDataBinding@Vd@physx@@QAEXAAVPvdDataStream@pvdsdk@3@@Z 1005ca10 f   PvdMetaDataPvdBinding.obj
 0001:000604d0       ?sendAllProperties@PvdMetaDataBinding@Vd@physx@@QAEXAAVPvdDataStream@pvdsdk@3@ABVPxPhysics@3@@Z 100614d0 f   PvdMetaDataPvdBinding.obj
 0001:00060630       ?sendAllProperties@PvdMetaDataBinding@Vd@physx@@QAEXAAVPvdDataStream@pvdsdk@3@ABVPxScene@3@@Z 10061630 f   PvdMetaDataPvdBinding.obj
 0001:000609a0       ?sendBeginFrame@PvdMetaDataBinding@Vd@physx@@QAEXAAVPvdDataStream@pvdsdk@3@PBVPxScene@3@M@Z 100619a0 f   PvdMetaDataPvdBinding.obj
 0001:00060a40       ?sendContacts@PvdMetaDataBinding@Vd@physx@@QAEXAAVPvdDataStream@pvdsdk@3@ABVPxScene@3@AAV?$Array@UContact@Sc@physx@@VNamedAllocator@shdfnd@3@@shdfnd@3@@Z 10061a40 f   PvdMetaDataPvdBinding.obj
 0001:00060bb0       ?sendContacts@PvdMetaDataBinding@Vd@physx@@QAEXAAVPvdDataStream@pvdsdk@3@ABVPxScene@3@@Z 10061bb0 f   PvdMetaDataPvdBinding.obj
 0001:00060c00       ?sendStats@PvdMetaDataBinding@Vd@physx@@QAEXAAVPvdDataStream@pvdsdk@3@PBVPxScene@3@@Z 10061c00 f   PvdMetaDataPvdBinding.obj
 0001:00060d30       ?sendSceneQueries@PvdMetaDataBinding@Vd@physx@@QAEXAAVPvdDataStream@pvdsdk@3@ABVPxScene@3@PAVPsPvd@53@@Z 10061d30 f   PvdMetaDataPvdBinding.obj
 0001:000610d0       ?sendEndFrame@PvdMetaDataBinding@Vd@physx@@QAEXAAVPvdDataStream@pvdsdk@3@PBVPxScene@3@@Z 100620d0 f   PvdMetaDataPvdBinding.obj
 0001:000610f0       ?createInstance@PvdMetaDataBinding@Vd@physx@@QAEXAAVPvdDataStream@pvdsdk@3@ABVPxMaterial@3@ABVPxPhysics@3@@Z 100620f0 f   PvdMetaDataPvdBinding.obj
 0001:000611b0       ?sendAllProperties@PvdMetaDataBinding@Vd@physx@@QAEXAAVPvdDataStream@pvdsdk@3@ABVPxMaterial@3@@Z 100621b0 f   PvdMetaDataPvdBinding.obj
 0001:00061200       ?destroyInstance@PvdMetaDataBinding@Vd@physx@@QAEXAAVPvdDataStream@pvdsdk@3@ABVPxMaterial@3@ABVPxPhysics@3@@Z 10062200 f   PvdMetaDataPvdBinding.obj
 0001:00061230       ?createInstance@PvdMetaDataBinding@Vd@physx@@QAEXAAVPvdDataStream@pvdsdk@3@ABVPxHeightField@3@ABVPxPhysics@3@@Z 10062230 f   PvdMetaDataPvdBinding.obj
 0001:000612c0       ?sendAllProperties@PvdMetaDataBinding@Vd@physx@@QAEXAAVPvdDataStream@pvdsdk@3@ABVPxHeightField@3@@Z 100622c0 f   PvdMetaDataPvdBinding.obj
 0001:000613e0       ?destroyInstance@PvdMetaDataBinding@Vd@physx@@QAEXAAVPvdDataStream@pvdsdk@3@ABVPxHeightField@3@ABVPxPhysics@3@@Z 100623e0 f   PvdMetaDataPvdBinding.obj
 0001:00061410       ?createInstance@PvdMetaDataBinding@Vd@physx@@QAEXAAVPvdDataStream@pvdsdk@3@ABVPxConvexMesh@3@ABVPxPhysics@3@@Z 10062410 f   PvdMetaDataPvdBinding.obj
 0001:00061690       ?destroyInstance@PvdMetaDataBinding@Vd@physx@@QAEXAAVPvdDataStream@pvdsdk@3@ABVPxConvexMesh@3@ABVPxPhysics@3@@Z 10062690 f   PvdMetaDataPvdBinding.obj
 0001:000616c0       ?createInstance@PvdMetaDataBinding@Vd@physx@@QAEXAAVPvdDataStream@pvdsdk@3@ABVPxTriangleMesh@3@ABVPxPhysics@3@@Z 100626c0 f   PvdMetaDataPvdBinding.obj
 0001:000618e0       ?destroyInstance@PvdMetaDataBinding@Vd@physx@@QAEXAAVPvdDataStream@pvdsdk@3@ABVPxTriangleMesh@3@ABVPxPhysics@3@@Z 100628e0 f   PvdMetaDataPvdBinding.obj
 0001:00061910       ?createInstance@PvdMetaDataBinding@Vd@physx@@QAEXAAVPvdDataStream@pvdsdk@3@ABVPxRigidStatic@3@ABVPxScene@3@ABVPxPhysics@3@PAVPsPvd@53@@Z 10062910 f   PvdMetaDataPvdBinding.obj
 0001:000619e0       ?sendAllProperties@PvdMetaDataBinding@Vd@physx@@QAEXAAVPvdDataStream@pvdsdk@3@ABVPxRigidStatic@3@@Z 100629e0 f   PvdMetaDataPvdBinding.obj
 0001:00061a30       ?destroyInstance@PvdMetaDataBinding@Vd@physx@@QAEXAAVPvdDataStream@pvdsdk@3@ABVPxRigidStatic@3@ABVPxScene@3@@Z 10062a30 f   PvdMetaDataPvdBinding.obj
 0001:00061a70       ?createInstance@PvdMetaDataBinding@Vd@physx@@QAEXAAVPvdDataStream@pvdsdk@3@ABVPxRigidDynamic@3@ABVPxScene@3@ABVPxPhysics@3@PAVPsPvd@53@@Z 10062a70 f   PvdMetaDataPvdBinding.obj
 0001:00061b60       ?sendAllProperties@PvdMetaDataBinding@Vd@physx@@QAEXAAVPvdDataStream@pvdsdk@3@ABVPxRigidDynamic@3@@Z 10062b60 f   PvdMetaDataPvdBinding.obj
 0001:00061bc0       ?destroyInstance@PvdMetaDataBinding@Vd@physx@@QAEXAAVPvdDataStream@pvdsdk@3@ABVPxRigidDynamic@3@ABVPxScene@3@@Z 10062bc0 f   PvdMetaDataPvdBinding.obj
 0001:00061c00       ?createInstance@PvdMetaDataBinding@Vd@physx@@QAEXAAVPvdDataStream@pvdsdk@3@ABVPxArticulationBase@3@ABVPxScene@3@ABVPxPhysics@3@PAVPsPvd@53@@Z 10062c00 f   PvdMetaDataPvdBinding.obj
 0001:00061e90       ?sendAllProperties@PvdMetaDataBinding@Vd@physx@@QAEXAAVPvdDataStream@pvdsdk@3@ABVPxArticulationBase@3@@Z 10062e90 f   PvdMetaDataPvdBinding.obj
 0001:00061ee0       ?destroyInstance@PvdMetaDataBinding@Vd@physx@@QAEXAAVPvdDataStream@pvdsdk@3@ABVPxArticulationBase@3@ABVPxScene@3@@Z 10062ee0 f   PvdMetaDataPvdBinding.obj
 0001:00061f10       ?createInstance@PvdMetaDataBinding@Vd@physx@@QAEXAAVPvdDataStream@pvdsdk@3@ABVPxArticulationLink@3@ABVPxPhysics@3@PAVPsPvd@53@@Z 10062f10 f   PvdMetaDataPvdBinding.obj
 0001:00062090       ?sendAllProperties@PvdMetaDataBinding@Vd@physx@@QAEXAAVPvdDataStream@pvdsdk@3@ABVPxArticulationLink@3@@Z 10063090 f   PvdMetaDataPvdBinding.obj
 0001:000620f0       ?destroyInstance@PvdMetaDataBinding@Vd@physx@@QAEXAAVPvdDataStream@pvdsdk@3@ABVPxArticulationLink@3@@Z 100630f0 f   PvdMetaDataPvdBinding.obj
 0001:00062130       ?createInstance@PvdMetaDataBinding@Vd@physx@@QAEXAAVPvdDataStream@pvdsdk@3@ABVPxShape@3@ABVPxRigidActor@3@ABVPxPhysics@3@PAVPsPvd@53@@Z 10063130 f   PvdMetaDataPvdBinding.obj
 0001:00062460       ?sendAllProperties@PvdMetaDataBinding@Vd@physx@@QAEXAAVPvdDataStream@pvdsdk@3@ABVPxShape@3@@Z 10063460 f   PvdMetaDataPvdBinding.obj
 0001:000624c0       ?releaseAndRecreateGeometry@PvdMetaDataBinding@Vd@physx@@QAEXAAVPvdDataStream@pvdsdk@3@ABVPxShape@3@AAVPxPhysics@3@PAVPsPvd@53@@Z 100634c0 f   PvdMetaDataPvdBinding.obj
 0001:000625a0       ?updateMaterials@PvdMetaDataBinding@Vd@physx@@QAEXAAVPvdDataStream@pvdsdk@3@ABVPxShape@3@PAVPsPvd@53@@Z 100635a0 f   PvdMetaDataPvdBinding.obj
 0001:00062600       ?destroyInstance@PvdMetaDataBinding@Vd@physx@@QAEXAAVPvdDataStream@pvdsdk@3@ABVPxShape@3@ABVPxRigidActor@3@@Z 10063600 f   PvdMetaDataPvdBinding.obj
 0001:00062840       ?sendAllProperties@PvdMetaDataBinding@Vd@physx@@QAEXAAVPvdDataStream@pvdsdk@3@ABVPxArticulationJointBase@3@@Z 10063840 f   PvdMetaDataPvdBinding.obj
 0001:00062890       ?updateDynamicActorsAndArticulations@PvdMetaDataBinding@Vd@physx@@QAEXAAVPvdDataStream@pvdsdk@3@PBVPxScene@3@PAVPvdVisualizer@23@@Z 10063890 f   PvdMetaDataPvdBinding.obj
 0001:00062ab0       ?originShift@PvdMetaDataBinding@Vd@physx@@QAEXAAVPvdDataStream@pvdsdk@3@PBVPxScene@3@VPxVec3@3@@Z 10063ab0 f   PvdMetaDataPvdBinding.obj
 0001:00062af0       ?createInstance@PvdMetaDataBinding@Vd@physx@@QAEXAAVPvdDataStream@pvdsdk@3@ABVPxAggregate@3@ABVPxScene@3@@Z 10063af0 f   PvdMetaDataPvdBinding.obj
 0001:00062bb0       ?sendAllProperties@PvdMetaDataBinding@Vd@physx@@QAEXAAVPvdDataStream@pvdsdk@3@ABVPxAggregate@3@@Z 10063bb0 f   PvdMetaDataPvdBinding.obj
 0001:00062c00       ?destroyInstance@PvdMetaDataBinding@Vd@physx@@QAEXAAVPvdDataStream@pvdsdk@3@ABVPxAggregate@3@ABVPxScene@3@@Z 10063c00 f   PvdMetaDataPvdBinding.obj
 0001:00062c30       ?detachAggregateActor@PvdMetaDataBinding@Vd@physx@@QAEXAAVPvdDataStream@pvdsdk@3@ABVPxAggregate@3@ABVPxActor@3@@Z 10063c30 f   PvdMetaDataPvdBinding.obj
 0001:00062c50       ?attachAggregateActor@PvdMetaDataBinding@Vd@physx@@QAEXAAVPvdDataStream@pvdsdk@3@ABVPxAggregate@3@ABVPxActor@3@@Z 10063c50 f   PvdMetaDataPvdBinding.obj
 0001:00062c70       ??$registrarPhysicsObject@VPxConvexMeshGeometry@physx@@@PvdMetaDataBinding@Vd@physx@@QAEXAAVPvdDataStream@pvdsdk@2@ABVPxConvexMeshGeometry@2@PAVPsPvd@42@@Z 10063c70 f   PvdMetaDataPvdBinding.obj
 0001:00062cb0       ??$registrarPhysicsObject@VPxTriangleMeshGeometry@physx@@@PvdMetaDataBinding@Vd@physx@@QAEXAAVPvdDataStream@pvdsdk@2@ABVPxTriangleMeshGeometry@2@PAVPsPvd@42@@Z 10063cb0 f   PvdMetaDataPvdBinding.obj
 0001:00062cf0       ??$registrarPhysicsObject@VPxHeightFieldGeometry@physx@@@PvdMetaDataBinding@Vd@physx@@QAEXAAVPvdDataStream@pvdsdk@2@ABVPxHeightFieldGeometry@2@PAVPsPvd@42@@Z 10063cf0 f   PvdMetaDataPvdBinding.obj
 0001:00062da0       ??$addPropertyMessage@VPxArticulationLink@physx@@UPxArticulationLinkUpdateBlock@Vd@2@@PvdPropertyDefinitionHelper@pvdsdk@physx@@QAEXXZ 10063da0 f i PvdMetaDataPvdBinding.obj
 0001:00062de0       ??$addPropertyMessageArg@I@PvdPropertyDefinitionHelper@pvdsdk@physx@@QAEXI@Z 10063de0 f i PvdMetaDataPvdBinding.obj
 0001:00062e10       ??$addPropertyMessageArg@VPxTransform@physx@@@PvdPropertyDefinitionHelper@pvdsdk@physx@@QAEXI@Z 10063e10 f i PvdMetaDataPvdBinding.obj
 0001:00062e40       ??$addPropertyMessageArg@VPxVec3@physx@@@PvdPropertyDefinitionHelper@pvdsdk@physx@@QAEXI@Z 10063e40 f i PvdMetaDataPvdBinding.obj
 0001:00062e70       ??$addPropertyMessageArg@_N@PvdPropertyDefinitionHelper@pvdsdk@physx@@QAEXI@Z 10063e70 f i PvdMetaDataPvdBinding.obj
 0001:00063330       ??$createProperty@UPvdContact@Vd@physx@@I@PvdMetaDataStream@pvdsdk@physx@@QAE?AW4Enum@PvdErrorType@12@PBD0W43PropertyType@12@V?$DataRef@UNamedValue@pvdsdk@physx@@@12@@Z 10064330 f i PvdMetaDataPvdBinding.obj
 0001:00063390       ??$createProperty@UPvdContact@Vd@physx@@M@PvdMetaDataStream@pvdsdk@physx@@QAE?AW4Enum@PvdErrorType@12@PBD0W43PropertyType@12@V?$DataRef@UNamedValue@pvdsdk@physx@@@12@@Z 10064390 f i PvdMetaDataPvdBinding.obj
 0001:000633f0       ??$createProperty@UPvdContact@Vd@physx@@UObjectRef@pvdsdk@3@@PvdMetaDataStream@pvdsdk@physx@@QAE?AW4Enum@PvdErrorType@12@PBD0W43PropertyType@12@V?$DataRef@UNamedValue@pvdsdk@physx@@@12@@Z 100643f0 f i PvdMetaDataPvdBinding.obj
 0001:00063450       ??$createProperty@UPvdContact@Vd@physx@@VPxVec3@3@@PvdMetaDataStream@pvdsdk@physx@@QAE?AW4Enum@PvdErrorType@12@PBD0W43PropertyType@12@V?$DataRef@UNamedValue@pvdsdk@physx@@@12@@Z 10064450 f i PvdMetaDataPvdBinding.obj
 0001:000634b0       ??$createProperty@UPvdHullPolygonData@Vd@physx@@G@PvdMetaDataStream@pvdsdk@physx@@QAE?AW4Enum@PvdErrorType@12@PBD0W43PropertyType@12@V?$DataRef@UNamedValue@pvdsdk@physx@@@12@@Z 100644b0 f i PvdMetaDataPvdBinding.obj
 0001:00063510       ??$createProperty@UPvdOverlap@Vd@physx@@I@PvdMetaDataStream@pvdsdk@physx@@QAE?AW4Enum@PvdErrorType@12@PBD0W43PropertyType@12@V?$DataRef@UNamedValue@pvdsdk@physx@@@12@@Z 10064510 f i PvdMetaDataPvdBinding.obj
 0001:00063570       ??$createProperty@UPvdOverlap@Vd@physx@@PBD@PvdMetaDataStream@pvdsdk@physx@@QAE?AW4Enum@PvdErrorType@12@PBD0W43PropertyType@12@V?$DataRef@UNamedValue@pvdsdk@physx@@@12@@Z 10064570 f i PvdMetaDataPvdBinding.obj
 0001:000635d0       ??$createProperty@UPvdOverlap@Vd@physx@@UPxFilterData@3@@PvdMetaDataStream@pvdsdk@physx@@QAE?AW4Enum@PvdErrorType@12@PBD0W43PropertyType@12@V?$DataRef@UNamedValue@pvdsdk@physx@@@12@@Z 100645d0 f i PvdMetaDataPvdBinding.obj
 0001:00063630       ??$createProperty@UPvdOverlap@Vd@physx@@VPxTransform@3@@PvdMetaDataStream@pvdsdk@physx@@QAE?AW4Enum@PvdErrorType@12@PBD0W43PropertyType@12@V?$DataRef@UNamedValue@pvdsdk@physx@@@12@@Z 10064630 f i PvdMetaDataPvdBinding.obj
 0001:00063690       ??$createProperty@UPvdRaycast@Vd@physx@@I@PvdMetaDataStream@pvdsdk@physx@@QAE?AW4Enum@PvdErrorType@12@PBD0W43PropertyType@12@V?$DataRef@UNamedValue@pvdsdk@physx@@@12@@Z 10064690 f i PvdMetaDataPvdBinding.obj
 0001:000636f0       ??$createProperty@UPvdRaycast@Vd@physx@@M@PvdMetaDataStream@pvdsdk@physx@@QAE?AW4Enum@PvdErrorType@12@PBD0W43PropertyType@12@V?$DataRef@UNamedValue@pvdsdk@physx@@@12@@Z 100646f0 f i PvdMetaDataPvdBinding.obj
 0001:00063750       ??$createProperty@UPvdRaycast@Vd@physx@@PBD@PvdMetaDataStream@pvdsdk@physx@@QAE?AW4Enum@PvdErrorType@12@PBD0W43PropertyType@12@V?$DataRef@UNamedValue@pvdsdk@physx@@@12@@Z 10064750 f i PvdMetaDataPvdBinding.obj
 0001:000637b0       ??$createProperty@UPvdRaycast@Vd@physx@@UPxFilterData@3@@PvdMetaDataStream@pvdsdk@physx@@QAE?AW4Enum@PvdErrorType@12@PBD0W43PropertyType@12@V?$DataRef@UNamedValue@pvdsdk@physx@@@12@@Z 100647b0 f i PvdMetaDataPvdBinding.obj
 0001:00063810       ??$createProperty@UPvdRaycast@Vd@physx@@VPxVec3@3@@PvdMetaDataStream@pvdsdk@physx@@QAE?AW4Enum@PvdErrorType@12@PBD0W43PropertyType@12@V?$DataRef@UNamedValue@pvdsdk@physx@@@12@@Z 10064810 f i PvdMetaDataPvdBinding.obj
 0001:00063870       ??$createProperty@UPvdSqHit@Vd@physx@@I@PvdMetaDataStream@pvdsdk@physx@@QAE?AW4Enum@PvdErrorType@12@PBD0W43PropertyType@12@V?$DataRef@UNamedValue@pvdsdk@physx@@@12@@Z 10064870 f i PvdMetaDataPvdBinding.obj
 0001:000638d0       ??$createProperty@UPvdSqHit@Vd@physx@@M@PvdMetaDataStream@pvdsdk@physx@@QAE?AW4Enum@PvdErrorType@12@PBD0W43PropertyType@12@V?$DataRef@UNamedValue@pvdsdk@physx@@@12@@Z 100648d0 f i PvdMetaDataPvdBinding.obj
 0001:00063930       ??$createProperty@UPvdSqHit@Vd@physx@@UObjectRef@pvdsdk@3@@PvdMetaDataStream@pvdsdk@physx@@QAE?AW4Enum@PvdErrorType@12@PBD0W43PropertyType@12@V?$DataRef@UNamedValue@pvdsdk@physx@@@12@@Z 10064930 f i PvdMetaDataPvdBinding.obj
 0001:00063990       ??$createProperty@UPvdSqHit@Vd@physx@@VPxVec3@3@@PvdMetaDataStream@pvdsdk@physx@@QAE?AW4Enum@PvdErrorType@12@PBD0W43PropertyType@12@V?$DataRef@UNamedValue@pvdsdk@physx@@@12@@Z 10064990 f i PvdMetaDataPvdBinding.obj
 0001:000639f0       ??$createProperty@UPvdSweep@Vd@physx@@I@PvdMetaDataStream@pvdsdk@physx@@QAE?AW4Enum@PvdErrorType@12@PBD0W43PropertyType@12@V?$DataRef@UNamedValue@pvdsdk@physx@@@12@@Z 100649f0 f i PvdMetaDataPvdBinding.obj
 0001:00063a50       ??$createProperty@UPvdSweep@Vd@physx@@M@PvdMetaDataStream@pvdsdk@physx@@QAE?AW4Enum@PvdErrorType@12@PBD0W43PropertyType@12@V?$DataRef@UNamedValue@pvdsdk@physx@@@12@@Z 10064a50 f i PvdMetaDataPvdBinding.obj
 0001:00063ab0       ??$createProperty@UPvdSweep@Vd@physx@@PBD@PvdMetaDataStream@pvdsdk@physx@@QAE?AW4Enum@PvdErrorType@12@PBD0W43PropertyType@12@V?$DataRef@UNamedValue@pvdsdk@physx@@@12@@Z 10064ab0 f i PvdMetaDataPvdBinding.obj
 0001:00063b10       ??$createProperty@UPvdSweep@Vd@physx@@VPxVec3@3@@PvdMetaDataStream@pvdsdk@physx@@QAE?AW4Enum@PvdErrorType@12@PBD0W43PropertyType@12@V?$DataRef@UNamedValue@pvdsdk@physx@@@12@@Z 10064b10 f i PvdMetaDataPvdBinding.obj
 0001:00063b70       ??$createProperty@UPxHeightFieldSample@physx@@E@PvdMetaDataStream@pvdsdk@physx@@QAE?AW4Enum@PvdErrorType@12@PBD0W43PropertyType@12@V?$DataRef@UNamedValue@pvdsdk@physx@@@12@@Z 10064b70 f i PvdMetaDataPvdBinding.obj
 0001:00063bd0       ??$createProperty@VPxAggregate@physx@@UObjectRef@pvdsdk@2@@PvdMetaDataStream@pvdsdk@physx@@QAE?AW4Enum@PvdErrorType@12@PBD0W43PropertyType@12@V?$DataRef@UNamedValue@pvdsdk@physx@@@12@@Z 10064bd0 f i PvdMetaDataPvdBinding.obj
 0001:00063c30       ??$createProperty@VPxArticulationBase@physx@@UObjectRef@pvdsdk@2@@PvdMetaDataStream@pvdsdk@physx@@QAE?AW4Enum@PvdErrorType@12@PBD0W43PropertyType@12@V?$DataRef@UNamedValue@pvdsdk@physx@@@12@@Z 10064c30 f i PvdMetaDataPvdBinding.obj
 0001:00063c90       ??$createProperty@VPxArticulationJointBase@physx@@UObjectRef@pvdsdk@2@@PvdMetaDataStream@pvdsdk@physx@@QAE?AW4Enum@PvdErrorType@12@PBD0W43PropertyType@12@V?$DataRef@UNamedValue@pvdsdk@physx@@@12@@Z 10064c90 f i PvdMetaDataPvdBinding.obj
 0001:00063cf0       ??$createProperty@VPxArticulationLink@physx@@UObjectRef@pvdsdk@2@@PvdMetaDataStream@pvdsdk@physx@@QAE?AW4Enum@PvdErrorType@12@PBD0W43PropertyType@12@V?$DataRef@UNamedValue@pvdsdk@physx@@@12@@Z 10064cf0 f i PvdMetaDataPvdBinding.obj
 0001:00063d50       ??$createProperty@VPxConvexMesh@physx@@VPxVec3@2@@PvdMetaDataStream@pvdsdk@physx@@QAE?AW4Enum@PvdErrorType@12@PBD0W43PropertyType@12@V?$DataRef@UNamedValue@pvdsdk@physx@@@12@@Z 10064d50 f i PvdMetaDataPvdBinding.obj
 0001:00063db0       ??$createProperty@VPxRigidActor@physx@@UObjectRef@pvdsdk@2@@PvdMetaDataStream@pvdsdk@physx@@QAE?AW4Enum@PvdErrorType@12@PBD0W43PropertyType@12@V?$DataRef@UNamedValue@pvdsdk@physx@@@12@@Z 10064db0 f i PvdMetaDataPvdBinding.obj
 0001:00063e10       ??$createProperty@VPxScene@physx@@UObjectRef@pvdsdk@2@@PvdMetaDataStream@pvdsdk@physx@@QAE?AW4Enum@PvdErrorType@12@PBD0W43PropertyType@12@V?$DataRef@UNamedValue@pvdsdk@physx@@@12@@Z 10064e10 f i PvdMetaDataPvdBinding.obj
 0001:00063e70       ??$createProperty@VPxScene@physx@@UPvdOverlap@Vd@2@@PvdMetaDataStream@pvdsdk@physx@@QAE?AW4Enum@PvdErrorType@12@PBD0W43PropertyType@12@V?$DataRef@UNamedValue@pvdsdk@physx@@@12@@Z 10064e70 f i PvdMetaDataPvdBinding.obj
 0001:00063ed0       ??$createProperty@VPxScene@physx@@UPvdRaycast@Vd@2@@PvdMetaDataStream@pvdsdk@physx@@QAE?AW4Enum@PvdErrorType@12@PBD0W43PropertyType@12@V?$DataRef@UNamedValue@pvdsdk@physx@@@12@@Z 10064ed0 f i PvdMetaDataPvdBinding.obj
 0001:00063f30       ??$createProperty@VPxScene@physx@@UPvdSqHit@Vd@2@@PvdMetaDataStream@pvdsdk@physx@@QAE?AW4Enum@PvdErrorType@12@PBD0W43PropertyType@12@V?$DataRef@UNamedValue@pvdsdk@physx@@@12@@Z 10064f30 f i PvdMetaDataPvdBinding.obj
 0001:00063f90       ??$createProperty@VPxScene@physx@@UPvdSweep@Vd@2@@PvdMetaDataStream@pvdsdk@physx@@QAE?AW4Enum@PvdErrorType@12@PBD0W43PropertyType@12@V?$DataRef@UNamedValue@pvdsdk@physx@@@12@@Z 10064f90 f i PvdMetaDataPvdBinding.obj
 0001:00063ff0       ??$createProperty@VPxScene@physx@@UPxFilterData@2@@PvdMetaDataStream@pvdsdk@physx@@QAE?AW4Enum@PvdErrorType@12@PBD0W43PropertyType@12@V?$DataRef@UNamedValue@pvdsdk@physx@@@12@@Z 10064ff0 f i PvdMetaDataPvdBinding.obj
 0001:00064050       ??$createProperty@VPxScene@physx@@VPxTransform@2@@PvdMetaDataStream@pvdsdk@physx@@QAE?AW4Enum@PvdErrorType@12@PBD0W43PropertyType@12@V?$DataRef@UNamedValue@pvdsdk@physx@@@12@@Z 10065050 f i PvdMetaDataPvdBinding.obj
 0001:000640b0       ??$createProperty@VPxShape@physx@@UObjectRef@pvdsdk@2@@PvdMetaDataStream@pvdsdk@physx@@QAE?AW4Enum@PvdErrorType@12@PBD0W43PropertyType@12@V?$DataRef@UNamedValue@pvdsdk@physx@@@12@@Z 100650b0 f i PvdMetaDataPvdBinding.obj
 0001:00064110       ??$createProperty@VPxTriangleMesh@physx@@I@PvdMetaDataStream@pvdsdk@physx@@QAE?AW4Enum@PvdErrorType@12@PBD0W43PropertyType@12@V?$DataRef@UNamedValue@pvdsdk@physx@@@12@@Z 10065110 f i PvdMetaDataPvdBinding.obj
 0001:00064a50       ??$makePvdPropertyFilter@UPvdClassInfoDefine@Vd@physx@@@Vd@physx@@YA?AU?$PvdPropertyFilter@UPvdClassInfoDefine@Vd@physx@@@01@UPvdClassInfoDefine@01@@Z 10065a50 f i PvdMetaDataPvdBinding.obj
 0001:00064a80       ??$registrarPhysicsObject@VPxBoxGeometry@physx@@@PvdMetaDataBinding@Vd@physx@@QAEXAAVPvdDataStream@pvdsdk@2@ABVPxBoxGeometry@2@PAVPsPvd@42@@Z 10065a80 f i PvdMetaDataPvdBinding.obj
 0001:00064a90       ??$registrarPhysicsObject@VPxCapsuleGeometry@physx@@@PvdMetaDataBinding@Vd@physx@@QAEXAAVPvdDataStream@pvdsdk@2@ABVPxCapsuleGeometry@2@PAVPsPvd@42@@Z 10065a90 f i PvdMetaDataPvdBinding.obj
 0001:00064aa0       ??$registrarPhysicsObject@VPxSphereGeometry@physx@@@PvdMetaDataBinding@Vd@physx@@QAEXAAVPvdDataStream@pvdsdk@2@ABVPxSphereGeometry@2@PAVPsPvd@42@@Z 10065aa0 f i PvdMetaDataPvdBinding.obj
 0001:00065900       ??$visitAllProperties@VPxArticulationLink@physx@@U?$PvdPropertyFilter@UPvdClassInfoValueStructDefine@Vd@physx@@@Vd@2@@physx@@YAIU?$PvdPropertyFilter@UPvdClassInfoValueStructDefine@Vd@physx@@@Vd@0@@Z 10066900 f i PvdMetaDataPvdBinding.obj
 0001:00065ac0       ??$visitAllProperties@VPxConvexMeshGeometry@physx@@U?$PvdPropertyFilter@UPvdClassInfoValueStructDefine@Vd@physx@@@Vd@2@@physx@@YAIU?$PvdPropertyFilter@UPvdClassInfoValueStructDefine@Vd@physx@@@Vd@0@@Z 10066ac0 f i PvdMetaDataPvdBinding.obj
 0001:00065c20       ??$visitAllProperties@VPxTriangleMeshGeometry@physx@@U?$PvdPropertyFilter@UPvdClassInfoValueStructDefine@Vd@physx@@@Vd@2@@physx@@YAIU?$PvdPropertyFilter@UPvdClassInfoValueStructDefine@Vd@physx@@@Vd@0@@Z 10066c20 f i PvdMetaDataPvdBinding.obj
 0001:00065d80       ??$visitBaseProperties@U?$PvdPropertyFilter@UPvdClassInfoValueStructDefine@Vd@physx@@@Vd@physx@@@PxRigidActorGeneratedInfo@physx@@QBEIU?$PvdPropertyFilter@UPvdClassInfoValueStructDefine@Vd@physx@@@Vd@1@I@Z 10066d80 f i PvdMetaDataPvdBinding.obj
 0001:00065db0       ??$visitInstanceProperties@U?$PvdPropertyFilter@UPvdClassInfoDefine@Vd@physx@@@Vd@physx@@@PxActorGeneratedInfo@physx@@QBEIU?$PvdPropertyFilter@UPvdClassInfoDefine@Vd@physx@@@Vd@1@I@Z 10066db0 f i PvdMetaDataPvdBinding.obj
 0001:00065f60       ??$visitInstanceProperties@U?$PvdPropertyFilter@UPvdClassInfoDefine@Vd@physx@@@Vd@physx@@@PxArticulationBaseGeneratedInfo@physx@@QBEIU?$PvdPropertyFilter@UPvdClassInfoDefine@Vd@physx@@@Vd@1@I@Z 10066f60 f i PvdMetaDataPvdBinding.obj
 0001:00066230       ??$visitInstanceProperties@U?$PvdPropertyFilter@UPvdClassInfoDefine@Vd@physx@@@Vd@physx@@@PxConstraintGeneratedInfo@physx@@QBEIU?$PvdPropertyFilter@UPvdClassInfoDefine@Vd@physx@@@Vd@1@I@Z 10067230 f i PvdMetaDataPvdBinding.obj
 0001:00066590       ??$visitInstanceProperties@U?$PvdPropertyFilter@UPvdClassInfoDefine@Vd@physx@@@Vd@physx@@@PxConvexMeshGeometryGeneratedInfo@physx@@QBEIU?$PvdPropertyFilter@UPvdClassInfoDefine@Vd@physx@@@Vd@1@I@Z 10067590 f i PvdMetaDataPvdBinding.obj
 0001:00066710       ??$visitInstanceProperties@U?$PvdPropertyFilter@UPvdClassInfoDefine@Vd@physx@@@Vd@physx@@@PxHeightFieldDescGeneratedInfo@physx@@QBEIU?$PvdPropertyFilter@UPvdClassInfoDefine@Vd@physx@@@Vd@1@I@Z 10067710 f i PvdMetaDataPvdBinding.obj
 0001:00066950       ??$visitInstanceProperties@U?$PvdPropertyFilter@UPvdClassInfoDefine@Vd@physx@@@Vd@physx@@@PxHeightFieldGeometryGeneratedInfo@physx@@QBEIU?$PvdPropertyFilter@UPvdClassInfoDefine@Vd@physx@@@Vd@1@I@Z 10067950 f i PvdMetaDataPvdBinding.obj
 0001:00066b50       ??$visitInstanceProperties@U?$PvdPropertyFilter@UPvdClassInfoDefine@Vd@physx@@@Vd@physx@@@PxMaterialGeneratedInfo@physx@@QBEIU?$PvdPropertyFilter@UPvdClassInfoDefine@Vd@physx@@@Vd@1@I@Z 10067b50 f i PvdMetaDataPvdBinding.obj
 0001:00066ea0       ??$visitInstanceProperties@U?$PvdPropertyFilter@UPvdClassInfoDefine@Vd@physx@@@Vd@physx@@@PxMeshScaleGeneratedInfo@physx@@QBEIU?$PvdPropertyFilter@UPvdClassInfoDefine@Vd@physx@@@Vd@1@I@Z 10067ea0 f i PvdMetaDataPvdBinding.obj
 0001:00066f70       ??$visitInstanceProperties@U?$PvdPropertyFilter@UPvdClassInfoDefine@Vd@physx@@@Vd@physx@@@PxRigidBodyGeneratedInfo@physx@@QBEIU?$PvdPropertyFilter@UPvdClassInfoDefine@Vd@physx@@@Vd@1@I@Z 10067f70 f i PvdMetaDataPvdBinding.obj
 0001:00067550       ??$visitInstanceProperties@U?$PvdPropertyFilter@UPvdClassInfoDefine@Vd@physx@@@Vd@physx@@@PxRigidDynamicGeneratedInfo@physx@@QBEIU?$PvdPropertyFilter@UPvdClassInfoDefine@Vd@physx@@@Vd@1@I@Z 10068550 f i PvdMetaDataPvdBinding.obj
 0001:00067910       ??$visitInstanceProperties@U?$PvdPropertyFilter@UPvdClassInfoDefine@Vd@physx@@@Vd@physx@@@PxSceneDescGeneratedInfo@physx@@QBEIU?$PvdPropertyFilter@UPvdClassInfoDefine@Vd@physx@@@Vd@1@I@Z 10068910 f i PvdMetaDataPvdBinding.obj
 0001:00068820       ??$visitInstanceProperties@U?$PvdPropertyFilter@UPvdClassInfoDefine@Vd@physx@@@Vd@physx@@@PxSceneLimitsGeneratedInfo@physx@@QBEIU?$PvdPropertyFilter@UPvdClassInfoDefine@Vd@physx@@@Vd@1@I@Z 10069820 f i PvdMetaDataPvdBinding.obj
 0001:00068b30       ??$visitInstanceProperties@U?$PvdPropertyFilter@UPvdClassInfoDefine@Vd@physx@@@Vd@physx@@@PxShapeGeneratedInfo@physx@@QBEIU?$PvdPropertyFilter@UPvdClassInfoDefine@Vd@physx@@@Vd@1@I@Z 10069b30 f i PvdMetaDataPvdBinding.obj
 0001:00069050       ??$visitInstanceProperties@U?$PvdPropertyFilter@UPvdClassInfoDefine@Vd@physx@@@Vd@physx@@@PxSimulationStatisticsGeneratedInfo@physx@@QBEIU?$PvdPropertyFilter@UPvdClassInfoDefine@Vd@physx@@@Vd@1@I@Z 1006a050 f i PvdMetaDataPvdBinding.obj
 0001:00069c60       ??$visitInstanceProperties@U?$PvdPropertyFilter@UPvdClassInfoDefine@Vd@physx@@@Vd@physx@@@PxTriangleMeshGeometryGeneratedInfo@physx@@QBEIU?$PvdPropertyFilter@UPvdClassInfoDefine@Vd@physx@@@Vd@1@I@Z 1006ac60 f i PvdMetaDataPvdBinding.obj
 0001:00069de0       ??$visitInstanceProperties@U?$PvdPropertyFilter@UPvdClassInfoDefine@Vd@physx@@@Vd@physx@@@PxgDynamicsMemoryConfigGeneratedInfo@physx@@QBEIU?$PvdPropertyFilter@UPvdClassInfoDefine@Vd@physx@@@Vd@1@I@Z 1006ade0 f i PvdMetaDataPvdBinding.obj
 0001:0006a0f0       ??$visitInstanceProperties@U?$PvdPropertyFilter@UPvdClassInfoValueStructDefine@Vd@physx@@@Vd@physx@@@PxActorGeneratedInfo@physx@@QBEIU?$PvdPropertyFilter@UPvdClassInfoValueStructDefine@Vd@physx@@@Vd@1@I@Z 1006b0f0 f i PvdMetaDataPvdBinding.obj
 0001:0006a260       ??$visitInstanceProperties@U?$PvdPropertyFilter@UPvdClassInfoValueStructDefine@Vd@physx@@@Vd@physx@@@PxArticulationBaseGeneratedInfo@physx@@QBEIU?$PvdPropertyFilter@UPvdClassInfoValueStructDefine@Vd@physx@@@Vd@1@I@Z 1006b260 f i PvdMetaDataPvdBinding.obj
 0001:0006a4f0       ??$visitInstanceProperties@U?$PvdPropertyFilter@UPvdClassInfoValueStructDefine@Vd@physx@@@Vd@physx@@@PxConstraintGeneratedInfo@physx@@QBEIU?$PvdPropertyFilter@UPvdClassInfoValueStructDefine@Vd@physx@@@Vd@1@I@Z 1006b4f0 f i PvdMetaDataPvdBinding.obj
 0001:0006a7e0       ??$visitInstanceProperties@U?$PvdPropertyFilter@UPvdClassInfoValueStructDefine@Vd@physx@@@Vd@physx@@@PxHeightFieldDescGeneratedInfo@physx@@QBEIU?$PvdPropertyFilter@UPvdClassInfoValueStructDefine@Vd@physx@@@Vd@1@I@Z 1006b7e0 f i PvdMetaDataPvdBinding.obj
 0001:0006a9d0       ??$visitInstanceProperties@U?$PvdPropertyFilter@UPvdClassInfoValueStructDefine@Vd@physx@@@Vd@physx@@@PxHeightFieldGeometryGeneratedInfo@physx@@QBEIU?$PvdPropertyFilter@UPvdClassInfoValueStructDefine@Vd@physx@@@Vd@1@I@Z 1006b9d0 f i PvdMetaDataPvdBinding.obj
 0001:0006ab90       ??$visitInstanceProperties@U?$PvdPropertyFilter@UPvdClassInfoValueStructDefine@Vd@physx@@@Vd@physx@@@PxMaterialGeneratedInfo@physx@@QBEIU?$PvdPropertyFilter@UPvdClassInfoValueStructDefine@Vd@physx@@@Vd@1@I@Z 1006bb90 f i PvdMetaDataPvdBinding.obj
 0001:0006ae60       ??$visitInstanceProperties@U?$PvdPropertyFilter@UPvdClassInfoValueStructDefine@Vd@physx@@@Vd@physx@@@PxMeshScaleGeneratedInfo@physx@@QBEIU?$PvdPropertyFilter@UPvdClassInfoValueStructDefine@Vd@physx@@@Vd@1@I@Z 1006be60 f i PvdMetaDataPvdBinding.obj
 0001:0006af20       ??$visitInstanceProperties@U?$PvdPropertyFilter@UPvdClassInfoValueStructDefine@Vd@physx@@@Vd@physx@@@PxRigidActorGeneratedInfo@physx@@QBEIU?$PvdPropertyFilter@UPvdClassInfoValueStructDefine@Vd@physx@@@Vd@1@I@Z 1006bf20 f i PvdMetaDataPvdBinding.obj
 0001:0006af90       ??$visitInstanceProperties@U?$PvdPropertyFilter@UPvdClassInfoValueStructDefine@Vd@physx@@@Vd@physx@@@PxRigidBodyGeneratedInfo@physx@@QBEIU?$PvdPropertyFilter@UPvdClassInfoValueStructDefine@Vd@physx@@@Vd@1@I@Z 1006bf90 f i PvdMetaDataPvdBinding.obj
 0001:0006b500       ??$visitInstanceProperties@U?$PvdPropertyFilter@UPvdClassInfoValueStructDefine@Vd@physx@@@Vd@physx@@@PxRigidDynamicGeneratedInfo@physx@@QBEIU?$PvdPropertyFilter@UPvdClassInfoValueStructDefine@Vd@physx@@@Vd@1@I@Z 1006c500 f i PvdMetaDataPvdBinding.obj
 0001:0006b870       ??$visitInstanceProperties@U?$PvdPropertyFilter@UPvdClassInfoValueStructDefine@Vd@physx@@@Vd@physx@@@PxSceneDescGeneratedInfo@physx@@QBEIU?$PvdPropertyFilter@UPvdClassInfoValueStructDefine@Vd@physx@@@Vd@1@I@Z 1006c870 f i PvdMetaDataPvdBinding.obj
 0001:0006c540       ??$visitInstanceProperties@U?$PvdPropertyFilter@UPvdClassInfoValueStructDefine@Vd@physx@@@Vd@physx@@@PxSceneLimitsGeneratedInfo@physx@@QBEIU?$PvdPropertyFilter@UPvdClassInfoValueStructDefine@Vd@physx@@@Vd@1@I@Z 1006d540 f i PvdMetaDataPvdBinding.obj
 0001:0006c810       ??$visitInstanceProperties@U?$PvdPropertyFilter@UPvdClassInfoValueStructDefine@Vd@physx@@@Vd@physx@@@PxShapeGeneratedInfo@physx@@QBEIU?$PvdPropertyFilter@UPvdClassInfoValueStructDefine@Vd@physx@@@Vd@1@I@Z 1006d810 f i PvdMetaDataPvdBinding.obj
 0001:0006cca0       ??$visitInstanceProperties@U?$PvdPropertyFilter@UPvdClassInfoValueStructDefine@Vd@physx@@@Vd@physx@@@PxSimulationStatisticsGeneratedInfo@physx@@QBEIU?$PvdPropertyFilter@UPvdClassInfoValueStructDefine@Vd@physx@@@Vd@1@I@Z 1006dca0 f i PvdMetaDataPvdBinding.obj
 0001:0006d870       ??$visitInstanceProperties@U?$PvdPropertyFilter@UPvdClassInfoValueStructDefine@Vd@physx@@@Vd@physx@@@PxgDynamicsMemoryConfigGeneratedInfo@physx@@QBEIU?$PvdPropertyFilter@UPvdClassInfoValueStructDefine@Vd@physx@@@Vd@1@I@Z 1006e870 f i PvdMetaDataPvdBinding.obj
 0001:0006db40       ??0?$InlineArray@PAVPxShape@physx@@$04VNamedAllocator@shdfnd@2@@shdfnd@physx@@QAE@ABVNamedAllocator@12@@Z 1006eb40 f i PvdMetaDataPvdBinding.obj
 0001:0006dbd0       ??0PvdContact@Vd@physx@@QAE@XZ 1006ebd0 f i PvdMetaDataPvdBinding.obj
 0001:0006dbe0       ??0PvdOverlap@Vd@physx@@QAE@XZ 1006ebe0 f i PvdMetaDataPvdBinding.obj
 0001:0006dc00       ??0PvdRaycast@Vd@physx@@QAE@XZ 1006ec00 f i PvdMetaDataPvdBinding.obj
 0001:0006dc20       ??0PvdSqHit@Vd@physx@@QAE@XZ 1006ec20 f i PvdMetaDataPvdBinding.obj
 0001:0006dc80       ??0PvdSweep@Vd@physx@@QAE@XZ 1006ec80 f i PvdMetaDataPvdBinding.obj
 0001:0006dc90       ??0PxFilterData@physx@@QAE@XZ 1006ec90 f i PvdMetaDataPvdBinding.obj
 0001:0006dcb0       ??0PxHeightFieldGeometry@physx@@QAE@XZ 1006ecb0 f i PvdMetaDataPvdBinding.obj
 0001:0006dcf0       ??1PvdCommand@PvdInstanceDataStream@pvdsdk@physx@@UAE@XZ 1006ecf0 f i PvdMetaDataPvdBinding.obj
 0001:0006dd00       ??_GChangeOjectRefCmd@Vd@physx@@UAEPAXI@Z 1006ed00 f i PvdMetaDataPvdBinding.obj
 0001:0006dd00       ??_EChangeOjectRefCmd@Vd@physx@@UAEPAXI@Z 1006ed00 f i PvdMetaDataPvdBinding.obj
 0001:0006dd30       ??_GPvdCommand@PvdInstanceDataStream@pvdsdk@physx@@UAEPAXI@Z 1006ed30 f i PvdMetaDataPvdBinding.obj
 0001:0006dd30       ??_EPvdCommand@PvdInstanceDataStream@pvdsdk@physx@@UAEPAXI@Z 1006ed30 f i PvdMetaDataPvdBinding.obj
 0001:0006dd60       ?addPropertyMessageArg@?$SimplePropertyValueStructOp@PBD@Vd@physx@@QAEXAAVPvdPropertyDefinitionHelper@pvdsdk@3@I@Z 1006ed60 f i PvdMetaDataPvdBinding.obj
 0001:0006dd90       ?append@?$ScopedPropertyValueSender@UPvdSqHit@Vd@physx@@$0CA@U123@U?$NullConverter@UPvdSqHit@Vd@physx@@@23@@Vd@physx@@QAEXABUPvdSqHit@23@@Z 1006ed90 f i PvdMetaDataPvdBinding.obj
 0001:0006de30       ?canRun@ChangeOjectRefCmd@Vd@physx@@UAE_NAAVPvdInstanceDataStream@pvdsdk@3@@Z 1006ee30 f i PvdMetaDataPvdBinding.obj
 0001:0006de50       ?canRun@PvdCommand@PvdInstanceDataStream@pvdsdk@physx@@UAE_NAAV234@@Z 1006ee50 f i PvdMetaDataPvdBinding.obj
 0001:0006df00       ?create@?$HashBase@PBVPxRigidActor@physx@@PBV12@U?$Hash@PBVPxRigidActor@physx@@@shdfnd@2@UGetKey@?$HashSetBase@PBVPxRigidActor@physx@@U?$Hash@PBVPxRigidActor@physx@@@shdfnd@2@VNonTrackingAllocator@42@$0A@@internal@42@VNonTrackingAllocator@42@$0A@@internal@shdfnd@physx@@QAEPAPBVPxRigidActor@4@ABQBV54@AA_N@Z 1006ef00 f i PvdMetaDataPvdBinding.obj
 0001:0006e030       ?create@?$HashBase@V?$Pair@QBVPxShape@physx@@PAV?$HashSet@PBVPxRigidActor@physx@@U?$Hash@PBVPxRigidActor@physx@@@shdfnd@2@VNonTrackingAllocator@42@@shdfnd@2@@shdfnd@physx@@PBVPxShape@3@U?$Hash@PBVPxShape@physx@@@23@UGetKey@?$HashMapBase@PBVPxShape@physx@@PAV?$HashSet@PBVPxRigidActor@physx@@U?$Hash@PBVPxRigidActor@physx@@@shdfnd@2@VNonTrackingAllocator@42@@shdfnd@2@U?$Hash@PBVPxShape@physx@@@42@VNonTrackingAllocator@42@@internal@23@VNonTrackingAllocator@23@$00@internal@shdfnd@physx@@QAEPAV?$Pair@QBVPxShape@physx@@PAV?$HashSet@PBVPxRigidActor@physx@@U?$Hash@PBVPxRigidActor@physx@@@shdfnd@2@VNonTrackingAllocator@42@@shdfnd@2@@34@ABQBVPxShape@4@AA_N@Z 1006f030 f i PvdMetaDataPvdBinding.obj
 0001:0006e140       ?defineProperty@?$PropertyDefinitionOp@PBD@Vd@physx@@QAEXAAVPvdPropertyDefinitionHelper@pvdsdk@3@UNamespacedName@53@@Z 1006f140 f i PvdMetaDataPvdBinding.obj
 0001:0006e180       ?defineProperty@?$PropertyDefinitionOp@VPxTransform@physx@@@Vd@physx@@QAEXAAVPvdPropertyDefinitionHelper@pvdsdk@3@UNamespacedName@53@@Z 1006f180 f i PvdMetaDataPvdBinding.obj
 0001:0006e1c0       ?erase@?$HashBase@V?$Pair@QBVPxShape@physx@@PAV?$HashSet@PBVPxRigidActor@physx@@U?$Hash@PBVPxRigidActor@physx@@@shdfnd@2@VNonTrackingAllocator@42@@shdfnd@2@@shdfnd@physx@@PBVPxShape@3@U?$Hash@PBVPxShape@physx@@@23@UGetKey@?$HashMapBase@PBVPxShape@physx@@PAV?$HashSet@PBVPxRigidActor@physx@@U?$Hash@PBVPxRigidActor@physx@@@shdfnd@2@VNonTrackingAllocator@42@@shdfnd@2@U?$Hash@PBVPxShape@physx@@@42@VNonTrackingAllocator@42@@internal@23@VNonTrackingAllocator@23@$00@internal@shdfnd@physx@@QAE_NABQBVPxShape@4@@Z 1006f1c0 f i PvdMetaDataPvdBinding.obj
 0001:0006e2c0       ?erase@?$HashSetBase@PAVPxActor@physx@@U?$Hash@PAVPxActor@physx@@@shdfnd@2@VNonTrackingAllocator@42@$0A@@internal@shdfnd@physx@@QAE_NABQAVPxActor@4@@Z 1006f2c0 f i PvdMetaDataPvdBinding.obj
 0001:0006e370       ?find@?$HashMapBase@PBVPxShape@physx@@PAV?$HashSet@PBVPxRigidActor@physx@@U?$Hash@PBVPxRigidActor@physx@@@shdfnd@2@VNonTrackingAllocator@42@@shdfnd@2@U?$Hash@PBVPxShape@physx@@@42@VNonTrackingAllocator@42@@internal@shdfnd@physx@@QBEPBV?$Pair@QBVPxShape@physx@@PAV?$HashSet@PBVPxRigidActor@physx@@U?$Hash@PBVPxRigidActor@physx@@@shdfnd@2@VNonTrackingAllocator@42@@shdfnd@2@@34@ABQBVPxShape@4@@Z 1006f370 f i PvdMetaDataPvdBinding.obj
 0001:0006e3f0       ?recreate@?$Array@EVNamedAllocator@shdfnd@physx@@@shdfnd@physx@@IAEXI@Z 1006f3f0 f i PvdMetaDataPvdBinding.obj
 0001:0006e460       ?recreate@?$Array@PAVPxArticulationBase@physx@@VNamedAllocator@shdfnd@2@@shdfnd@physx@@IAEXI@Z 1006f460 f i PvdMetaDataPvdBinding.obj
 0001:0006e4e0       ?recreate@?$Array@PAVPxArticulationLink@physx@@VNamedAllocator@shdfnd@2@@shdfnd@physx@@IAEXI@Z 1006f4e0 f i PvdMetaDataPvdBinding.obj
 0001:0006e560       ?recreate@?$Array@PAVPxShape@physx@@V?$InlineAllocator@$0BE@VNamedAllocator@shdfnd@physx@@@shdfnd@2@@shdfnd@physx@@IAEXI@Z 1006f560 f i PvdMetaDataPvdBinding.obj
 0001:0006e6e0       ?reserveInternal@?$HashBase@PBVPxRigidActor@physx@@PBV12@U?$Hash@PBVPxRigidActor@physx@@@shdfnd@2@UGetKey@?$HashSetBase@PBVPxRigidActor@physx@@U?$Hash@PBVPxRigidActor@physx@@@shdfnd@2@VNonTrackingAllocator@42@$0A@@internal@42@VNonTrackingAllocator@42@$0A@@internal@shdfnd@physx@@AAEXI@Z 1006f6e0 f i PvdMetaDataPvdBinding.obj
 0001:0006ea70       ?reserveInternal@?$HashBase@V?$Pair@QBVPxShape@physx@@PAV?$HashSet@PBVPxRigidActor@physx@@U?$Hash@PBVPxRigidActor@physx@@@shdfnd@2@VNonTrackingAllocator@42@@shdfnd@2@@shdfnd@physx@@PBVPxShape@3@U?$Hash@PBVPxShape@physx@@@23@UGetKey@?$HashMapBase@PBVPxShape@physx@@PAV?$HashSet@PBVPxRigidActor@physx@@U?$Hash@PBVPxRigidActor@physx@@@shdfnd@2@VNonTrackingAllocator@42@@shdfnd@2@U?$Hash@PBVPxShape@physx@@@42@VNonTrackingAllocator@42@@internal@23@VNonTrackingAllocator@23@$00@internal@shdfnd@physx@@AAEXI@Z 1006fa70 f i PvdMetaDataPvdBinding.obj
 0001:0006ec00       ?resize@?$Array@EVNamedAllocator@shdfnd@physx@@@shdfnd@physx@@QAEXIABE@Z 1006fc00 f i PvdMetaDataPvdBinding.obj
 0001:0006eca0       ?resize@?$Array@PAVPxActor@physx@@VNamedAllocator@shdfnd@2@@shdfnd@physx@@QAEXIABQAVPxActor@3@@Z 1006fca0 f i PvdMetaDataPvdBinding.obj
 0001:0006ed40       ?resize@?$Array@PAVPxArticulationBase@physx@@VNamedAllocator@shdfnd@2@@shdfnd@physx@@QAEXIABQAVPxArticulationBase@3@@Z 1006fd40 f i PvdMetaDataPvdBinding.obj
 0001:0006ede0       ?resize@?$Array@PAVPxArticulationLink@physx@@VNamedAllocator@shdfnd@2@@shdfnd@physx@@QAEXIABQAVPxArticulationLink@3@@Z 1006fde0 f i PvdMetaDataPvdBinding.obj
 0001:0006ee80       ?resize@?$Array@PAVPxShape@physx@@V?$InlineAllocator@$0BE@VNamedAllocator@shdfnd@physx@@@shdfnd@2@@shdfnd@physx@@QAEXIABQAVPxShape@3@@Z 1006fe80 f i PvdMetaDataPvdBinding.obj
 0001:0006ef20       ?run@ChangeOjectRefCmd@Vd@physx@@UAEXAAVPvdInstanceDataStream@pvdsdk@3@@Z 1006ff20 f i PvdMetaDataPvdBinding.obj
 0001:0006ef80       ?run@PvdCommand@PvdInstanceDataStream@pvdsdk@physx@@UAEXAAV234@@Z 1006ff80 f i PvdMetaDataPvdBinding.obj
 0001:0006f970       ??0PvdPhysicsClient@Vd@physx@@QAE@PAVPsPvd@pvdsdk@2@@Z 10070970 f   PvdPhysicsClient.obj
 0001:0006f9b0       ??1PvdPhysicsClient@Vd@physx@@UAE@XZ 100709b0 f   PvdPhysicsClient.obj
 0001:0006f9f0       ?isConnected@PvdPhysicsClient@Vd@physx@@UBE_NXZ 100709f0 f   PvdPhysicsClient.obj
 0001:0006fa00       ?onPvdConnected@PvdPhysicsClient@Vd@physx@@UAEXXZ 10070a00 f   PvdPhysicsClient.obj
 0001:0006fa30       ?onPvdDisconnected@PvdPhysicsClient@Vd@physx@@UAEXXZ 10070a30 f   PvdPhysicsClient.obj
 0001:0006fa50       ?flush@PvdPhysicsClient@Vd@physx@@UAEXXZ 10070a50 f   PvdPhysicsClient.obj
 0001:0006fa60       ?getDataStream@PvdPhysicsClient@Vd@physx@@UAEPAVPvdDataStream@pvdsdk@3@XZ 10070a60 f   PvdPhysicsClient.obj
 0001:0006fa70       ?getMetaDataBinding@PvdPhysicsClient@Vd@physx@@QAEPAVPvdMetaDataBinding@23@XZ 10070a70 f   PvdPhysicsClient.obj
 0001:0006fa80       ?getUserRender@PvdPhysicsClient@Vd@physx@@UAEPAVPvdUserRenderer@pvdsdk@3@XZ 10070a80 f   PvdPhysicsClient.obj
 0001:0006fa90       ?sendEntireSDK@PvdPhysicsClient@Vd@physx@@QAEXXZ 10070a90 f   PvdPhysicsClient.obj
 0001:0006fe30       ?destroyPvdInstance@PvdPhysicsClient@Vd@physx@@QAEXPBVPxPhysics@3@@Z 10070e30 f   PvdPhysicsClient.obj
 0001:0006fe40       ?onGuMeshFactoryBufferRelease@PvdPhysicsClient@Vd@physx@@UAEXPBVPxBase@3@G@Z 10070e40 f   PvdPhysicsClient.obj
 0001:0006fed0       ?reportError@PvdPhysicsClient@Vd@physx@@UAEXW4Enum@PxErrorCode@3@PBD1H@Z 10070ed0 f   PvdPhysicsClient.obj
 0001:0006fef0       ?createPvdInstance@PvdPhysicsClient@Vd@physx@@AAEXPBVPxTriangleMesh@3@@Z 10070ef0 f   PvdPhysicsClient.obj
 0001:0006ff10       ?destroyPvdInstance@PvdPhysicsClient@Vd@physx@@AAEXPBVPxTriangleMesh@3@@Z 10070f10 f   PvdPhysicsClient.obj
 0001:0006ff30       ?createPvdInstance@PvdPhysicsClient@Vd@physx@@AAEXPBVPxConvexMesh@3@@Z 10070f30 f   PvdPhysicsClient.obj
 0001:0006ff50       ?destroyPvdInstance@PvdPhysicsClient@Vd@physx@@AAEXPBVPxConvexMesh@3@@Z 10070f50 f   PvdPhysicsClient.obj
 0001:0006ff70       ?createPvdInstance@PvdPhysicsClient@Vd@physx@@AAEXPBVPxHeightField@3@@Z 10070f70 f   PvdPhysicsClient.obj
 0001:0006ff90       ?destroyPvdInstance@PvdPhysicsClient@Vd@physx@@AAEXPBVPxHeightField@3@@Z 10070f90 f   PvdPhysicsClient.obj
 0001:0006ffb0       ?createPvdInstance@PvdPhysicsClient@Vd@physx@@AAEXPBVPxMaterial@3@@Z 10070fb0 f   PvdPhysicsClient.obj
 0001:0006ffd0       ?destroyPvdInstance@PvdPhysicsClient@Vd@physx@@AAEXPBVPxMaterial@3@@Z 10070fd0 f   PvdPhysicsClient.obj
 0001:0006fff0       ?updatePvdProperties@PvdPhysicsClient@Vd@physx@@AAEXPBVPxMaterial@3@@Z 10070ff0 f   PvdPhysicsClient.obj
 0001:00070010       ??1NpFactoryListener@physx@@MAE@XZ 10071010 f i PvdPhysicsClient.obj
 0001:00070020       ??1PvdClient@pvdsdk@physx@@MAE@XZ 10071020 f i PvdPhysicsClient.obj
 0001:00070030       ??1PxErrorCallback@physx@@UAE@XZ 10071030 f i PvdPhysicsClient.obj
 0001:00070037       ??_EPvdPhysicsClient@Vd@physx@@W3AEPAXI@Z 10071037 f i PvdPhysicsClient.obj
 0001:0007003f       ??_EPvdPhysicsClient@Vd@physx@@W7AEPAXI@Z 1007103f f i PvdPhysicsClient.obj
 0001:00070050       ??_GNpFactoryListener@physx@@MAEPAXI@Z 10071050 f i PvdPhysicsClient.obj
 0001:00070050       ??_ENpFactoryListener@physx@@MAEPAXI@Z 10071050 f i PvdPhysicsClient.obj
 0001:00070080       ??_GPvdClient@pvdsdk@physx@@MAEPAXI@Z 10071080 f i PvdPhysicsClient.obj
 0001:00070080       ??_EPvdClient@pvdsdk@physx@@MAEPAXI@Z 10071080 f i PvdPhysicsClient.obj
 0001:000700b0       ??_GPvdPhysicsClient@Vd@physx@@UAEPAXI@Z 100710b0 f i PvdPhysicsClient.obj
 0001:000700b0       ??_EPvdPhysicsClient@Vd@physx@@UAEPAXI@Z 100710b0 f i PvdPhysicsClient.obj
 0001:00070120       ??_GPxErrorCallback@physx@@UAEPAXI@Z 10071120 f i PvdPhysicsClient.obj
 0001:00070120       ??_EPxErrorCallback@physx@@UAEPAXI@Z 10071120 f i PvdPhysicsClient.obj
 0001:00070150       ?recreate@?$Array@PAVPxConvexMesh@physx@@VNamedAllocator@shdfnd@2@@shdfnd@physx@@IAEXI@Z 10071150 f i PvdPhysicsClient.obj
 0001:000701d0       ?recreate@?$Array@PAVPxHeightField@physx@@VNamedAllocator@shdfnd@2@@shdfnd@physx@@IAEXI@Z 100711d0 f i PvdPhysicsClient.obj
 0001:00070250       ?recreate@?$Array@PAVPxMaterial@physx@@VNamedAllocator@shdfnd@2@@shdfnd@physx@@IAEXI@Z 10071250 f i PvdPhysicsClient.obj
 0001:000702d0       ?recreate@?$Array@PAVPxTriangleMesh@physx@@VNamedAllocator@shdfnd@2@@shdfnd@physx@@IAEXI@Z 100712d0 f i PvdPhysicsClient.obj
 0001:00070350       ?resize@?$Array@PAVPxConvexMesh@physx@@VNamedAllocator@shdfnd@2@@shdfnd@physx@@QAEXIABQAVPxConvexMesh@3@@Z 10071350 f i PvdPhysicsClient.obj
 0001:000703f0       ?resize@?$Array@PAVPxHeightField@physx@@VNamedAllocator@shdfnd@2@@shdfnd@physx@@QAEXIABQAVPxHeightField@3@@Z 100713f0 f i PvdPhysicsClient.obj
 0001:00070490       ?resize@?$Array@PAVPxMaterial@physx@@VNamedAllocator@shdfnd@2@@shdfnd@physx@@QAEXIABQAVPxMaterial@3@@Z 10071490 f i PvdPhysicsClient.obj
 0001:00070530       ?resize@?$Array@PAVPxTriangleMesh@physx@@VNamedAllocator@shdfnd@2@@shdfnd@physx@@QAEXIABQAVPxTriangleMesh@3@@Z 10071530 f i PvdPhysicsClient.obj
 0001:000705d0       ??0Offsets@Actor@Scb@physx@@QAE@XZ 100715d0 f   ScbActor.obj
 0001:00070600       ?addActor@Aggregate@Scb@physx@@QAEXAAVActor@23@@Z 10071600 f   ScbAggregate.obj
 0001:00070780       ?removeActor@Aggregate@Scb@physx@@QAEXAAVActor@23@_N@Z 10071780 f   ScbAggregate.obj
 0001:00070960       ??$allocArrayBuffer@PAVActor@Scb@physx@@@Scene@Scb@physx@@AAEPAPAVActor@12@AAV?$Array@PAVActor@Scb@physx@@VNamedAllocator@shdfnd@3@@shdfnd@2@IAAI@Z 10071960 f i ScbAggregate.obj
 0001:000709a0       ?destroy@Base@Scb@physx@@QAEXXZ 100719a0 f   ScbBase.obj
 0001:000709e0       ?getBinaryMetaData@Base@Scb@physx@@SAXAAVPxOutputStream@3@@Z 100719e0 f   ScbMetaData.obj
 0001:00070b70       ?getBinaryMetaData@Shape@Scb@physx@@SAXAAVPxOutputStream@3@@Z 10071b70 f   ScbMetaData.obj
 0001:00070c70       ?getBinaryMetaData@Actor@Scb@physx@@SAXAAVPxOutputStream@3@@Z 10071c70 f   ScbMetaData.obj
 0001:00070d20       ?getBinaryMetaData@RigidObject@Scb@physx@@SAXAAVPxOutputStream@3@@Z 10071d20 f   ScbMetaData.obj
 0001:00070dd0       ?getBinaryMetaData@Body@Scb@physx@@SAXAAVPxOutputStream@3@@Z 10071dd0 f   ScbMetaData.obj
 0001:000710a0       ?getBinaryMetaData@RigidStatic@Scb@physx@@SAXAAVPxOutputStream@3@@Z 100720a0 f   ScbMetaData.obj
 0001:000711a0       ?getBinaryMetaData@Constraint@Scb@physx@@SAXAAVPxOutputStream@3@@Z 100721a0 f   ScbMetaData.obj
 0001:00071380       ?getBinaryMetaData@Articulation@Scb@physx@@SAXAAVPxOutputStream@3@@Z 10072380 f   ScbMetaData.obj
 0001:00071560       ?getBinaryMetaData@ArticulationJoint@Scb@physx@@SAXAAVPxOutputStream@3@@Z 10072560 f   ScbMetaData.obj
 0001:00071660       ?getBinaryMetaData@Aggregate@Scb@physx@@SAXAAVPxOutputStream@3@@Z 10072660 f   ScbMetaData.obj
 0001:00071840       ?scheduleForInsert@ObjectTracker@Scb@physx@@QAEXAAVBase@23@@Z 10072840 f   ScbScene.obj
 0001:000718b0       ?scheduleForRemove@ObjectTracker@Scb@physx@@QAEXAAVBase@23@@Z 100728b0 f   ScbScene.obj
 0001:00071920       ?scheduleForUpdate@ObjectTracker@Scb@physx@@QAEXAAVBase@23@@Z 10072920 f   ScbScene.obj
 0001:00071970       ?clear@ObjectTracker@Scb@physx@@QAEXXZ 10072970 f   ScbScene.obj
 0001:00071a40       ?insert@ObjectTracker@Scb@physx@@QAEXAAVBase@23@@Z 10072a40 f   ScbScene.obj
 0001:00071a70       ?remove@ObjectTracker@Scb@physx@@QAEXAAVBase@23@@Z 10072a70 f   ScbScene.obj
 0001:00071a90       ??0Scene@Scb@physx@@QAE@ABVPxSceneDesc@2@_K@Z 10072a90 f   ScbScene.obj
 0001:00071f40       ?release@Scene@Scb@physx@@QAEXXZ 10072f40 f   ScbScene.obj
 0001:00071fa0       ?getPxScene@Scene@Scb@physx@@QAEPAVPxScene@3@XZ 10072fa0 f   ScbScene.obj
 0001:00071fb0       ?addActor@Scene@Scb@physx@@QAEXAAVRigidStatic@23@_NPAVPxBounds3@3@PBVBVHStructure@Gu@3@@Z 10072fb0 f   ScbScene.obj
 0001:00072170       ?removeActor@Scene@Scb@physx@@QAEXAAVRigidStatic@23@_N1@Z 10073170 f   ScbScene.obj
 0001:00072330       ?addActor@Scene@Scb@physx@@QAEXAAVBody@23@_NPAVPxBounds3@3@PBVBVHStructure@Gu@3@@Z 10073330 f   ScbScene.obj
 0001:00072600       ?removeActor@Scene@Scb@physx@@QAEXAAVBody@23@_N1@Z 10073600 f   ScbScene.obj
 0001:000728b0       ?addConstraint@Scene@Scb@physx@@QAEXAAVConstraint@23@@Z 100738b0 f   ScbScene.obj
 0001:00072980       ?removeConstraint@Scene@Scb@physx@@QAEXAAVConstraint@23@@Z 10073980 f   ScbScene.obj
 0001:00072a80       ?addArticulation@Scene@Scb@physx@@QAEXAAVArticulation@23@@Z 10073a80 f   ScbScene.obj
 0001:00072b20       ?removeArticulation@Scene@Scb@physx@@QAEXAAVArticulation@23@@Z 10073b20 f   ScbScene.obj
 0001:00072bb0       ?addArticulationJoint@Scene@Scb@physx@@QAEXAAVArticulationJoint@23@@Z 10073bb0 f   ScbScene.obj
 0001:00072c50       ?removeArticulationJoint@Scene@Scb@physx@@QAEXAAVArticulationJoint@23@@Z 10073c50 f   ScbScene.obj
 0001:00072cc0       ?addAggregate@Scene@Scb@physx@@QAEXAAVAggregate@23@@Z 10073cc0 f   ScbScene.obj
 0001:00072d20       ?removeAggregate@Scene@Scb@physx@@QAEXAAVAggregate@23@@Z 10073d20 f   ScbScene.obj
 0001:00072d70       ?addMaterial@Scene@Scb@physx@@QAEXABVMaterialCore@Sc@3@@Z 10073d70 f   ScbScene.obj
 0001:00072e70       ?updateMaterial@Scene@Scb@physx@@QAEXABVMaterialCore@Sc@3@@Z 10073e70 f   ScbScene.obj
 0001:00072f80       ?removeMaterial@Scene@Scb@physx@@QAEXABVMaterialCore@Sc@3@@Z 10073f80 f   ScbScene.obj
 0001:000730a0       ?updateLowLevelMaterial@Scene@Scb@physx@@QAEXPAPAVNpMaterial@3@@Z 100740a0 f   ScbScene.obj
 0001:00073320       ?getBroadPhaseType@Scene@Scb@physx@@QBE?AW4Enum@PxBroadPhaseType@3@XZ 10074320 f   ScbScene.obj
 0001:00073330       ?getBroadPhaseCaps@Scene@Scb@physx@@QBE_NAAUPxBroadPhaseCaps@3@@Z 10074330 f   ScbScene.obj
 0001:00073340       ?getNbBroadPhaseRegions@Scene@Scb@physx@@QBEIXZ 10074340 f   ScbScene.obj
 0001:00073350       ?getBroadPhaseRegions@Scene@Scb@physx@@QBEIPAUPxBroadPhaseRegionInfo@3@II@Z 10074350 f   ScbScene.obj
 0001:00073360       ?addBroadPhaseRegion@Scene@Scb@physx@@QAEIABUPxBroadPhaseRegion@3@_N@Z 10074360 f   ScbScene.obj
 0001:000733a0       ?removeBroadPhaseRegion@Scene@Scb@physx@@QAE_NI@Z 100743a0 f   ScbScene.obj
 0001:000733e0       ?shiftOrigin@Scene@Scb@physx@@QAEXABVPxVec3@3@@Z 100743e0 f   ScbScene.obj
 0001:000734b0       ?syncWriteThroughProperties@Scene@Scb@physx@@QAEXXZ 100744b0 f   ScbScene.obj
 0001:000737b0       ?syncEntireScene@Scene@Scb@physx@@QAEXXZ 100747b0 f   ScbScene.obj
 0001:00073cf0       ?processPendingRemove@Scene@Scb@physx@@QAEXXZ 10074cf0 f   ScbScene.obj
 0001:000742b0       ?scheduleForUpdate@Scene@Scb@physx@@QAEXAAVBase@23@@Z 100752b0 f   ScbScene.obj
 0001:00074360       ?getStream@Scene@Scb@physx@@QAEPAEW4Enum@ScbType@3@@Z 10075360 f   ScbScene.obj
 0001:000744c0       ?syncState@Scene@Scb@physx@@AAEXXZ 100754c0 f   ScbScene.obj
 0001:00074720       ?switchRigidToNoSim@Scene@Scb@physx@@QAEXAAVRigidObject@23@_N@Z 10075720 f   ScbScene.obj
 0001:00074820       ?switchRigidFromNoSim@Scene@Scb@physx@@QAEXAAVRigidObject@23@_N@Z 10075820 f   ScbScene.obj
 0001:000748f0       ??$add@VArticulation@Scb@physx@@@Scene@Scb@physx@@AAEXAAVArticulation@12@AAVObjectTracker@12@PAVPxBounds3@2@PBVBVHStructure@Gu@2@@Z 100758f0 f i ScbScene.obj
 0001:00074970       ??$add@VArticulationJoint@Scb@physx@@@Scene@Scb@physx@@AAEXAAVArticulationJoint@12@AAVObjectTracker@12@PAVPxBounds3@2@PBVBVHStructure@Gu@2@@Z 10075970 f i ScbScene.obj
 0001:00074a10       ??$add@VBody@Scb@physx@@@Scene@Scb@physx@@AAEXAAVBody@12@AAVObjectTracker@12@PAVPxBounds3@2@PBVBVHStructure@Gu@2@@Z 10075a10 f i ScbScene.obj
 0001:00074c70       ??$add@VConstraint@Scb@physx@@@Scene@Scb@physx@@AAEXAAVConstraint@12@AAVObjectTracker@12@PAVPxBounds3@2@PBVBVHStructure@Gu@2@@Z 10075c70 f i ScbScene.obj
 0001:00074d40       ??$add@VRigidStatic@Scb@physx@@@Scene@Scb@physx@@AAEXAAVRigidStatic@12@AAVObjectTracker@12@PAVPxBounds3@2@PBVBVHStructure@Gu@2@@Z 10075d40 f i ScbScene.obj
 0001:00074f90       ??$addRigidNoSim@$00VBody@Scb@physx@@@Scene@Scb@physx@@AAEXAAVBody@12@AAVObjectTracker@12@PBVBVHStructure@Gu@2@@Z 10075f90 f i ScbScene.obj
 0001:000751a0       ??$addRigidNoSim@$0A@VRigidStatic@Scb@physx@@@Scene@Scb@physx@@AAEXAAVRigidStatic@12@AAVObjectTracker@12@PBVBVHStructure@Gu@2@@Z 100761a0 f i ScbScene.obj
 0001:000753b0       ??$pointerOffset@PAVShape@Scb@physx@@@shdfnd@physx@@YAPAVShape@Scb@1@PAXH@Z 100763b0 f i ScbScene.obj
 0001:000753c0       ??$processRemoves@VArticulation@Scb@physx@@$00$0A@@Scene@Scb@physx@@AAEXAAVObjectTracker@12@@Z 100763c0 f i ScbScene.obj
 0001:00075520       ??$processRemoves@VArticulationJoint@Scb@physx@@$0A@$0A@@Scene@Scb@physx@@AAEXAAVObjectTracker@12@@Z 10076520 f i ScbScene.obj
 0001:00075670       ??$processRemoves@VBody@Scb@physx@@$00$00@Scene@Scb@physx@@AAEXAAVObjectTracker@12@@Z 10076670 f i ScbScene.obj
 0001:00075a20       ??$processRemoves@VConstraint@Scb@physx@@$00$0A@@Scene@Scb@physx@@AAEXAAVObjectTracker@12@@Z 10076a20 f i ScbScene.obj
 0001:00075b80       ??$processRemoves@VRigidStatic@Scb@physx@@$0A@$00@Scene@Scb@physx@@AAEXAAVObjectTracker@12@@Z 10076b80 f i ScbScene.obj
 0001:00075f00       ??$processShapeRemoves@VBody@Scb@physx@@@Scene@Scb@physx@@AAEXAAVObjectTracker@12@@Z 10076f00 f i ScbScene.obj
 0001:000760a0       ??$processShapeRemoves@VRigidStatic@Scb@physx@@@Scene@Scb@physx@@AAEXAAVObjectTracker@12@@Z 100770a0 f i ScbScene.obj
 0001:00076240       ??$processSimUpdates@VArticulation@Scb@physx@@VArticulationCore@Sc@3@@Scene@Scb@physx@@AAEXPBQAVArticulationCore@Sc@2@I@Z 10077240 f i ScbScene.obj
 0001:000764a0       ??$processSimUpdates@VBody@Scb@physx@@VBodyCore@Sc@3@@Scene@Scb@physx@@AAEXPBQAVBodyCore@Sc@2@I@Z 100774a0 f i ScbScene.obj
 0001:00076600       ??$processSimUpdates@VConstraint@Scb@physx@@VConstraintCore@Sc@3@@Scene@Scb@physx@@AAEXPBQAVConstraintCore@Sc@2@I@Z 10077600 f i ScbScene.obj
 0001:00076820       ??$processUserUpdates@VArticulation@Scb@physx@@@Scene@Scb@physx@@AAEXAAVObjectTracker@12@@Z 10077820 f i ScbScene.obj
 0001:00076ad0       ??$processUserUpdates@VArticulationJoint@Scb@physx@@@Scene@Scb@physx@@AAEXAAVObjectTracker@12@@Z 10077ad0 f i ScbScene.obj
 0001:00076d70       ??$processUserUpdates@VBody@Scb@physx@@@Scene@Scb@physx@@AAEXAAVObjectTracker@12@@Z 10077d70 f i ScbScene.obj
 0001:000770e0       ??$processUserUpdates@VConstraint@Scb@physx@@@Scene@Scb@physx@@AAEXAAVObjectTracker@12@@Z 100780e0 f i ScbScene.obj
 0001:000773c0       ??$processUserUpdates@VRigidStatic@Scb@physx@@@Scene@Scb@physx@@AAEXAAVObjectTracker@12@@Z 100783c0 f i ScbScene.obj
 0001:000778a0       ??$remove@VArticulation@Scb@physx@@@Scene@Scb@physx@@AAEXAAVArticulation@12@AAVObjectTracker@12@_N@Z 100788a0 f i ScbScene.obj
 0001:00077920       ??$remove@VArticulationJoint@Scb@physx@@@Scene@Scb@physx@@AAEXAAVArticulationJoint@12@AAVObjectTracker@12@_N@Z 10078920 f i ScbScene.obj
 0001:00077990       ??$remove@VBody@Scb@physx@@@Scene@Scb@physx@@AAEXAAVBody@12@AAVObjectTracker@12@_N@Z 10078990 f i ScbScene.obj
 0001:00077c50       ??$remove@VRigidStatic@Scb@physx@@@Scene@Scb@physx@@AAEXAAVRigidStatic@12@AAVObjectTracker@12@_N@Z 10078c50 f i ScbScene.obj
 0001:00077ef0       ??$removeRigidNoSim@$00VBody@Scb@physx@@@Scene@Scb@physx@@AAEXAAVBody@12@AAVObjectTracker@12@@Z 10078ef0 f i ScbScene.obj
 0001:00078150       ??$removeRigidNoSim@$0A@VRigidStatic@Scb@physx@@@Scene@Scb@physx@@AAEXAAVRigidStatic@12@AAVObjectTracker@12@@Z 10079150 f i ScbScene.obj
 0001:000783a0       ??0?$InlineArray@PBVShapeCore@Sc@physx@@$0EA@VNamedAllocator@shdfnd@3@@shdfnd@physx@@QAE@ABVNamedAllocator@12@@Z 100793a0 f i ScbScene.obj
 0001:00078460       ??0BodyBuffer@Scb@physx@@QAE@XZ 10079460 f i ScbScene.obj
 0001:00078500       ??0RigidObjectBuffer@Scb@physx@@QAE@XZ 10079500 f i ScbScene.obj
 0001:00078650       ?allocateNotThreadSafe@FlushPool@Cm@physx@@QAEPAXII@Z 10079650 f i ScbScene.obj
 0001:00078730       ?clearNotThreadSafe@FlushPool@Cm@physx@@QAEXI@Z 10079730 f i ScbScene.obj
 0001:00078780       ?create@?$HashBase@PAVBase@Scb@physx@@PAV123@U?$Hash@PAVBase@Scb@physx@@@shdfnd@3@UGetKey@?$HashSetBase@PAVBase@Scb@physx@@U?$Hash@PAVBase@Scb@physx@@@shdfnd@3@VNonTrackingAllocator@53@$00@internal@53@VNonTrackingAllocator@53@$00@internal@shdfnd@physx@@QAEPAPAVBase@Scb@4@ABQAV564@AA_N@Z 10079780 f i ScbScene.obj
 0001:000788b0       ?createInstance@?$PvdFns@VArticulation@Scb@physx@@@@SAXAAVScene@Scb@physx@@AAVScbScenePvdClient@Vd@4@PAVArticulation@34@@Z 100798b0 f i ScbScene.obj
 0001:00078930       ?createInstance@?$PvdFns@VArticulationJoint@Scb@physx@@@@SAXAAVScene@Scb@physx@@AAVScbScenePvdClient@Vd@4@PAVArticulationJoint@34@@Z 10079930 f i ScbScene.obj
 0001:000789b0       ?createInstance@?$PvdFns@VBody@Scb@physx@@@@SAXAAVScene@Scb@physx@@AAVScbScenePvdClient@Vd@4@PAVBody@34@@Z 100799b0 f i ScbScene.obj
 0001:00078a30       ?createInstance@?$PvdFns@VConstraint@Scb@physx@@@@SAXAAVScene@Scb@physx@@AAVScbScenePvdClient@Vd@4@PAVConstraint@34@@Z 10079a30 f i ScbScene.obj
 0001:00078ab0       ?createInstance@?$PvdFns@VRigidStatic@Scb@physx@@@@SAXAAVScene@Scb@physx@@AAVScbScenePvdClient@Vd@4@PAVRigidStatic@34@@Z 10079ab0 f i ScbScene.obj
 0001:00078b30       ?erase@?$HashBase@PAVBase@Scb@physx@@PAV123@U?$Hash@PAVBase@Scb@physx@@@shdfnd@3@UGetKey@?$HashSetBase@PAVBase@Scb@physx@@U?$Hash@PAVBase@Scb@physx@@@shdfnd@3@VNonTrackingAllocator@53@$00@internal@53@VNonTrackingAllocator@53@$00@internal@shdfnd@physx@@QAE_NABQAVBase@Scb@4@@Z 10079b30 f i ScbScene.obj
 0001:00078c30       ?growAndPushBack@?$Array@VMaterialEvent@Scb@physx@@VNamedAllocator@shdfnd@3@@shdfnd@physx@@IAEAAVMaterialEvent@Scb@3@ABV453@@Z 10079c30 f i ScbScene.obj
 0001:00078cf0       ?recreate@?$Array@PAVShape@Scb@physx@@V?$InlineAllocator@$0BA@VNamedAllocator@shdfnd@physx@@@shdfnd@3@@shdfnd@physx@@IAEXI@Z 10079cf0 f i ScbScene.obj
 0001:00078da0       ?recreate@?$Array@URemovedShape@Scb@physx@@V?$InlineAllocator@$0CA@VNamedAllocator@shdfnd@physx@@@shdfnd@3@@shdfnd@physx@@IAEXI@Z 10079da0 f i ScbScene.obj
 0001:00078e50       ?recreate@?$Array@VMaterialEvent@Scb@physx@@VNamedAllocator@shdfnd@3@@shdfnd@physx@@IAEXI@Z 10079e50 f i ScbScene.obj
 0001:00078ed0       ?releaseInstance@?$PvdFns@VArticulation@Scb@physx@@@@SAXAAVScene@Scb@physx@@AAVScbScenePvdClient@Vd@4@PAVArticulation@34@@Z 10079ed0 f i ScbScene.obj
 0001:00078f50       ?releaseInstance@?$PvdFns@VArticulationJoint@Scb@physx@@@@SAXAAVScene@Scb@physx@@AAVScbScenePvdClient@Vd@4@PAVArticulationJoint@34@@Z 10079f50 f i ScbScene.obj
 0001:00078fe0       ?releaseInstance@?$PvdFns@VBody@Scb@physx@@@@SAXAAVScene@Scb@physx@@AAVScbScenePvdClient@Vd@4@PAVBody@34@@Z 10079fe0 f i ScbScene.obj
 0001:00079060       ?releaseInstance@?$PvdFns@VRigidStatic@Scb@physx@@@@SAXAAVScene@Scb@physx@@AAVScbScenePvdClient@Vd@4@PAVRigidStatic@34@@Z 1007a060 f i ScbScene.obj
 0001:000790e0       ?reserveInternal@?$HashBase@PAVBase@Scb@physx@@PAV123@U?$Hash@PAVBase@Scb@physx@@@shdfnd@3@UGetKey@?$HashSetBase@PAVBase@Scb@physx@@U?$Hash@PAVBase@Scb@physx@@@shdfnd@3@VNonTrackingAllocator@53@$00@internal@53@VNonTrackingAllocator@53@$00@internal@shdfnd@physx@@AAEXI@Z 1007a0e0 f i ScbScene.obj
 0001:00079270       ?resize@?$Array@PAVShape@Scb@physx@@V?$InlineAllocator@$0BA@VNamedAllocator@shdfnd@physx@@@shdfnd@3@@shdfnd@physx@@QAEXIABQAVShape@Scb@3@@Z 1007a270 f i ScbScene.obj
 0001:00079310       ?resize@?$Array@URemovedShape@Scb@physx@@V?$InlineAllocator@$0CA@VNamedAllocator@shdfnd@physx@@@shdfnd@3@@shdfnd@physx@@QAEXIABURemovedShape@Scb@3@@Z 1007a310 f i ScbScene.obj
 0001:00079360       ?resize@?$Array@VMaterialEvent@Scb@physx@@VNamedAllocator@shdfnd@3@@shdfnd@physx@@QAEXIABVMaterialEvent@Scb@3@@Z 1007a360 f i ScbScene.obj
 0001:000793b0       ?syncCollisionWriteThroughState@Body@Scb@physx@@QAEXXZ 1007a3b0 f i ScbScene.obj
 0001:00079660       ?syncState@Aggregate@Scb@physx@@QAEXAAVScene@23@@Z 1007a660 f i ScbScene.obj
 0001:00079830       ?syncState@Articulation@Scb@physx@@QAEXXZ 1007a830 f i ScbScene.obj
 0001:00079960       ?syncState@ArticulationJoint@Scb@physx@@QAEXXZ 1007a960 f i ScbScene.obj
 0001:00079cb0       ?syncState@Body@Scb@physx@@QAEXXZ 1007acb0 f i ScbScene.obj
 0001:0007a4f0       ?syncState@Constraint@Scb@physx@@QAEXXZ 1007b4f0 f i ScbScene.obj
 0001:0007a5e0       ?syncState@RigidObject@Scb@physx@@QAEXXZ 1007b5e0 f i ScbScene.obj
 0001:0007a810       ?updateInstance@?$PvdFns@VArticulation@Scb@physx@@@@SAXAAVScene@Scb@physx@@AAVScbScenePvdClient@Vd@4@PAVArticulation@34@@Z 1007b810 f i ScbScene.obj
 0001:0007a8b0       ?updateInstance@?$PvdFns@VBody@Scb@physx@@@@SAXAAVScene@Scb@physx@@AAVScbScenePvdClient@Vd@4@PAVBody@34@@Z 1007b8b0 f i ScbScene.obj
 0001:0007a950       ?updateInstance@?$PvdFns@VConstraint@Scb@physx@@@@SAXAAVScene@Scb@physx@@AAVScbScenePvdClient@Vd@4@PAVConstraint@34@@Z 1007b950 f i ScbScene.obj
 0001:0007a9f0       ??0ScbScenePvdClient@Vd@physx@@QAE@AAVScene@Scb@2@@Z 1007b9f0 f   ScbScenePvdClient.obj
 0001:0007aa40       ??1ScbScenePvdClient@Vd@physx@@UAE@XZ 1007ba40 f   ScbScenePvdClient.obj
 0001:0007aa90       ?setScenePvdFlag@ScbScenePvdClient@Vd@physx@@UAEXW4Enum@PxPvdSceneFlag@3@_N@Z 1007ba90 f   ScbScenePvdClient.obj
 0001:0007aab0       ?updateCamera@ScbScenePvdClient@Vd@physx@@UAEXPBDABVPxVec3@3@11@Z 1007bab0 f   ScbScenePvdClient.obj
 0001:0007aad0       ?drawPoints@ScbScenePvdClient@Vd@physx@@UAEXPBUPvdDebugPoint@pvdsdk@3@I@Z 1007bad0 f   ScbScenePvdClient.obj
 0001:0007aae0       ?drawLines@ScbScenePvdClient@Vd@physx@@UAEXPBUPvdDebugLine@pvdsdk@3@I@Z 1007bae0 f   ScbScenePvdClient.obj
 0001:0007aaf0       ?drawTriangles@ScbScenePvdClient@Vd@physx@@UAEXPBUPvdDebugTriangle@pvdsdk@3@I@Z 1007baf0 f   ScbScenePvdClient.obj
 0001:0007ab00       ?drawText@ScbScenePvdClient@Vd@physx@@UAEXABUPvdDebugText@pvdsdk@3@@Z 1007bb00 f   ScbScenePvdClient.obj
 0001:0007ab10       ?onPvdConnected@ScbScenePvdClient@Vd@physx@@UAEXXZ 1007bb10 f   ScbScenePvdClient.obj
 0001:0007ac00       ?onPvdDisconnected@ScbScenePvdClient@Vd@physx@@UAEXXZ 1007bc00 f   ScbScenePvdClient.obj
 0001:0007ac50       ?frameStart@ScbScenePvdClient@Vd@physx@@QAEXM@Z 1007bc50 f   ScbScenePvdClient.obj
 0001:0007ad00       ?frameEnd@ScbScenePvdClient@Vd@physx@@QAEXXZ 1007bd00 f   ScbScenePvdClient.obj
 0001:0007ae90       ?updatePvdProperties@ScbScenePvdClient@Vd@physx@@QAEXXZ 1007be90 f   ScbScenePvdClient.obj
 0001:0007aeb0       ?releasePvdInstance@ScbScenePvdClient@Vd@physx@@QAEXXZ 1007beb0 f   ScbScenePvdClient.obj
 0001:0007aef0       ?createPvdInstance@ScbScenePvdClient@Vd@physx@@QAEXPBVPxActor@3@@Z 1007bef0 f   ScbScenePvdClient.obj
 0001:0007af80       ?updatePvdProperties@ScbScenePvdClient@Vd@physx@@QAEXPBVPxActor@3@@Z 1007bf80 f   ScbScenePvdClient.obj
 0001:0007aff0       ?releasePvdInstance@ScbScenePvdClient@Vd@physx@@QAEXPBVPxActor@3@@Z 1007bff0 f   ScbScenePvdClient.obj
 0001:0007b070       ?createPvdInstance@ScbScenePvdClient@Vd@physx@@QAEXPBVActor@Scb@3@@Z 1007c070 f   ScbScenePvdClient.obj
 0001:0007b120       ?updatePvdProperties@ScbScenePvdClient@Vd@physx@@QAEXPBVActor@Scb@3@@Z 1007c120 f   ScbScenePvdClient.obj
 0001:0007b1c0       ?releasePvdInstance@ScbScenePvdClient@Vd@physx@@QAEXPBVActor@Scb@3@@Z 1007c1c0 f   ScbScenePvdClient.obj
 0001:0007b220       ?createPvdInstance@ScbScenePvdClient@Vd@physx@@QAEXPBVBody@Scb@3@@Z 1007c220 f   ScbScenePvdClient.obj
 0001:0007b2a0       ?updatePvdProperties@ScbScenePvdClient@Vd@physx@@QAEXPBVBody@Scb@3@@Z 1007c2a0 f   ScbScenePvdClient.obj
 0001:0007b300       ?updateKinematicTarget@ScbScenePvdClient@Vd@physx@@QAEXPBVBody@Scb@3@ABVPxTransform@3@@Z 1007c300 f   ScbScenePvdClient.obj
 0001:0007b370       ?createPvdInstance@ScbScenePvdClient@Vd@physx@@QAEXPBVRigidStatic@Scb@3@@Z 1007c370 f   ScbScenePvdClient.obj
 0001:0007b3c0       ?updatePvdProperties@ScbScenePvdClient@Vd@physx@@QAEXPBVRigidStatic@Scb@3@@Z 1007c3c0 f   ScbScenePvdClient.obj
 0001:0007b400       ?releasePvdInstance@ScbScenePvdClient@Vd@physx@@QAEXPBVRigidObject@Scb@3@@Z 1007c400 f   ScbScenePvdClient.obj
 0001:0007b460       ?createPvdInstance@ScbScenePvdClient@Vd@physx@@QAEXPBVConstraint@Scb@3@@Z 1007c460 f   ScbScenePvdClient.obj
 0001:0007b4c0       ?updatePvdProperties@ScbScenePvdClient@Vd@physx@@QAEXPBVConstraint@Scb@3@@Z 1007c4c0 f   ScbScenePvdClient.obj
 0001:0007b520       ?releasePvdInstance@ScbScenePvdClient@Vd@physx@@QAEXPBVConstraint@Scb@3@@Z 1007c520 f   ScbScenePvdClient.obj
 0001:0007b570       ?createPvdInstance@ScbScenePvdClient@Vd@physx@@QAEXPBVArticulation@Scb@3@@Z 1007c570 f   ScbScenePvdClient.obj
 0001:0007b5c0       ?updatePvdProperties@ScbScenePvdClient@Vd@physx@@QAEXPBVArticulation@Scb@3@@Z 1007c5c0 f   ScbScenePvdClient.obj
 0001:0007b600       ?releasePvdInstance@ScbScenePvdClient@Vd@physx@@QAEXPBVArticulation@Scb@3@@Z 1007c600 f   ScbScenePvdClient.obj
 0001:0007b650       ?createPvdInstance@ScbScenePvdClient@Vd@physx@@QAEXPBVArticulationJoint@Scb@3@@Z 1007c650 f   ScbScenePvdClient.obj
 0001:0007b660       ?updatePvdProperties@ScbScenePvdClient@Vd@physx@@QAEXPBVArticulationJoint@Scb@3@@Z 1007c660 f   ScbScenePvdClient.obj
 0001:0007b6a0       ?releasePvdInstance@ScbScenePvdClient@Vd@physx@@QAEXPBVArticulationJoint@Scb@3@@Z 1007c6a0 f   ScbScenePvdClient.obj
 0001:0007b6b0       ?createPvdInstance@ScbScenePvdClient@Vd@physx@@QAEXPBVMaterialCore@Sc@3@@Z 1007c6b0 f   ScbScenePvdClient.obj
 0001:0007b700       ?updatePvdProperties@ScbScenePvdClient@Vd@physx@@QAEXPBVMaterialCore@Sc@3@@Z 1007c700 f   ScbScenePvdClient.obj
 0001:0007b740       ?releasePvdInstance@ScbScenePvdClient@Vd@physx@@QAEXPBVMaterialCore@Sc@3@@Z 1007c740 f   ScbScenePvdClient.obj
 0001:0007b790       ?createPvdInstance@ScbScenePvdClient@Vd@physx@@QAEXPBVShape@Scb@3@AAVPxActor@3@@Z 1007c790 f   ScbScenePvdClient.obj
 0001:0007b850       ?updateMaterials@ScbScenePvdClient@Vd@physx@@QAEXPBVShape@Scb@3@@Z 1007c850 f   ScbScenePvdClient.obj
 0001:0007b890       ?updatePvdProperties@ScbScenePvdClient@Vd@physx@@QAEXPBVShape@Scb@3@@Z 1007c890 f   ScbScenePvdClient.obj
 0001:0007b8d0       ?releaseAndRecreateGeometry@ScbScenePvdClient@Vd@physx@@QAEXPBVShape@Scb@3@@Z 1007c8d0 f   ScbScenePvdClient.obj
 0001:0007b910       ?releasePvdInstance@ScbScenePvdClient@Vd@physx@@QAEXPBVShape@Scb@3@AAVPxActor@3@@Z 1007c910 f   ScbScenePvdClient.obj
 0001:0007ba80       ?addBodyAndShapesToPvd@ScbScenePvdClient@Vd@physx@@QAEXAAVBody@Scb@3@@Z 1007ca80 f   ScbScenePvdClient.obj
 0001:0007bbe0       ?addStaticAndShapesToPvd@ScbScenePvdClient@Vd@physx@@QAEXAAVRigidStatic@Scb@3@@Z 1007cbe0 f   ScbScenePvdClient.obj
 0001:0007bd10       ?createPvdInstance@ScbScenePvdClient@Vd@physx@@QAEXPBVAggregate@Scb@3@@Z 1007cd10 f   ScbScenePvdClient.obj
 0001:0007bdd0       ?updatePvdProperties@ScbScenePvdClient@Vd@physx@@QAEXPBVAggregate@Scb@3@@Z 1007cdd0 f   ScbScenePvdClient.obj
 0001:0007be10       ?attachAggregateActor@ScbScenePvdClient@Vd@physx@@QAEXPBVAggregate@Scb@3@PAVActor@53@@Z 1007ce10 f   ScbScenePvdClient.obj
 0001:0007be70       ?detachAggregateActor@ScbScenePvdClient@Vd@physx@@QAEXPBVAggregate@Scb@3@PAVActor@53@@Z 1007ce70 f   ScbScenePvdClient.obj
 0001:0007bed0       ?releasePvdInstance@ScbScenePvdClient@Vd@physx@@QAEXPBVAggregate@Scb@3@@Z 1007ced0 f   ScbScenePvdClient.obj
 0001:0007bf90       ?originShift@ScbScenePvdClient@Vd@physx@@QAEXVPxVec3@3@@Z 1007cf90 f   ScbScenePvdClient.obj
 0001:0007bfd0       ?updateJoints@ScbScenePvdClient@Vd@physx@@QAEXXZ 1007cfd0 f   ScbScenePvdClient.obj
 0001:0007c380       ?updateContacts@ScbScenePvdClient@Vd@physx@@QAEXXZ 1007d380 f   ScbScenePvdClient.obj
 0001:0007c650       ?updateSceneQueries@ScbScenePvdClient@Vd@physx@@QAEXXZ 1007d650 f   ScbScenePvdClient.obj
 0001:0007c690       ?visualize@ScbScenePvdClient@Vd@physx@@UAEXAAVPxArticulationLink@3@@Z 1007d690 f   ScbScenePvdClient.obj
 0001:0007c6e0       ?visualize@ScbScenePvdClient@Vd@physx@@QAEXABVPxRenderBuffer@3@@Z 1007d6e0 f   ScbScenePvdClient.obj
 0001:0007c760       ?sendEntireScene@ScbScenePvdClient@Vd@physx@@AAEXXZ 1007d760 f   ScbScenePvdClient.obj
 0001:0007cb60       ?updateConstraint@ScbScenePvdClient@Vd@physx@@AAEXABVConstraintCore@Sc@3@I@Z 1007db60 f   ScbScenePvdClient.obj
 0001:0007cbb0       ?setCreateContactReports@ScbScenePvdClient@Vd@physx@@AAEX_N@Z 1007dbb0 f   ScbScenePvdClient.obj
 0001:0007cbc0       ??1PvdVisualizer@Vd@physx@@MAE@XZ 1007dbc0 f i ScbScenePvdClient.obj
 0001:0007cbd0       ??1PxPvdSceneClient@physx@@MAE@XZ 1007dbd0 f i ScbScenePvdClient.obj
 0001:0007cbe0       ??1RendererEventClient@pvdsdk@physx@@UAE@XZ 1007dbe0 f i ScbScenePvdClient.obj
 0001:0007cbe7       ??_EScbScenePvdClient@Vd@physx@@W3AEPAXI@Z 1007dbe7 f i ScbScenePvdClient.obj
 0001:0007cbef       ??_EScbScenePvdClient@Vd@physx@@W7AEPAXI@Z 1007dbef f i ScbScenePvdClient.obj
 0001:0007cc30       ??_EPvdVisualizer@Vd@physx@@MAEPAXI@Z 1007dc30 f i ScbScenePvdClient.obj
 0001:0007cc30       ??_GPvdVisualizer@Vd@physx@@MAEPAXI@Z 1007dc30 f i ScbScenePvdClient.obj
 0001:0007cc60       ??_EPxPvdSceneClient@physx@@MAEPAXI@Z 1007dc60 f i ScbScenePvdClient.obj
 0001:0007cc60       ??_GPxPvdSceneClient@physx@@MAEPAXI@Z 1007dc60 f i ScbScenePvdClient.obj
 0001:0007cc90       ??_ERendererEventClient@pvdsdk@physx@@UAEPAXI@Z 1007dc90 f i ScbScenePvdClient.obj
 0001:0007cc90       ??_GRendererEventClient@pvdsdk@physx@@UAEPAXI@Z 1007dc90 f i ScbScenePvdClient.obj
 0001:0007ccc0       ??_GScbScenePvdClient@Vd@physx@@UAEPAXI@Z 1007dcc0 f i ScbScenePvdClient.obj
 0001:0007ccc0       ??_EScbScenePvdClient@Vd@physx@@UAEPAXI@Z 1007dcc0 f i ScbScenePvdClient.obj
 0001:0007cdd0       ?flush@ScbScenePvdClient@Vd@physx@@UAEXXZ 1007ddd0 f i ScbScenePvdClient.obj
 0001:0007cde0       ?getClientInternal@ScbScenePvdClient@Vd@physx@@UAEPAVPvdClient@pvdsdk@3@XZ 1007dde0 f i ScbScenePvdClient.obj
 0001:0007cdf0       ?getDataStream@ScbScenePvdClient@Vd@physx@@UAEPAVPvdDataStream@pvdsdk@3@XZ 1007ddf0 f i ScbScenePvdClient.obj
 0001:0007ce00       ?getMetaDataBinding@ScbScenePvdClient@Vd@physx@@UAEPAVPvdMetaDataBinding@23@XZ 1007de00 f i ScbScenePvdClient.obj
 0001:0007ce10       ?getScenePvdFlags@ScbScenePvdClient@Vd@physx@@UBE?AV?$PxFlags@W4Enum@PxPvdSceneFlag@physx@@E@3@XZ 1007de10 f i ScbScenePvdClient.obj
 0001:0007ce20       ?getUserRender@ScbScenePvdClient@Vd@physx@@UAEPAVPvdUserRenderer@pvdsdk@3@XZ 1007de20 f i ScbScenePvdClient.obj
 0001:0007ce30       ?growAndPushBack@?$Array@UContact@Sc@physx@@VNamedAllocator@shdfnd@3@@shdfnd@physx@@IAEAAUContact@Sc@3@ABU453@@Z 1007de30 f i ScbScenePvdClient.obj
 0001:0007cff0       ?isConnected@ScbScenePvdClient@Vd@physx@@UBE_NXZ 1007dff0 f i ScbScenePvdClient.obj
 0001:0007d000       ?setScenePvdFlags@ScbScenePvdClient@Vd@physx@@UAEXV?$PxFlags@W4Enum@PxPvdSceneFlag@physx@@E@3@@Z 1007e000 f i ScbScenePvdClient.obj
 0001:0007d140       ?syncState@Shape@Scb@physx@@QAEXXZ 1007e140 f   ScbShape.obj
 0001:0007d300       ?setMaterialsHelper@Shape@Scb@physx@@AAE_NPBQAVPxMaterial@3@G@Z 1007e300 f   ScbShape.obj
 0001:0007d400       _PxConstructSolverBodies   1007e400 f   NpImmediateMode.obj
 0001:0007d5f0       _PxConstructStaticSolverBody 1007e5f0 f   NpImmediateMode.obj
 0001:0007d650       _PxBatchConstraints        1007e650 f   NpImmediateMode.obj
 0001:0007d6e0       _PxCreateContactConstraints 1007e6e0 f   NpImmediateMode.obj
 0001:0007d8d0       _PxCreateJointConstraints  1007e8d0 f   NpImmediateMode.obj
 0001:0007da40       _PxCreateJointConstraintsWithShaders 1007ea40 f   NpImmediateMode.obj
 0001:0007da80       _PxCreateJointConstraintsWithImmediateShaders 1007ea80 f   NpImmediateMode.obj
 0001:0007dac0       _PxSolveConstraints        1007eac0 f   NpImmediateMode.obj
 0001:0007de30       _PxIntegrateSolverBodies   1007ee30 f   NpImmediateMode.obj
 0001:0007e3f0       _PxGenerateContacts        1007f3f0 f   NpImmediateMode.obj
 0001:0007e860       _PxRegisterImmediateArticulations 1007f860 f   NpImmediateMode.obj
 0001:0007e870       _PxCreateFeatherstoneArticulation 1007f870 f   NpImmediateMode.obj
 0001:0007ea60       _PxReleaseArticulation     1007fa60 f   NpImmediateMode.obj
 0001:0007ea90       _PxCreateArticulationCache 1007fa90 f   NpImmediateMode.obj
 0001:0007ed60       _PxCopyInternalStateToArticulationCache 1007fd60 f   NpImmediateMode.obj
 0001:0007ed80       _PxApplyArticulationCache  1007fd80 f   NpImmediateMode.obj
 0001:0007eda0       _PxReleaseArticulationCache 1007fda0 f   NpImmediateMode.obj
 0001:0007ee30       _PxAddArticulationLink     1007fe30 f   NpImmediateMode.obj
 0001:0007ee90       _PxGetLinkArticulation     1007fe90 f   NpImmediateMode.obj
 0001:0007eea0       _PxGetLinkIndex            1007fea0 f   NpImmediateMode.obj
 0001:0007eeb0       _PxGetLinkData             1007feb0 f   NpImmediateMode.obj
 0001:0007eee0       _PxGetAllLinkData          1007fee0 f   NpImmediateMode.obj
 0001:0007efb0       _PxGetMutableLinkData      1007ffb0 f   NpImmediateMode.obj
 0001:0007f040       _PxSetMutableLinkData      10080040 f   NpImmediateMode.obj
 0001:0007f0d0       _PxGetJointData            100800d0 f   NpImmediateMode.obj
 0001:0007f450       _PxSetJointData            10080450 f   NpImmediateMode.obj
 0001:0007fb40       _PxComputeUnconstrainedVelocities 10080b40 f   NpImmediateMode.obj
 0001:0007fc20       _PxUpdateArticulationBodies 10080c20 f   NpImmediateMode.obj
 0001:0007fc40       _PxComputeUnconstrainedVelocitiesTGS 10080c40 f   NpImmediateMode.obj
 0001:0007fd20       _PxUpdateArticulationBodiesTGS 10080d20 f   NpImmediateMode.obj
 0001:0007fd40       _PxConstructSolverBodiesTGS 10080d40 f   NpImmediateMode.obj
 0001:0007ff60       _PxConstructStaticSolverBodyTGS 10080f60 f   NpImmediateMode.obj
 0001:0007ffd0       _PxBatchConstraintsTGS     10080fd0 f   NpImmediateMode.obj
 0001:00080060       _PxCreateContactConstraintsTGS 10081060 f   NpImmediateMode.obj
 0001:00080220       _PxCreateJointConstraintsTGS 10081220 f   NpImmediateMode.obj
 0001:000803e0       _PxCreateJointConstraintsWithShadersTGS 100813e0 f   NpImmediateMode.obj
 0001:00080440       _PxCreateJointConstraintsWithImmediateShadersTGS 10081440 f   NpImmediateMode.obj
 0001:000804a0       _PxSolveConstraintsTGS     100814a0 f   NpImmediateMode.obj
 0001:000808c0       _PxIntegrateSolverBodiesTGS 100818c0 f   NpImmediateMode.obj
 0001:00082060       ??0ArticulationJointCore@Dy@physx@@QAE@XZ 10083060 f i NpImmediateMode.obj
 0001:00082120       ??0ContactPatchData@CorrelationBuffer@Dy@physx@@QAE@XZ 10083120 f i NpImmediateMode.obj
 0001:00082130       ??0ContactPoint@Gu@physx@@QAE@XZ 10083130 f i NpImmediateMode.obj
 0001:00082140       ??0FrictionPatch@Dy@physx@@QAE@XZ 10083140 f i NpImmediateMode.obj
 0001:00082150       ??0PersistentContact@Gu@physx@@QAE@XZ 10083150 f i NpImmediateMode.obj
 0001:00082160       ??0Px1DConstraint@physx@@QAE@XZ 10083160 f i NpImmediateMode.obj
 0001:00082170       ??0PxsBodyCore@physx@@QAE@XZ 10083170 f i NpImmediateMode.obj
 0001:00082190       ??0SpatialVectorF@Cm@physx@@QAE@XZ 10083190 f i NpImmediateMode.obj
 0001:000821a0       ??1SpatialVectorF@Cm@physx@@QAE@XZ 100831a0 f i NpImmediateMode.obj
 0001:00082210       ?addBody@ArticulationV@Dy@physx@@UAEXXZ 10083210 f i NpImmediateMode.obj
 0001:000826e0       ?growAndPushBack@?$Array@VSpatialVector@Cm@physx@@VNamedAllocator@shdfnd@3@@shdfnd@physx@@IAEAAVSpatialVector@Cm@3@ABV453@@Z 100836e0 f i NpImmediateMode.obj
 0001:00082d10       ?recreate@?$Array@PAEVNamedAllocator@shdfnd@physx@@@shdfnd@physx@@IAEXI@Z 10083d10 f i NpImmediateMode.obj
 0001:00082d90       ?recreate@?$Array@UArticulationLink@Dy@physx@@VNamedAllocator@shdfnd@3@@shdfnd@physx@@IAEXI@Z 10083d90 f i NpImmediateMode.obj
 0001:00082e20       ?removeBody@ArticulationV@Dy@physx@@UAEXXZ 10083e20 f i NpImmediateMode.obj
 0001:00082e30       ?willStoreStaticConstraint@FeatherstoneArticulation@Dy@physx@@UAE_NXZ 10083e30 f i NpImmediateMode.obj
 0001:00082e40       ??0PhysXIndicator@physx@@QAE@_N@Z 10083e40 f   PhysXIndicatorWindows.obj
 0001:00082fd0       ??1PhysXIndicator@physx@@QAE@XZ 10083fd0 f   PhysXIndicatorWindows.obj
 0001:00083010       ?setIsGpu@PhysXIndicator@physx@@QAEX_N@Z 10084010 f   PhysXIndicatorWindows.obj
 0001:00083040       ___local_stdio_printf_options 10084040 f i PhysXIndicatorWindows.obj
 0001:00083050       _sprintf                   10084050 f i PhysXIndicatorWindows.obj
 0001:00083080       _PxGetSuggestedCudaDeviceOrdinal 10084080 f   PxGpu.obj
 0001:000830b0       _PxCreateCudaContextManager 100840b0 f   PxGpu.obj
 0001:000830f0       _PxCreateCudaClientContextManager 100840f0 f   PxGpu.obj
 0001:00083110       _PxSetPhysXGpuLoadHook     10084110 f   PxPhysXGpuModuleLoader.obj
 0001:00083120       ?PxLoadPhysxGPUModule@physx@@YAXPBD@Z 10084120 f   PxPhysXGpuModuleLoader.obj
 0001:00083230       _PxSetPhysXDelayLoadHook   10084230 f   NpWindowsDelayLoadHook.obj
 0001:00083240       ?physxDelayHook@@YGP6GHXZIPAUDelayLoadInfo@@@Z 10084240 f   NpWindowsDelayLoadHook.obj
 0001:000835b0       ?PxvRegisterHeightFields@physx@@YAXXZ 100845b0 f   LowLevel_static_32:PxcContactMethodImpl.obj
 0001:00083610       ??0PxsContext@physx@@QAE@ABVPxSceneDesc@1@PAVPxTaskManager@1@AAVFlushPool@Cm@1@PAVPxCudaContextManager@1@_K@Z 10084610 f   LowLevel_static_32:PxsContext.obj
 0001:00083990       ??1PxsContext@physx@@QAE@XZ 10084990 f   LowLevel_static_32:PxsContext.obj
 0001:00083b30       ?createTransformCache@PxsContext@physx@@QAEXAAVVirtualAllocatorCallback@shdfnd@2@@Z 10084b30 f   LowLevel_static_32:PxsContext.obj
 0001:00083bb0       ?createContactManager@PxsContext@physx@@QAEPAVPxsContactManager@2@PAV32@_N@Z 10084bb0 f   LowLevel_static_32:PxsContext.obj
 0001:00083d10       ?createCache@PxsContext@physx@@QAEXAAUCache@Gu@2@PAVPxsContactManager@2@EE@Z 10084d10 f   LowLevel_static_32:PxsContext.obj
 0001:00083ff0       ?destroyCache@PxsContext@physx@@QAEXAAUCache@Gu@2@@Z 10084ff0 f   LowLevel_static_32:PxsContext.obj
 0001:00084050       ?destroyContactManager@PxsContext@physx@@QAEXPAVPxsContactManager@2@@Z 10085050 f   LowLevel_static_32:PxsContext.obj
 0001:00084150       ?setScratchBlock@PxsContext@physx@@QAEXPAXI@Z 10085150 f   LowLevel_static_32:PxsContext.obj
 0001:000841a0       ?setContactDistance@PxsContext@physx@@QAEXPAV?$Array@MVVirtualAllocator@shdfnd@physx@@@shdfnd@2@@Z 100851a0 f   LowLevel_static_32:PxsContext.obj
 0001:000841b0       ?updateContactManager@PxsContext@physx@@QAEXM_N0PAVPxBaseTask@2@1@Z 100851b0 f   LowLevel_static_32:PxsContext.obj
 0001:000841e0       ?secondPassUpdateContactManager@PxsContext@physx@@QAEXMPAVPxBaseTask@2@@Z 100851e0 f   LowLevel_static_32:PxsContext.obj
 0001:00084200       ?fetchUpdateContactManager@PxsContext@physx@@QAEXXZ 10085200 f   LowLevel_static_32:PxsContext.obj
 0001:00084220       ?swapStreams@PxsContext@physx@@QAEXXZ 10085220 f   LowLevel_static_32:PxsContext.obj
 0001:00084230       ?resetThreadContexts@PxsContext@physx@@QAEXXZ 10085230 f   LowLevel_static_32:PxsContext.obj
 0001:00084290       ?getManagerTouchEventCount@PxsContext@physx@@QBE_NPAH00@Z 10085290 f   LowLevel_static_32:PxsContext.obj
 0001:000842d0       ?fillManagerTouchEvents@PxsContext@physx@@QAE_NPAUPxvContactManagerTouchEvent@2@AAH0101@Z 100852d0 f   LowLevel_static_32:PxsContext.obj
 0001:00084420       ?fillManagerPatchChangedEvents@PxsContext@physx@@QAE_NPAPAVPxsContactManager@2@AAI01@Z 10085420 f   LowLevel_static_32:PxsContext.obj
 0001:00084550       ?beginUpdate@PxsContext@physx@@QAEXXZ 10085550 f   LowLevel_static_32:PxsContext.obj
 0001:00084570       ?getVisualizationParameter@PxsContext@physx@@QBEMW4Enum@PxVisualizationParameter@2@@Z 10085570 f   LowLevel_static_32:PxsContext.obj
 0001:00084580       ?setVisualizationParameter@PxsContext@physx@@QAEXW4Enum@PxVisualizationParameter@2@M@Z 10085580 f   LowLevel_static_32:PxsContext.obj
 0001:000845a0       ?shiftOrigin@PxsContext@physx@@QAEXABVPxVec3@2@@Z 100855a0 f   LowLevel_static_32:PxsContext.obj
 0001:00084710       ?setCreateContactStream@PxsContext@physx@@QAEX_N@Z 10085710 f   LowLevel_static_32:PxsContext.obj
 0001:00084770       ?mergeCMDiscreteUpdateResults@PxsContext@physx@@AAEXPAVPxBaseTask@2@@Z 10085770 f   LowLevel_static_32:PxsContext.obj
 0001:00084990       ??$combineInPlace@UOR@?$BitMapBase@VNonTrackingAllocator@shdfnd@physx@@@Cm@physx@@VNonTrackingAllocator@shdfnd@4@@?$BitMapBase@VNonTrackingAllocator@shdfnd@physx@@@Cm@physx@@QAEXABV012@@Z 10085990 f i LowLevel_static_32:PxsContext.obj
 0001:00084ae0       ??0PxcNpContext@physx@@QAE@XZ 10085ae0 f i LowLevel_static_32:PxsContext.obj
 0001:00084d30       ??1?$PoolBase@VLargePersistentContactManifold@Gu@physx@@VNamedAllocator@shdfnd@3@@shdfnd@physx@@QAE@XZ 10085d30 f i LowLevel_static_32:PxsContext.obj
 0001:00084ee0       ??1?$PoolBase@VSpherePersistentContactManifold@Gu@physx@@VNamedAllocator@shdfnd@3@@shdfnd@physx@@QAE@XZ 10085ee0 f i LowLevel_static_32:PxsContext.obj
 0001:00085090       ??1?$PxcThreadCoherentCache@VPxcNpThreadContext@physx@@UPxcNpContext@2@@physx@@QAE@XZ 10086090 f i LowLevel_static_32:PxsContext.obj
 0001:000850f0       ??1PxcNpContext@physx@@QAE@XZ 100860f0 f i LowLevel_static_32:PxsContext.obj
 0001:00085150       ?destroy@?$PoolList@VPxsContactManager@physx@@VPxsContext@2@@Cm@physx@@QAEXXZ 10086150 f i LowLevel_static_32:PxsContext.obj
 0001:000851e0       ?extend@?$BitMapBase@VNonTrackingAllocator@shdfnd@physx@@@Cm@physx@@IAEXI@Z 100861e0 f i LowLevel_static_32:PxsContext.obj
 0001:00085290       ?extend@?$PoolList@VPxsContactManager@physx@@VPxsContext@2@@Cm@physx@@QAE_NXZ 10086290 f i LowLevel_static_32:PxsContext.obj
 0001:000853b0       ??0PxcNpMemBlockPool@physx@@QAE@AAVPxcScratchAllocator@1@@Z 100863b0 f   LowLevel_static_32:PxcNpMemBlockPool.obj
 0001:00085640       ??1PxcNpMemBlockPool@physx@@QAE@XZ 10086640 f   LowLevel_static_32:PxcNpMemBlockPool.obj
 0001:000858a0       ?init@PxcNpMemBlockPool@physx@@QAEXII@Z 100868a0 f   LowLevel_static_32:PxcNpMemBlockPool.obj
 0001:000859f0       ?setBlockCount@PxcNpMemBlockPool@physx@@QAEXI@Z 100869f0 f   LowLevel_static_32:PxcNpMemBlockPool.obj
 0001:00085a90       ?getUsedBlockCount@PxcNpMemBlockPool@physx@@QBEIXZ 10086a90 f   LowLevel_static_32:PxcNpMemBlockPool.obj
 0001:00085aa0       ?getMaxUsedBlockCount@PxcNpMemBlockPool@physx@@QBEIXZ 10086aa0 f   LowLevel_static_32:PxcNpMemBlockPool.obj
 0001:00085ab0       ?getPeakConstraintBlockCount@PxcNpMemBlockPool@physx@@QBEIXZ 10086ab0 f   LowLevel_static_32:PxcNpMemBlockPool.obj
 0001:00085ac0       ?releaseUnusedBlocks@PxcNpMemBlockPool@physx@@QAEXXZ 10086ac0 f   LowLevel_static_32:PxcNpMemBlockPool.obj
 0001:00085b20       ?acquireConstraintBlock@PxcNpMemBlockPool@physx@@QAEPAUPxcNpMemBlock@2@XZ 10086b20 f   LowLevel_static_32:PxcNpMemBlockPool.obj
 0001:00085b30       ?acquireConstraintBlock@PxcNpMemBlockPool@physx@@QAEPAUPxcNpMemBlock@2@AAV?$Array@PAUPxcNpMemBlock@physx@@VNamedAllocator@shdfnd@2@@shdfnd@2@@Z 10086b30 f   LowLevel_static_32:PxcNpMemBlockPool.obj
 0001:00085b50       ?acquireContactBlock@PxcNpMemBlockPool@physx@@QAEPAUPxcNpMemBlock@2@XZ 10086b50 f   LowLevel_static_32:PxcNpMemBlockPool.obj
 0001:00085b70       ?acquireFrictionBlock@PxcNpMemBlockPool@physx@@QAEPAUPxcNpMemBlock@2@XZ 10086b70 f   LowLevel_static_32:PxcNpMemBlockPool.obj
 0001:00085b90       ?acquireNpCacheBlock@PxcNpMemBlockPool@physx@@QAEPAUPxcNpMemBlock@2@XZ 10086b90 f   LowLevel_static_32:PxcNpMemBlockPool.obj
 0001:00085bb0       ?acquireExceptionalConstraintMemory@PxcNpMemBlockPool@physx@@QAEPAEI@Z 10086bb0 f   LowLevel_static_32:PxcNpMemBlockPool.obj
 0001:00085c40       ?acquireConstraintMemory@PxcNpMemBlockPool@physx@@QAEXXZ 10086c40 f   LowLevel_static_32:PxcNpMemBlockPool.obj
 0001:00085d00       ?releaseConstraintMemory@PxcNpMemBlockPool@physx@@QAEXXZ 10086d00 f   LowLevel_static_32:PxcNpMemBlockPool.obj
 0001:00085e90       ?releaseConstraintBlocks@PxcNpMemBlockPool@physx@@QAEXAAV?$Array@PAUPxcNpMemBlock@physx@@VNamedAllocator@shdfnd@2@@shdfnd@2@@Z 10086e90 f   LowLevel_static_32:PxcNpMemBlockPool.obj
 0001:00085f50       ?releaseContacts@PxcNpMemBlockPool@physx@@QAEXXZ 10086f50 f   LowLevel_static_32:PxcNpMemBlockPool.obj
 0001:00085f90       ?swapFrictionStreams@PxcNpMemBlockPool@physx@@QAEXXZ 10086f90 f   LowLevel_static_32:PxcNpMemBlockPool.obj
 0001:00085fd0       ?swapNpCacheStreams@PxcNpMemBlockPool@physx@@QAEXXZ 10086fd0 f   LowLevel_static_32:PxcNpMemBlockPool.obj
 0001:00086000       ?flushUnused@PxcNpMemBlockPool@physx@@QAEXXZ 10087000 f   LowLevel_static_32:PxcNpMemBlockPool.obj
 0001:00086040       ?acquire@PxcNpMemBlockPool@physx@@AAEPAUPxcNpMemBlock@2@AAV?$Array@PAUPxcNpMemBlock@physx@@VNamedAllocator@shdfnd@2@@shdfnd@2@PAI1_N@Z 10087040 f   LowLevel_static_32:PxcNpMemBlockPool.obj
 0001:00086230       ?release@PxcNpMemBlockPool@physx@@AAEXAAV?$Array@PAUPxcNpMemBlock@physx@@VNamedAllocator@shdfnd@2@@shdfnd@2@PAI@Z 10087230 f   LowLevel_static_32:PxcNpMemBlockPool.obj
 0001:000862b0       ??1?$Array@PAUPxcNpMemBlock@physx@@VNamedAllocator@shdfnd@2@@shdfnd@physx@@QAE@XZ 100872b0 f i LowLevel_static_32:PxcNpMemBlockPool.obj
 0001:000862e0       ??_F?$Array@PAUPxcNpMemBlock@physx@@VNamedAllocator@shdfnd@2@@shdfnd@physx@@QAEXXZ 100872e0 f i LowLevel_static_32:PxcNpMemBlockPool.obj
 0001:00086320       ?growAndPushBack@?$Array@PAUPxcNpMemBlock@physx@@VNamedAllocator@shdfnd@2@@shdfnd@physx@@IAEAAPAUPxcNpMemBlock@3@ABQAU43@@Z 10087320 f i LowLevel_static_32:PxcNpMemBlockPool.obj
 0001:000863d0       ?recreate@?$Array@PAUPxcNpMemBlock@physx@@VNamedAllocator@shdfnd@2@@shdfnd@physx@@IAEXI@Z 100873d0 f i LowLevel_static_32:PxcNpMemBlockPool.obj
 0001:00086450       ?resize@?$Array@PAUPxcNpMemBlock@physx@@VNamedAllocator@shdfnd@2@@shdfnd@physx@@QAEXIABQAUPxcNpMemBlock@3@@Z 10087450 f i LowLevel_static_32:PxcNpMemBlockPool.obj
 0001:000864f0       ??0PxcNpThreadContext@physx@@QAE@PAUPxcNpContext@1@@Z 100874f0 f   LowLevel_static_32:PxcNpThreadContext.obj
 0001:000866c0       ??1PxcNpThreadContext@physx@@QAE@XZ 100876c0 f   LowLevel_static_32:PxcNpThreadContext.obj
 0001:00086750       ?clearStats@PxcNpThreadContext@physx@@QAEXXZ 10087750 f   LowLevel_static_32:PxcNpThreadContext.obj
 0001:00086790       ?reset@PxcNpThreadContext@physx@@QAEXI@Z 10087790 f   LowLevel_static_32:PxcNpThreadContext.obj
 0001:00086840       ?resize@?$BitMapBase@VNonTrackingAllocator@shdfnd@physx@@@Cm@physx@@QAEXI_N@Z 10087840 f i LowLevel_static_32:PxcNpThreadContext.obj
 0001:000868f0       ??0PxsContactManager@physx@@QAE@PAVPxsContext@1@I@Z 100878f0 f   LowLevel_static_32:PxsContactManager.obj
 0001:00086930       ??1PxsContactManager@physx@@QAE@XZ 10087930 f   LowLevel_static_32:PxsContactManager.obj
 0001:00086940       ?setCCD@PxsContactManager@physx@@QAEX_N@Z 10087940 f   LowLevel_static_32:PxsContactManager.obj
 0001:00086960       ?resetCachedState@PxsContactManager@physx@@QAEXXZ 10087960 f   LowLevel_static_32:PxsContactManager.obj
 0001:00086980       ?resetFrictionCachedState@PxsContactManager@physx@@QAEXXZ 10087980 f   LowLevel_static_32:PxsContactManager.obj
 0001:000869a0       ??0PxcNpCacheStreamPair@physx@@QAE@AAVPxcNpMemBlockPool@1@@Z 100879a0 f   LowLevel_static_32:PxcNpCacheStreamPair.obj
 0001:000869c0       ?reserve@PxcNpCacheStreamPair@physx@@QAEPAEI@Z 100879c0 f   LowLevel_static_32:PxcNpCacheStreamPair.obj
 0001:00086a30       ?reset@PxcNpCacheStreamPair@physx@@QAEXXZ 10087a30 f   LowLevel_static_32:PxcNpCacheStreamPair.obj
 0001:00086a40       ?resize@ArticulationV@Dy@physx@@UAE_NI@Z 10087a40 f   LowLevelDynamics_static_32:DyArticulation.obj
 0001:00086a70       ??0Articulation@Dy@physx@@QAE@PAX@Z 10087a70 f   LowLevelDynamics_static_32:DyArticulation.obj
 0001:00086c80       ??1Articulation@Dy@physx@@UAE@XZ 10087c80 f   LowLevelDynamics_static_32:DyArticulation.obj
 0001:00086db0       ?resize@Articulation@Dy@physx@@UAE_NI@Z 10087db0 f   LowLevelDynamics_static_32:DyArticulation.obj
 0001:00086f80       ?getDataSizes@Articulation@Dy@physx@@UAEXIAAI00@Z 10087f80 f   LowLevelDynamics_static_32:DyArticulation.obj
 0001:00086fc0       ?getImpulseResponse@Articulation@Dy@physx@@UBEXIPAUSpatialVectorF@Cm@3@ABVSpatialVector@53@AAV653@@Z 10087fc0 f   LowLevelDynamics_static_32:DyArticulation.obj
 0001:00086fe0       ?getImpulseResponse@Articulation@Dy@physx@@UBEXIPAUSpatialVectorV@Cm@3@ABU453@AAU453@@Z 10087fe0 f   LowLevelDynamics_static_32:DyArticulation.obj
 0001:00087000       ?getImpulseSelfResponse@Articulation@Dy@physx@@UBEXIIPAUSpatialVectorF@Cm@3@ABVSpatialVector@53@1AAV653@2@Z 10088000 f   LowLevelDynamics_static_32:DyArticulation.obj
 0001:00087030       ?getLinkVelocity@Articulation@Dy@physx@@UBE?AUSpatialVectorV@Cm@3@I@Z 10088030 f   LowLevelDynamics_static_32:DyArticulation.obj
 0001:00087060       ?getLinkMotionVector@Articulation@Dy@physx@@UBE?AUSpatialVectorV@Cm@3@I@Z 10088060 f   LowLevelDynamics_static_32:DyArticulation.obj
 0001:00087090       ?getMotionVelocity@Articulation@Dy@physx@@UBE?AVSpatialVector@Cm@3@I@Z 10088090 f   LowLevelDynamics_static_32:DyArticulation.obj
 0001:000870f0       ?getMotionAcceleration@Articulation@Dy@physx@@UBE?AVSpatialVector@Cm@3@I@Z 100880f0 f   LowLevelDynamics_static_32:DyArticulation.obj
 0001:00087130       ?fillIndexedManager@Articulation@Dy@physx@@UAEXIAAIAAE@Z 10088130 f   LowLevelDynamics_static_32:DyArticulation.obj
 0001:00087150       ?getLinkMaxPenBias@Articulation@Dy@physx@@UBEMI@Z 10088150 f   LowLevelDynamics_static_32:DyArticulation.obj
 0001:00087180       ?computeUnconstrainedVelocities@Articulation@Dy@physx@@SAIABUArticulationSolverDesc@23@MAAVPxConstraintAllocator@3@PAUPxSolverConstraintDesc@3@AAIABVPxVec3@3@_KPAUSpatialVectorF@Cm@3@6@Z 10088180 f   LowLevelDynamics_static_32:DyArticulation.obj
 0001:00087290       ?computeUnconstrainedVelocitiesTGS@Articulation@Dy@physx@@SAXABUArticulationSolverDesc@23@MABVPxVec3@3@_KPAUSpatialVectorF@Cm@3@3@Z 10088290 f   LowLevelDynamics_static_32:DyArticulation.obj
 0001:000872f0       ?saveVelocity@Articulation@Dy@physx@@SAXABUArticulationSolverDesc@23@PAUSpatialVectorF@Cm@3@@Z 100882f0 f   LowLevelDynamics_static_32:DyArticulation.obj
 0001:00087370       ?saveVelocityTGS@Articulation@Dy@physx@@SAXABUArticulationSolverDesc@23@M@Z 10088370 f   LowLevelDynamics_static_32:DyArticulation.obj
 0001:00087410       ?updateBodies@Articulation@Dy@physx@@SAXABUArticulationSolverDesc@23@M@Z 10088410 f   LowLevelDynamics_static_32:DyArticulation.obj
 0001:00088200       ?recordDeltaMotion@Articulation@Dy@physx@@SAXABUArticulationSolverDesc@23@MPAUSpatialVectorF@Cm@3@@Z 10089200 f   LowLevelDynamics_static_32:DyArticulation.obj
 0001:00088490       ?deltaMotionToMotionVelocity@Articulation@Dy@physx@@SAXABUArticulationSolverDesc@23@M@Z 10089490 f   LowLevelDynamics_static_32:DyArticulation.obj
 0001:00088520       ?pxcFsApplyImpulse@Articulation@Dy@physx@@UAEXIT__m128@@0PAUSpatialVectorF@Cm@3@1@Z 10089520 f   LowLevelDynamics_static_32:DyArticulation.obj
 0001:000886a0       ?pxcFsApplyImpulses@Articulation@Dy@physx@@UAEXIABT__m128@@0I00PAUSpatialVectorF@Cm@3@1@Z 100896a0 f   LowLevelDynamics_static_32:DyArticulation.obj
 0001:000886f0       ?solveInternalConstraints@Articulation@Dy@physx@@UAEXMMPAUSpatialVectorF@Cm@3@0_N1M@Z 100896f0 f   LowLevelDynamics_static_32:DyArticulation.obj
 0001:00088700       ?pxcFsGetVelocity@Articulation@Dy@physx@@UAE?AUSpatialVectorV@Cm@3@I@Z 10089700 f   LowLevelDynamics_static_32:DyArticulation.obj
 0001:00088cc0       ?pxcFsGetVelocities@Articulation@Dy@physx@@UAEXIIAAUSpatialVectorV@Cm@3@0@Z 10089cc0 f   LowLevelDynamics_static_32:DyArticulation.obj
 0001:00088d20       ?prepareDataBlock@Articulation@Dy@physx@@SAXAAUFsData@23@PBUArticulationLink@23@GPAVPxTransform@3@PAVPxQuat@3@PAUFsInertia@23@PAUArticulationJointTransforms@23@I@Z 10089d20 f   LowLevelDynamics_static_32:DyArticulation.obj
 0001:000890f0       ?prepareFsData@Articulation@Dy@physx@@SAXAAUFsData@23@PBUArticulationLink@23@@Z 1008a0f0 f   LowLevelDynamics_static_32:DyArticulation.obj
 0001:000892a0       ?getResistance@Articulation@Dy@physx@@SAMM@Z 1008a2a0 f   LowLevelDynamics_static_32:DyArticulation.obj
 0001:000892b0       ?getFsDataSize@Articulation@Dy@physx@@SAII@Z 1008a2b0 f   LowLevelDynamics_static_32:DyArticulation.obj
 0001:000892c0       ?getLtbDataSize@Articulation@Dy@physx@@SAII@Z 1008a2c0 f   LowLevelDynamics_static_32:DyArticulation.obj
 0001:000892d0       ?setInertia@Articulation@Dy@physx@@SAXAAUFsInertia@23@ABUPxsBodyCore@3@ABVPxTransform@3@@Z 1008a2d0 f   LowLevelDynamics_static_32:DyArticulation.obj
 0001:00089660       ?setJointTransforms@Articulation@Dy@physx@@SAXAAUArticulationJointTransforms@23@ABVPxTransform@3@1ABUArticulationJointCore@23@@Z 1008a660 f   LowLevelDynamics_static_32:DyArticulation.obj
 0001:00089e30       ?applyImpulses@Articulation@Dy@physx@@SAXABUFsData@23@PAUSpatialVectorV@Cm@3@1@Z 1008ae30 f   LowLevelDynamics_static_32:DyArticulation.obj
 0001:0008a350       ?computeUnconstrainedVelocitiesInternal@Articulation@Dy@physx@@AAEXABUArticulationSolverDesc@23@MABVPxVec3@3@_KPIAUFsInertia@23@PIAUArticulationJointTransforms@23@AAUPxcFsScratchAllocator@23@@Z 1008b350 f   LowLevelDynamics_static_32:DyArticulation.obj
 0001:0008aeb0       ?prepareLtbMatrix@Articulation@Dy@physx@@AAEXAAUFsData@23@PBUFsInertia@23@PBVPxTransform@3@PBUArticulationJointTransforms@23@M@Z 1008beb0 f   LowLevelDynamics_static_32:DyArticulation.obj
 0001:0008b260       ?computeJointDrives@Articulation@Dy@physx@@AAEXAAUFsData@23@PAT__m128@@PBUArticulationLink@23@PBVPxTransform@3@PBUArticulationJointTransforms@23@PBUMat33V@aos@shdfnd@3@M@Z 1008c260 f   LowLevelDynamics_static_32:DyArticulation.obj
 0001:0008b830       ?initialize@PxvArticulationDriveCache@Dy@physx@@SAXAAUFsData@23@GPBUArticulationLink@23@MIPADI@Z 1008c830 f   LowLevelDynamics_static_32:DyArticulation.obj
 0001:0008b9c0       ?getLinkCount@PxvArticulationDriveCache@Dy@physx@@SAIABUFsData@23@@Z 1008c9c0 f   LowLevelDynamics_static_32:DyArticulation.obj
 0001:0008b9d0       ?applyImpulses@PxvArticulationDriveCache@Dy@physx@@SAXABUFsData@23@PAUSpatialVectorV@Cm@3@1@Z 1008c9d0 f   LowLevelDynamics_static_32:DyArticulation.obj
 0001:0008b9e0       ?getImpulseResponse@PxvArticulationDriveCache@Dy@physx@@SAXABUFsData@23@IABUSpatialVectorV@Cm@3@AAU563@@Z 1008c9e0 f   LowLevelDynamics_static_32:DyArticulation.obj
 0001:0008b9f0       ?PxvRegisterArticulations@Dy@physx@@YAXXZ 1008c9f0 f   LowLevelDynamics_static_32:DyArticulation.obj
 0001:0008ba60       ?PxcLtbFactor@Dy@physx@@YAXAAUFsData@12@@Z 1008ca60 f   LowLevelDynamics_static_32:DyArticulation.obj
 0001:0008cba0       ?PxcLtbComputeJv@Dy@physx@@YAXPAT__m128@@ABUFsData@12@PBUSpatialVectorV@Cm@2@@Z 1008dba0 f   LowLevelDynamics_static_32:DyArticulation.obj
 0001:0008cc90       ?PxcLtbSolve@Dy@physx@@YAXABUFsData@12@PAT__m128@@PAUSpatialVectorV@Cm@2@@Z 1008dc90 f   LowLevelDynamics_static_32:DyArticulation.obj
 0001:0008d260       ?PxcLtbProject@Dy@physx@@YAXABUFsData@12@PAUSpatialVectorV@Cm@2@PAT__m128@@@Z 1008e260 f   LowLevelDynamics_static_32:DyArticulation.obj
 0001:0008d2d0       ?PxcFsComputeJointLoadsSimd@Dy@physx@@YAXABUFsData@12@PIBUFsInertia@12@PIAUMat33V@aos@shdfnd@2@PIBMIIUPxcFsScratchAllocator@12@@Z 1008e2d0 f   LowLevelDynamics_static_32:DyArticulation.obj
 0001:0008f980       ?PxcFsPropagateDrivenInertiaSimd@Dy@physx@@YAXAAUFsData@12@PBUFsInertia@12@PBMPBUMat33V@aos@shdfnd@2@UPxcFsScratchAllocator@12@@Z 10090980 f   LowLevelDynamics_static_32:DyArticulation.obj
 0001:000908f0       ?PxcFsApplyJointDrives@Dy@physx@@YAXAAUFsData@12@PBT__m128@@@Z 100918f0 f   LowLevelDynamics_static_32:DyArticulation.obj
 0001:00090e20       ??0SpatialVectorV@Cm@physx@@QAE@XZ 10091e20 f i LowLevelDynamics_static_32:DyArticulation.obj
 0001:00090e30       ??1ArticulationV@Dy@physx@@UAE@XZ 10091e30 f i LowLevelDynamics_static_32:DyArticulation.obj
 0001:00090e60       ??1SpatialVector@Cm@physx@@QAE@XZ 10091e60 f i LowLevelDynamics_static_32:DyArticulation.obj
 0001:00090e70       ??_GArticulation@Dy@physx@@UAEPAXI@Z 10091e70 f i LowLevelDynamics_static_32:DyArticulation.obj
 0001:00090e70       ??_EArticulation@Dy@physx@@UAEPAXI@Z 10091e70 f i LowLevelDynamics_static_32:DyArticulation.obj
 0001:00090ea0       ??_GArticulationV@Dy@physx@@UAEPAXI@Z 10091ea0 f i LowLevelDynamics_static_32:DyArticulation.obj
 0001:00090ea0       ??_EArticulationV@Dy@physx@@UAEPAXI@Z 10091ea0 f i LowLevelDynamics_static_32:DyArticulation.obj
 0001:00090ef0       ?applyCache@ArticulationV@Dy@physx@@UAE_NAAVPxArticulationCache@3@V?$PxFlags@W4Enum@PxArticulationCache@physx@@E@3@@Z 10091ef0 f i LowLevelDynamics_static_32:DyArticulation.obj
 0001:00090f00       ?computeSIS@ArticulationFnsSimdBase@Dy@physx@@SA?AUMat33V@aos@shdfnd@3@ABUFsInertia@23@QBUSpatialVectorV@Cm@3@QAU893@@Z 10091f00 f i LowLevelDynamics_static_32:DyArticulation.obj
 0001:000913d0       ?copyInternalStateToCache@ArticulationV@Dy@physx@@UAEXAAVPxArticulationCache@3@V?$PxFlags@W4Enum@PxArticulationCache@physx@@E@3@@Z 100923d0 f i LowLevelDynamics_static_32:DyArticulation.obj
 0001:000913e0       ?getCoefficientMatrix@ArticulationV@Dy@physx@@UAEXMIPBVPxContactJoint@3@IAAVPxArticulationCache@3@@Z 100923e0 f i LowLevelDynamics_static_32:DyArticulation.obj
 0001:000913f0       ?getCoefficientMatrixWithLoopJoints@ArticulationV@Dy@physx@@UAEXPAUArticulationLoopConstraint@23@IAAVPxArticulationCache@3@@Z 100923f0 f i LowLevelDynamics_static_32:DyArticulation.obj
 0001:00091400       ?getCoriolisAndCentrifugalForce@ArticulationV@Dy@physx@@UAEXAAVPxArticulationCache@3@@Z 10092400 f i LowLevelDynamics_static_32:DyArticulation.obj
 0001:00091410       ?getCurrentTransform@Articulation@Dy@physx@@UBEABVPxTransform@3@I@Z 10092410 f i LowLevelDynamics_static_32:DyArticulation.obj
 0001:00091430       ?getDeltaQ@Articulation@Dy@physx@@UBEABVPxQuat@3@I@Z 10092430 f i LowLevelDynamics_static_32:DyArticulation.obj
 0001:00091440       ?getDenseJacobian@ArticulationV@Dy@physx@@UAEXAAVPxArticulationCache@3@AAI1@Z 10092440 f i LowLevelDynamics_static_32:DyArticulation.obj
 0001:00091450       ?getDof@ArticulationV@Dy@physx@@UAEII@Z 10092450 f i LowLevelDynamics_static_32:DyArticulation.obj
 0001:00091460       ?getDofs@ArticulationV@Dy@physx@@UAEIXZ 10092460 f i LowLevelDynamics_static_32:DyArticulation.obj
 0001:00091470       ?getGeneralizedExternalForce@ArticulationV@Dy@physx@@UAEXAAVPxArticulationCache@3@@Z 10092470 f i LowLevelDynamics_static_32:DyArticulation.obj
 0001:00091480       ?getGeneralizedGravityForce@ArticulationV@Dy@physx@@UAEXABVPxVec3@3@AAVPxArticulationCache@3@@Z 10092480 f i LowLevelDynamics_static_32:DyArticulation.obj
 0001:00091490       ?getGeneralizedMassMatrix@ArticulationV@Dy@physx@@UAEXAAVPxArticulationCache@3@@Z 10092490 f i LowLevelDynamics_static_32:DyArticulation.obj
 0001:000914a0       ?getGeneralizedMassMatrixCRB@ArticulationV@Dy@physx@@UAEXAAVPxArticulationCache@3@@Z 100924a0 f i LowLevelDynamics_static_32:DyArticulation.obj
 0001:000914b0       ?getJointAcceleration@ArticulationV@Dy@physx@@UAEXABVPxVec3@3@AAVPxArticulationCache@3@@Z 100924b0 f i LowLevelDynamics_static_32:DyArticulation.obj
 0001:000914c0       ?getJointForce@ArticulationV@Dy@physx@@UAEXAAVPxArticulationCache@3@@Z 100924c0 f i LowLevelDynamics_static_32:DyArticulation.obj
 0001:000914d0       ?getLambda@ArticulationV@Dy@physx@@UAE_NPAUArticulationLoopConstraint@23@IAAVPxArticulationCache@3@1PBMABVPxVec3@3@I@Z 100924d0 f i LowLevelDynamics_static_32:DyArticulation.obj
 0001:000914e0       ?initializeCommonData@ArticulationV@Dy@physx@@UAEXXZ 100924e0 f i LowLevelDynamics_static_32:DyArticulation.obj
 0001:000914f0       ?onUpdateSolverDesc@Articulation@Dy@physx@@UAEXXZ 100924f0 f i LowLevelDynamics_static_32:DyArticulation.obj
 0001:00091530       ?onUpdateSolverDesc@ArticulationV@Dy@physx@@UAEXXZ 10092530 f i LowLevelDynamics_static_32:DyArticulation.obj
 0001:00091540       ?packJointData@ArticulationV@Dy@physx@@UAEXPBMPAM@Z 10092540 f i LowLevelDynamics_static_32:DyArticulation.obj
 0001:00091550       ?prepareStaticConstraints@ArticulationV@Dy@physx@@UAEXMMAAVPxsContactManagerOutputIterator@3@AAVThreadContext@23@MMMMMPAUPxSolverBodyData@3@AAVPxsConstraintBlockManager@3@PAUConstraintWriteback@23@@Z 10092550 f i LowLevelDynamics_static_32:DyArticulation.obj
 0001:00091560       ?prepareStaticConstraintsTGS@ArticulationV@Dy@physx@@UAEXMMMMAAVPxsContactManagerOutputIterator@3@AAVThreadContext@23@MMMPAUPxTGSSolverBodyData@3@PAUPxTGSSolverBodyTxInertia@3@AAVPxsConstraintBlockManager@3@PAUConstraintWriteback@23@IM@Z 10092560 f i LowLevelDynamics_static_32:DyArticulation.obj
 0001:00091570       ?pxcFsGetVelocityTGS@Articulation@Dy@physx@@UAE?AUSpatialVectorV@Cm@3@I@Z 10092570 f i LowLevelDynamics_static_32:DyArticulation.obj
 0001:00091590       ?recreate@?$Array@UMat33V@aos@shdfnd@physx@@VNamedAllocator@34@@shdfnd@physx@@IAEXI@Z 10092590 f i LowLevelDynamics_static_32:DyArticulation.obj
 0001:00091630       ?recreate@?$Array@USpatialVectorV@Cm@physx@@VNamedAllocator@shdfnd@3@@shdfnd@physx@@IAEXI@Z 10092630 f i LowLevelDynamics_static_32:DyArticulation.obj
 0001:000916c0       ?recreate@?$Array@VPxQuat@physx@@VNamedAllocator@shdfnd@2@@shdfnd@physx@@IAEXI@Z 100926c0 f i LowLevelDynamics_static_32:DyArticulation.obj
 0001:00091800       ?recreate@?$Array@VPxTransform@physx@@VNamedAllocator@shdfnd@2@@shdfnd@physx@@IAEXI@Z 10092800 f i LowLevelDynamics_static_32:DyArticulation.obj
 0001:000918e0       ?resize@?$Array@DVNamedAllocator@shdfnd@physx@@@shdfnd@physx@@QAEXIABD@Z 100928e0 f i LowLevelDynamics_static_32:DyArticulation.obj
 0001:00091980       ?resize@?$Array@UMat33V@aos@shdfnd@physx@@VNamedAllocator@34@@shdfnd@physx@@QAEXIABUMat33V@aos@23@@Z 10092980 f i LowLevelDynamics_static_32:DyArticulation.obj
 0001:000919e0       ?resize@?$Array@USpatialVectorV@Cm@physx@@VNamedAllocator@shdfnd@3@@shdfnd@physx@@QAEXIABUSpatialVectorV@Cm@3@@Z 100929e0 f i LowLevelDynamics_static_32:DyArticulation.obj
 0001:00091a30       ?resize@?$Array@VPxQuat@physx@@VNamedAllocator@shdfnd@2@@shdfnd@physx@@QAEXIABVPxQuat@3@@Z 10092a30 f i LowLevelDynamics_static_32:DyArticulation.obj
 0001:00091b30       ?resize@?$Array@VPxTransform@physx@@VNamedAllocator@shdfnd@2@@shdfnd@physx@@QAEXIABVPxTransform@3@@Z 10092b30 f i LowLevelDynamics_static_32:DyArticulation.obj
 0001:00091bb0       ?storeStaticConstraint@ArticulationV@Dy@physx@@UAE_NABUPxSolverConstraintDesc@3@@Z 10092bb0 f i LowLevelDynamics_static_32:DyArticulation.obj
 0001:00091bc0       ?teleportRootLink@ArticulationV@Dy@physx@@UAEXXZ 10092bc0 f i LowLevelDynamics_static_32:DyArticulation.obj
 0001:00091bd0       ?unpackJointData@ArticulationV@Dy@physx@@UAEXPBMPAM@Z 10092bd0 f i LowLevelDynamics_static_32:DyArticulation.obj
 0001:00091be0       ?willStoreStaticConstraint@ArticulationV@Dy@physx@@UAE_NXZ 10092be0 f i LowLevelDynamics_static_32:DyArticulation.obj
 0001:00091bf0       ?writebackInternalConstraints@Articulation@Dy@physx@@UAEX_N@Z 10092bf0 f i LowLevelDynamics_static_32:DyArticulation.obj
 0001:00091c00       ?setJointPose@ArticulationJointCore@Dy@physx@@QAEXAAVArticulationJointCoreData@23@AAUSpatialSubspaceMatrix@23@_NAAVPxQuat@3@@Z 10092c00 f   LowLevelDynamics_static_32:DyFeatherstoneArticulation.obj
 0001:00092400       ??1ArticulationData@Dy@physx@@QAE@XZ 10093400 f   LowLevelDynamics_static_32:DyFeatherstoneArticulation.obj
 0001:00092840       ?resizeLinkData@ArticulationData@Dy@physx@@QAEXI@Z 10093840 f   LowLevelDynamics_static_32:DyFeatherstoneArticulation.obj
 0001:00092ca0       ?resizeJointData@ArticulationData@Dy@physx@@QAEXI@Z 10093ca0 f   LowLevelDynamics_static_32:DyFeatherstoneArticulation.obj
 0001:00092d90       ?getLinkData@ArticulationData@Dy@physx@@QBEAAVArticulationLinkData@23@I@Z 10093d90 f   LowLevelDynamics_static_32:DyFeatherstoneArticulation.obj
 0001:00092db0       ??0FeatherstoneArticulation@Dy@physx@@QAE@PAX@Z 10093db0 f   LowLevelDynamics_static_32:DyFeatherstoneArticulation.obj
 0001:00092ec0       ??1FeatherstoneArticulation@Dy@physx@@UAE@XZ 10093ec0 f   LowLevelDynamics_static_32:DyFeatherstoneArticulation.obj
 0001:00092f60       ?getDataSizes@FeatherstoneArticulation@Dy@physx@@UAEXIAAI00@Z 10093f60 f   LowLevelDynamics_static_32:DyFeatherstoneArticulation.obj
 0001:00092f90       ?resize@FeatherstoneArticulation@Dy@physx@@UAE_NI@Z 10093f90 f   LowLevelDynamics_static_32:DyFeatherstoneArticulation.obj
 0001:00093000       ?onUpdateSolverDesc@FeatherstoneArticulation@Dy@physx@@UAEXXZ 10094000 f   LowLevelDynamics_static_32:DyFeatherstoneArticulation.obj
 0001:00093050       ?getDofs@FeatherstoneArticulation@Dy@physx@@UAEIXZ 10094050 f   LowLevelDynamics_static_32:DyFeatherstoneArticulation.obj
 0001:00093070       ?getDof@FeatherstoneArticulation@Dy@physx@@UAEII@Z 10094070 f   LowLevelDynamics_static_32:DyFeatherstoneArticulation.obj
 0001:00093090       ?applyCache@FeatherstoneArticulation@Dy@physx@@UAE_NAAVPxArticulationCache@3@V?$PxFlags@W4Enum@PxArticulationCache@physx@@E@3@@Z 10094090 f   LowLevelDynamics_static_32:DyFeatherstoneArticulation.obj
 0001:000930d0       ?copyInternalStateToCache@FeatherstoneArticulation@Dy@physx@@UAEXAAVPxArticulationCache@3@V?$PxFlags@W4Enum@PxArticulationCache@physx@@E@3@@Z 100940d0 f   LowLevelDynamics_static_32:DyFeatherstoneArticulation.obj
 0001:00093660       ?getDenseJacobian@FeatherstoneArticulation@Dy@physx@@UAEXAAVPxArticulationCache@3@AAI1@Z 10094660 f   LowLevelDynamics_static_32:DyFeatherstoneArticulation.obj
 0001:00093dc0       ?storeStaticConstraint@FeatherstoneArticulation@Dy@physx@@UAE_NABUPxSolverConstraintDesc@3@@Z 10094dc0 f   LowLevelDynamics_static_32:DyFeatherstoneArticulation.obj
 0001:00093e10       ?teleportRootLink@FeatherstoneArticulation@Dy@physx@@UAEXXZ 10094e10 f   LowLevelDynamics_static_32:DyFeatherstoneArticulation.obj
 0001:00094b60       ?getImpulseResponse@FeatherstoneArticulation@Dy@physx@@UBEXIPAUSpatialVectorF@Cm@3@ABVSpatialVector@53@AAV653@@Z 10095b60 f   LowLevelDynamics_static_32:DyFeatherstoneArticulation.obj
 0001:00094cb0       ?getImpulseResponse@FeatherstoneArticulation@Dy@physx@@UBEXIPAUSpatialVectorV@Cm@3@ABU453@AAU453@@Z 10095cb0 f   LowLevelDynamics_static_32:DyFeatherstoneArticulation.obj
 0001:00094cf0       ?getImpulseSelfResponse@FeatherstoneArticulation@Dy@physx@@UBEXIIPAUSpatialVectorF@Cm@3@ABVSpatialVector@53@1AAV653@2@Z 10095cf0 f   LowLevelDynamics_static_32:DyFeatherstoneArticulation.obj
 0001:00094d30       ?getLinkVelocity@FeatherstoneArticulation@Dy@physx@@UBE?AUSpatialVectorV@Cm@3@I@Z 10095d30 f   LowLevelDynamics_static_32:DyFeatherstoneArticulation.obj
 0001:00094d60       ?getLinkMotionVector@FeatherstoneArticulation@Dy@physx@@UBE?AUSpatialVectorV@Cm@3@I@Z 10095d60 f   LowLevelDynamics_static_32:DyFeatherstoneArticulation.obj
 0001:00094da0       ?getMotionVelocity@FeatherstoneArticulation@Dy@physx@@UBE?AVSpatialVector@Cm@3@I@Z 10095da0 f   LowLevelDynamics_static_32:DyFeatherstoneArticulation.obj
 0001:00094df0       ?getMotionAcceleration@FeatherstoneArticulation@Dy@physx@@UBE?AVSpatialVector@Cm@3@I@Z 10095df0 f   LowLevelDynamics_static_32:DyFeatherstoneArticulation.obj
 0001:00094e20       ?fillIndexedManager@FeatherstoneArticulation@Dy@physx@@UAEXIAAIAAE@Z 10095e20 f   LowLevelDynamics_static_32:DyFeatherstoneArticulation.obj
 0001:00094e60       ?getLinkMaxPenBias@FeatherstoneArticulation@Dy@physx@@UBEMI@Z 10095e60 f   LowLevelDynamics_static_32:DyFeatherstoneArticulation.obj
 0001:00094e80       ?setupSolverConstraintsTGS@FeatherstoneArticulation@Dy@physx@@SAIABUArticulationSolverDesc@23@AAVPxcConstraintBlockStream@3@PAUPxSolverConstraintDesc@3@MMMAAIAAVPxsConstraintBlockManager@3@PAUSpatialVectorF@Cm@3@@Z 10095e80 f   LowLevelDynamics_static_32:DyFeatherstoneArticulation.obj
 0001:00094ef0       ?saveVelocity@FeatherstoneArticulation@Dy@physx@@SAXABUArticulationSolverDesc@23@PAUSpatialVectorF@Cm@3@@Z 10095ef0 f   LowLevelDynamics_static_32:DyFeatherstoneArticulation.obj
 0001:00094fa0       ?saveVelocityTGS@FeatherstoneArticulation@Dy@physx@@SAXABUArticulationSolverDesc@23@M@Z 10095fa0 f   LowLevelDynamics_static_32:DyFeatherstoneArticulation.obj
 0001:00094fb0       ?recordDeltaMotion@FeatherstoneArticulation@Dy@physx@@SAXABUArticulationSolverDesc@23@MPAUSpatialVectorF@Cm@3@@Z 10095fb0 f   LowLevelDynamics_static_32:DyFeatherstoneArticulation.obj
 0001:00095700       ?deltaMotionToMotionVelocity@FeatherstoneArticulation@Dy@physx@@SAXABUArticulationSolverDesc@23@M@Z 10096700 f   LowLevelDynamics_static_32:DyFeatherstoneArticulation.obj
 0001:00095810       ?pxcFsApplyImpulse@FeatherstoneArticulation@Dy@physx@@UAEXIT__m128@@0PAUSpatialVectorF@Cm@3@1@Z 10096810 f   LowLevelDynamics_static_32:DyFeatherstoneArticulation.obj
 0001:00095a00       ?pxcFsApplyImpulses@FeatherstoneArticulation@Dy@physx@@UAEXIABT__m128@@0I00PAUSpatialVectorF@Cm@3@1@Z 10096a00 f   LowLevelDynamics_static_32:DyFeatherstoneArticulation.obj
 0001:000960b0       ?pxcFsApplyImpulses@FeatherstoneArticulation@Dy@physx@@UAEXPAUSpatialVectorF@Cm@3@@Z 100970b0 f   LowLevelDynamics_static_32:DyFeatherstoneArticulation.obj
 0001:00096300       ?pxcFsGetVelocity@FeatherstoneArticulation@Dy@physx@@UAE?AUSpatialVectorV@Cm@3@I@Z 10097300 f   LowLevelDynamics_static_32:DyFeatherstoneArticulation.obj
 0001:00096820       ?pxcFsGetVelocities@FeatherstoneArticulation@Dy@physx@@UAEXIIAAUSpatialVectorV@Cm@3@0@Z 10097820 f   LowLevelDynamics_static_32:DyFeatherstoneArticulation.obj
 0001:00097150       ?pxcFsGetVelocityTGS@FeatherstoneArticulation@Dy@physx@@UAE?AUSpatialVectorV@Cm@3@I@Z 10098150 f   LowLevelDynamics_static_32:DyFeatherstoneArticulation.obj
 0001:00097170       ?getCurrentTransform@FeatherstoneArticulation@Dy@physx@@UBEABVPxTransform@3@I@Z 10098170 f   LowLevelDynamics_static_32:DyFeatherstoneArticulation.obj
 0001:00097190       ?getDeltaQ@FeatherstoneArticulation@Dy@physx@@UBEABVPxQuat@3@I@Z 10098190 f   LowLevelDynamics_static_32:DyFeatherstoneArticulation.obj
 0001:000971a0       ?applyImpulses@FeatherstoneArticulation@Dy@physx@@QAEXPAUSpatialVectorF@Cm@3@0@Z 100981a0 f   LowLevelDynamics_static_32:DyFeatherstoneArticulation.obj
 0001:000972e0       ?getDeltaV@FeatherstoneArticulation@Dy@physx@@QAEXPAUSpatialVectorF@Cm@3@0@Z 100982e0 f   LowLevelDynamics_static_32:DyFeatherstoneArticulation.obj
 0001:00097960       ?propagateVelocityW@FeatherstoneArticulation@Dy@physx@@SA?AUSpatialVectorF@Cm@3@ABVPxVec3@3@ABUSpatialMatrix@23@ABUInvStIs@23@ABUSpatialSubspaceMatrix@23@ABU453@PAM4@Z 10098960 f   LowLevelDynamics_static_32:DyFeatherstoneArticulation.obj
 0001:00097ea0       ?propagateVelocityTestImpulseW@FeatherstoneArticulation@Dy@physx@@SA?AUSpatialVectorF@Cm@3@ABVPxVec3@3@ABUSpatialMatrix@23@ABUInvStIs@23@ABUSpatialSubspaceMatrix@23@ABU453@4@Z 10098ea0 f   LowLevelDynamics_static_32:DyFeatherstoneArticulation.obj
 0001:00098390       ?propagateImpulseW@FeatherstoneArticulation@Dy@physx@@SA?AUSpatialVectorF@Cm@3@ABUIsInvD@23@ABVPxVec3@3@ABUSpatialSubspaceMatrix@23@ABU453@@Z 10099390 f   LowLevelDynamics_static_32:DyFeatherstoneArticulation.obj
 0001:00098580       ?copyJointData@FeatherstoneArticulation@Dy@physx@@IAEXAAVArticulationData@23@PAMPBM@Z 10099580 f   LowLevelDynamics_static_32:DyFeatherstoneArticulation.obj
 0001:000985b0       ?computeDofs@FeatherstoneArticulation@Dy@physx@@IAEXXZ 100995b0 f   LowLevelDynamics_static_32:DyFeatherstoneArticulation.obj
 0001:00098720       ?jcalc@FeatherstoneArticulation@Dy@physx@@IAEXAAVArticulationData@23@_N@Z 10099720 f   LowLevelDynamics_static_32:DyFeatherstoneArticulation.obj
 0001:00098a80       ?computeSpatialInertia@FeatherstoneArticulation@Dy@physx@@IAEXAAVArticulationData@23@@Z 10099a80 f   LowLevelDynamics_static_32:DyFeatherstoneArticulation.obj
 0001:00098e90       ?computeZ@FeatherstoneArticulation@Dy@physx@@IAEXAAVArticulationData@23@ABVPxVec3@3@AAUScratchData@23@@Z 10099e90 f   LowLevelDynamics_static_32:DyFeatherstoneArticulation.obj
 0001:000992b0       ?computeD@FeatherstoneArticulation@Dy@physx@@IAEXAAVArticulationData@23@AAUScratchData@23@PAUSpatialVectorF@Cm@3@2@Z 1009a2b0 f   LowLevelDynamics_static_32:DyFeatherstoneArticulation.obj
 0001:00099cd0       ?solveInternalConstraints@FeatherstoneArticulation@Dy@physx@@MAEXMMPAUSpatialVectorF@Cm@3@0_N1M@Z 1009acd0 f   LowLevelDynamics_static_32:DyFeatherstoneArticulation.obj
 0001:0009a7d0       ?solveInternalConstraintRecursive@FeatherstoneArticulation@Dy@physx@@IAE?AUSpatialVectorF@Cm@3@MMPAU453@0_N1MIABU453@AAI3@Z 1009b7d0 f   LowLevelDynamics_static_32:DyFeatherstoneArticulation.obj
 0001:0009be90       ?writebackInternalConstraints@FeatherstoneArticulation@Dy@physx@@MAEX_N@Z 1009ce90 f   LowLevelDynamics_static_32:DyFeatherstoneArticulation.obj
 0001:0009bf20       ?concludeInternalConstraints@FeatherstoneArticulation@Dy@physx@@IAEX_N@Z 1009cf20 f   LowLevelDynamics_static_32:DyFeatherstoneArticulation.obj
 0001:0009bf70       ?computeC@FeatherstoneArticulation@Dy@physx@@IAEXAAVArticulationData@23@AAUScratchData@23@@Z 1009cf70 f   LowLevelDynamics_static_32:DyFeatherstoneArticulation.obj
 0001:0009c440       ?computeRelativeTransformC2P@FeatherstoneArticulation@Dy@physx@@IAEXAAVArticulationData@23@@Z 1009d440 f   LowLevelDynamics_static_32:DyFeatherstoneArticulation.obj
 0001:0009cb20       ?computeRelativeTransformC2B@FeatherstoneArticulation@Dy@physx@@IAEXAAVArticulationData@23@@Z 1009db20 f   LowLevelDynamics_static_32:DyFeatherstoneArticulation.obj
 0001:0009cba0       ?computeLinkVelocities@FeatherstoneArticulation@Dy@physx@@IAEXAAVArticulationData@23@AAUScratchData@23@@Z 1009dba0 f   LowLevelDynamics_static_32:DyFeatherstoneArticulation.obj
 0001:0009d000       ?transformInertia@FeatherstoneArticulation@Dy@physx@@KAXABUSpatialTransform@23@AAUSpatialMatrix@23@@Z 1009e000 f   LowLevelDynamics_static_32:DyFeatherstoneArticulation.obj
 0001:0009dbe0       ?translateInertia@FeatherstoneArticulation@Dy@physx@@KAXABVPxMat33@3@AAUSpatialMatrix@23@@Z 1009ebe0 f   LowLevelDynamics_static_32:DyFeatherstoneArticulation.obj
 0001:0009e150       ?getDeltaVWithDeltaJV@FeatherstoneArticulation@Dy@physx@@KA?AUSpatialVectorF@Cm@3@_NIABVArticulationData@23@PAU453@PAM@Z 1009f150 f   LowLevelDynamics_static_32:DyFeatherstoneArticulation.obj
 0001:0009e6b0       ?getDeltaV@FeatherstoneArticulation@Dy@physx@@KA?AUSpatialVectorF@Cm@3@_NIABVArticulationData@23@PAU453@@Z 1009f6b0 f   LowLevelDynamics_static_32:DyFeatherstoneArticulation.obj
 0001:0009ebe0       ?getZ@FeatherstoneArticulation@Dy@physx@@KAXIABVArticulationData@23@PAUSpatialVectorF@Cm@3@ABU563@@Z 1009fbe0 f   LowLevelDynamics_static_32:DyFeatherstoneArticulation.obj
 0001:0009ed10       ?getImpulseResponseW@FeatherstoneArticulation@Dy@physx@@KA?AUSpatialVectorF@Cm@3@IABVArticulationData@23@ABU453@@Z 1009fd10 f   LowLevelDynamics_static_32:DyFeatherstoneArticulation.obj
 0001:0009ee60       ?getImpulseResponseWithJ@FeatherstoneArticulation@Dy@physx@@KA?AUSpatialVectorF@Cm@3@I_NABVArticulationData@23@PAU453@ABU453@PAM@Z 1009fe60 f   LowLevelDynamics_static_32:DyFeatherstoneArticulation.obj
 0001:0009efb0       ?getImpulseSelfResponse@FeatherstoneArticulation@Dy@physx@@SAXPAUArticulationLink@23@_NPAUSpatialVectorF@Cm@3@ABVArticulationData@23@IABUSpatialVectorV@63@AAU863@I45@Z 1009ffb0 f   LowLevelDynamics_static_32:DyFeatherstoneArticulation.obj
 0001:0009f210       ?getImpulseResponseSlow@FeatherstoneArticulation@Dy@physx@@SAXPAUArticulationLink@23@ABVArticulationData@23@IABVSpatialVector@Cm@3@AAV673@I23PAUSpatialVectorF@73@@Z 100a0210 f   LowLevelDynamics_static_32:DyFeatherstoneArticulation.obj
 0001:0009fb40       ?createHardLimit@FeatherstoneArticulation@Dy@physx@@QAEXPAUArticulationLink@23@_NPAUSpatialVectorF@Cm@3@AAVArticulationData@23@IAAUSolverConstraint1DExt@23@ABVPxVec3@3@MM@Z 100a0b40 f   LowLevelDynamics_static_32:DyFeatherstoneArticulation.obj
 0001:0009fd40       ?createHardLimits@FeatherstoneArticulation@Dy@physx@@QAEXAAUSolverConstraint1DExt@23@0ABVPxVec3@3@MMMABUSpatialVectorV@Cm@3@2M@Z 100a0d40 f   LowLevelDynamics_static_32:DyFeatherstoneArticulation.obj
 0001:0009ff10       ?createTangentialSpring@FeatherstoneArticulation@Dy@physx@@QAEXPAUArticulationLink@23@_NPAUSpatialVectorF@Cm@3@AAVArticulationData@23@IAAUSolverConstraint1DExt@23@ABVPxVec3@3@MMM@Z 100a0f10 f   LowLevelDynamics_static_32:DyFeatherstoneArticulation.obj
 0001:000a0150       ?setupSolverConstraints@FeatherstoneArticulation@Dy@physx@@QAEIPAUArticulationLink@23@I_NAAVArticulationData@23@PAUSpatialVectorF@Cm@3@AAI@Z 100a1150 f   LowLevelDynamics_static_32:DyFeatherstoneArticulation.obj
 0001:000a01b0       ?setupInternalConstraints@FeatherstoneArticulation@Dy@physx@@QAEXPAUArticulationLink@23@I_NAAVArticulationData@23@PAUSpatialVectorF@Cm@3@MMMM_N@Z 100a11b0 f   LowLevelDynamics_static_32:DyFeatherstoneArticulation.obj
 0001:000a02f0       ?setupInternalConstraintsRecursive@FeatherstoneArticulation@Dy@physx@@QAEXPAUArticulationLink@23@I_NAAVArticulationData@23@PAUSpatialVectorF@Cm@3@MMMMM1IM@Z 100a12f0 f   LowLevelDynamics_static_32:DyFeatherstoneArticulation.obj
 0001:000a1d50       ?prepareStaticConstraints@FeatherstoneArticulation@Dy@physx@@UAEXMMAAVPxsContactManagerOutputIterator@3@AAVThreadContext@23@MMMMMPAUPxSolverBodyData@3@AAVPxsConstraintBlockManager@3@PAUConstraintWriteback@23@@Z 100a2d50 f   LowLevelDynamics_static_32:DyFeatherstoneArticulation.obj
 0001:000a24b0       ?prepareStaticConstraintsTGS@FeatherstoneArticulation@Dy@physx@@UAEXMMMMAAVPxsContactManagerOutputIterator@3@AAVThreadContext@23@MMMPAUPxTGSSolverBodyData@3@PAUPxTGSSolverBodyTxInertia@3@AAVPxsConstraintBlockManager@3@PAUConstraintWriteback@23@IM@Z 100a34b0 f   LowLevelDynamics_static_32:DyFeatherstoneArticulation.obj
 0001:000a2d10       ?createHardLimitTGS@FeatherstoneArticulation@Dy@physx@@QAEXAAUSolverConstraint1DExtStep@23@ABVPxVec3@3@MMABUSpatialVectorV@Cm@3@2M@Z 100a3d10 f   LowLevelDynamics_static_32:DyFeatherstoneArticulation.obj
 0001:000a2e20       ?createTangentialSpringTGS@FeatherstoneArticulation@Dy@physx@@QAEXPAUArticulationLink@23@_NPAUSpatialVectorF@Cm@3@AAVArticulationData@23@IAAUSolverConstraint1DExtStep@23@ABVPxVec3@3@MMM@Z 100a3e20 f   LowLevelDynamics_static_32:DyFeatherstoneArticulation.obj
 0001:000a3090       ?teleportLinks@FeatherstoneArticulation@Dy@physx@@QAEXAAVArticulationData@23@@Z 100a4090 f   LowLevelDynamics_static_32:DyFeatherstoneArticulation.obj
 0001:000a3f30       ?computeLinkVelocities@FeatherstoneArticulation@Dy@physx@@QAEXAAVArticulationData@23@@Z 100a4f30 f   LowLevelDynamics_static_32:DyFeatherstoneArticulation.obj
 0001:000a4480       ?allocateScratchSpatialData@FeatherstoneArticulation@Dy@physx@@QAEPAEPAVPxcScratchAllocator@3@IAAUScratchData@23@_N@Z 100a5480 f   LowLevelDynamics_static_32:DyFeatherstoneArticulation.obj
 0001:000a4560       ?propagateTransform@FeatherstoneArticulation@Dy@physx@@QAE?AVPxTransform@3@IPAUArticulationLink@23@AAVArticulationJointCoreData@23@PAUSpatialVectorF@Cm@3@MABV43@3PAM44ABUSpatialSubspaceMatrix@23@5@Z 100a5560 f   LowLevelDynamics_static_32:DyFeatherstoneArticulation.obj
 0001:000a5580       ?PxvRegisterArticulationsReducedCoordinate@Dy@physx@@YAXXZ 100a6580 f   LowLevelDynamics_static_32:DyFeatherstoneArticulation.obj
 0001:000a55f0       ?PxcFsFlushVelocity@Dy@physx@@YAXAAVFeatherstoneArticulation@12@PAUSpatialVectorF@Cm@2@@Z 100a65f0 f   LowLevelDynamics_static_32:DyFeatherstoneArticulation.obj
 0001:000a5c90       ?createDriveOrLimit@Dy@physx@@YAXAAUSolverConstraint1DExt@12@MMM_N1ABUSpatialVectorV@Cm@2@2M@Z 100a6c90 f   LowLevelDynamics_static_32:DyFeatherstoneArticulation.obj
 0001:000a5d50       ?createSpringDrive@Dy@physx@@YAXAAUSolverConstraint1DExt@12@MMMMMMABUSpatialVectorV@Cm@2@1M@Z 100a6d50 f   LowLevelDynamics_static_32:DyFeatherstoneArticulation.obj
 0001:000a5e50       ?createSpringDrive@Dy@physx@@YAXAAUSolverConstraint1DExtStep@12@MMMMMMMABUSpatialVectorV@Cm@2@1M@Z 100a6e50 f   LowLevelDynamics_static_32:DyFeatherstoneArticulation.obj
 0001:000a5f70       ?createDriveOrLimit@Dy@physx@@YAXAAUSolverConstraint1DExtStep@12@MMM_NMMM1ABUSpatialVectorV@Cm@2@2M@Z 100a6f70 f   LowLevelDynamics_static_32:DyFeatherstoneArticulation.obj
 0001:000a6040       ?solveStaticConstraint@Dy@physx@@YAXABUPxSolverConstraintDesc@2@AAUSpatialVectorF@Cm@2@11ABU452@ABVPxQuat@2@_NMM@Z 100a7040 f   LowLevelDynamics_static_32:DyFeatherstoneArticulation.obj
 0001:000a6450       ??$median3@UPxSolverConstraintDesc@physx@@$$CBUArticulationStaticConstraintSortPredicate@Dy@2@@internal@shdfnd@physx@@YAXPAUPxSolverConstraintDesc@2@HHABUArticulationStaticConstraintSortPredicate@Dy@2@@Z 100a7450 f i LowLevelDynamics_static_32:DyFeatherstoneArticulation.obj
 0001:000a65b0       ??$sort@UPxSolverConstraintDesc@physx@@UArticulationStaticConstraintSortPredicate@Dy@2@@shdfnd@physx@@YAXPAUPxSolverConstraintDesc@1@IABUArticulationStaticConstraintSortPredicate@Dy@1@@Z 100a75b0 f i LowLevelDynamics_static_32:DyFeatherstoneArticulation.obj
 0001:000a65e0       ??$sort@UPxSolverConstraintDesc@physx@@UArticulationStaticConstraintSortPredicate@Dy@2@VNamedAllocator@shdfnd@2@@shdfnd@physx@@YAXPAUPxSolverConstraintDesc@1@IABUArticulationStaticConstraintSortPredicate@Dy@1@ABVNamedAllocator@01@I@Z 100a75e0 f i LowLevelDynamics_static_32:DyFeatherstoneArticulation.obj
 0001:000a6990       ??0ArticulationData@Dy@physx@@QAE@XZ 100a7990 f i LowLevelDynamics_static_32:DyFeatherstoneArticulation.obj
 0001:000a6fe0       ??0SpatialVector@Cm@physx@@QAE@XZ 100a7fe0 f i LowLevelDynamics_static_32:DyFeatherstoneArticulation.obj
 0001:000a6ff0       ??0SpatialVectorF@Cm@physx@@QAE@ABU012@@Z 100a7ff0 f i LowLevelDynamics_static_32:DyFeatherstoneArticulation.obj
 0001:000a7030       ??0UnAlignedSpatialVector@Cm@physx@@QAE@ABU012@@Z 100a8030 f i LowLevelDynamics_static_32:DyFeatherstoneArticulation.obj
 0001:000a7060       ??0UnAlignedSpatialVector@Cm@physx@@QAE@XZ 100a8060 f i LowLevelDynamics_static_32:DyFeatherstoneArticulation.obj
 0001:000a7070       ??1PxConstraintAllocator@physx@@UAE@XZ 100a8070 f i LowLevelDynamics_static_32:DyFeatherstoneArticulation.obj
 0001:000a7080       ??1UnAlignedSpatialVector@Cm@physx@@QAE@XZ 100a8080 f i LowLevelDynamics_static_32:DyFeatherstoneArticulation.obj
 0001:000a7090       ??DPxQuat@physx@@QBE?AV01@ABV01@@Z 100a8090 f i LowLevelDynamics_static_32:DyFeatherstoneArticulation.obj
 0001:000a7170       ??_EBlockAllocator@Dy@physx@@UAEPAXI@Z 100a8170 f i LowLevelDynamics_static_32:DyFeatherstoneArticulation.obj
 0001:000a7170       ??_GBlockAllocator@Dy@physx@@UAEPAXI@Z 100a8170 f i LowLevelDynamics_static_32:DyFeatherstoneArticulation.obj
 0001:000a71a0       ??_EFeatherstoneArticulation@Dy@physx@@UAEPAXI@Z 100a81a0 f i LowLevelDynamics_static_32:DyFeatherstoneArticulation.obj
 0001:000a71a0       ??_GFeatherstoneArticulation@Dy@physx@@UAEPAXI@Z 100a81a0 f i LowLevelDynamics_static_32:DyFeatherstoneArticulation.obj
 0001:000a7250       ??_GPxConstraintAllocator@physx@@UAEPAXI@Z 100a8250 f i LowLevelDynamics_static_32:DyFeatherstoneArticulation.obj
 0001:000a7250       ??_EPxConstraintAllocator@physx@@UAEPAXI@Z 100a8250 f i LowLevelDynamics_static_32:DyFeatherstoneArticulation.obj
 0001:000a7280       ??__G@YGXPAX0IIP6EPAX00@Z@Z 100a8280 f i LowLevelDynamics_static_32:DyFeatherstoneArticulation.obj
 0001:000a72c0       ?computeArticJacobianAxes@Dy@physx@@YAXQAVPxVec3@2@ABVPxQuat@2@1@Z 100a82c0 f i LowLevelDynamics_static_32:DyFeatherstoneArticulation.obj
 0001:000a7510       ?exp@shdfnd@physx@@YA?AVPxQuat@2@ABVPxVec3@2@@Z 100a8510 f i LowLevelDynamics_static_32:DyFeatherstoneArticulation.obj
 0001:000a75d0       ?findInputPatches@BlockAllocator@Dy@physx@@UAEPAEPAE@Z 100a85d0 f i LowLevelDynamics_static_32:DyFeatherstoneArticulation.obj
 0001:000a75e0       ?getResponse@SpatialImpulseResponseMatrix@Dy@physx@@QBE?AUSpatialVectorV@Cm@3@ABU453@@Z 100a85e0 f i LowLevelDynamics_static_32:DyFeatherstoneArticulation.obj
 0001:000a76e0       ?growAndPushBack@?$Array@UPxSolverConstraintDesc@physx@@VNamedAllocator@shdfnd@2@@shdfnd@physx@@IAEAAUPxSolverConstraintDesc@3@ABU43@@Z 100a86e0 f i LowLevelDynamics_static_32:DyFeatherstoneArticulation.obj
 0001:000a77a0       ?recreate@?$Array@IVNamedAllocator@shdfnd@physx@@@shdfnd@physx@@IAEXI@Z 100a87a0 f i LowLevelDynamics_static_32:DyFeatherstoneArticulation.obj
 0001:000a7820       ?recreate@?$Array@MVNamedAllocator@shdfnd@physx@@@shdfnd@physx@@IAEXI@Z 100a8820 f i LowLevelDynamics_static_32:DyFeatherstoneArticulation.obj
 0001:000a78e0       ?recreate@?$Array@UArticulationInternalConstraint@Dy@physx@@VNamedAllocator@shdfnd@3@@shdfnd@physx@@IAEXI@Z 100a88e0 f i LowLevelDynamics_static_32:DyFeatherstoneArticulation.obj
 0001:000a7ab0       ?recreate@?$Array@UArticulationInternalLockedAxis@Dy@physx@@VNamedAllocator@shdfnd@3@@shdfnd@physx@@IAEXI@Z 100a8ab0 f i LowLevelDynamics_static_32:DyFeatherstoneArticulation.obj
 0001:000a7be0       ?recreate@?$Array@UInvStIs@Dy@physx@@VNamedAllocator@shdfnd@3@@shdfnd@physx@@IAEXI@Z 100a8be0 f i LowLevelDynamics_static_32:DyFeatherstoneArticulation.obj
 0001:000a7c80       ?recreate@?$Array@UIsInvD@Dy@physx@@VNamedAllocator@shdfnd@3@@shdfnd@physx@@IAEXI@Z 100a8c80 f i LowLevelDynamics_static_32:DyFeatherstoneArticulation.obj
 0001:000a7dd0       ?recreate@?$Array@USpatialImpulseResponseMatrix@Dy@physx@@VNamedAllocator@shdfnd@3@@shdfnd@physx@@IAEXI@Z 100a8dd0 f i LowLevelDynamics_static_32:DyFeatherstoneArticulation.obj
 0001:000a7fc0       ?recreate@?$Array@USpatialMatrix@Dy@physx@@VNamedAllocator@shdfnd@3@@shdfnd@physx@@IAEXI@Z 100a8fc0 f i LowLevelDynamics_static_32:DyFeatherstoneArticulation.obj
 0001:000a8150       ?recreate@?$Array@USpatialSubspaceMatrix@Dy@physx@@VNamedAllocator@shdfnd@3@@shdfnd@physx@@IAEXI@Z 100a9150 f i LowLevelDynamics_static_32:DyFeatherstoneArticulation.obj
 0001:000a8270       ?recreate@?$Array@USpatialVectorF@Cm@physx@@VNamedAllocator@shdfnd@3@@shdfnd@physx@@IAEXI@Z 100a9270 f i LowLevelDynamics_static_32:DyFeatherstoneArticulation.obj
 0001:000a8330       ?resize@?$Array@USpatialSubspaceMatrix@Dy@physx@@VNamedAllocator@shdfnd@3@@shdfnd@physx@@QAEXIABUSpatialSubspaceMatrix@Dy@3@@Z 100a9330 f i LowLevelDynamics_static_32:DyFeatherstoneArticulation.obj
 0001:000a83f0       ?copyToSolverBodyData@Dy@physx@@YAXABVPxVec3@2@0M0ABVPxTransform@2@MMIMAAUPxSolverBodyData@2@I@Z 100a93f0 f   LowLevelDynamics_static_32:DyRigidBodyToSolverBody.obj
 0001:000a87c0       ?createFinalizeSolverContacts@Dy@physx@@YA_NAAUPxSolverContactDesc@2@AAUPxsContactManagerOutput@2@AAVThreadContext@12@MMMMMAAVPxConstraintAllocator@2@PAUSpatialVectorF@Cm@2@@Z 100a97c0 f   LowLevelDynamics_static_32:DyContactPrep.obj
 0001:000a8b50       ?createFinalizeSolverContacts@Dy@physx@@YA_NAAUPxSolverContactDesc@2@AAUCorrelationBuffer@12@MMMMMAAVPxConstraintAllocator@2@PAUSpatialVectorF@Cm@2@@Z 100a9b50 f   LowLevelDynamics_static_32:DyContactPrep.obj
 0001:000a9890       ?getContactManagerConstraintDesc@Dy@physx@@YAIABUPxsContactManagerOutput@2@ABVPxsContactManager@2@AAUPxSolverConstraintDesc@2@@Z 100aa890 f   LowLevelDynamics_static_32:DyContactPrep.obj
 0001:000a98b0       ?setupExtSolverContact@Dy@physx@@YA?AT__m128@@ABVSolverExtBody@12@0ABT3@111111111111ABUContactPoint@Gu@2@AAUSolverContactPointExt@12@1PAUSpatialVectorF@Cm@2@ABUSpatialVectorV@92@5@Z 100aa8b0 f   LowLevelDynamics_static_32:DyContactPrep.obj
 0001:000aaf50       ?createFinalizeSolverContacts4@Dy@physx@@YA?AW4Enum@SolverConstraintPrepState@12@PAPAUPxsContactManagerOutput@2@AAVThreadContext@12@PAUPxSolverContactDesc@2@MMMMMAAVPxConstraintAllocator@2@@Z 100abf50 f   LowLevelDynamics_static_32:DyContactPrep4.obj
 0001:000ab3b0       ?createFinalizeSolverContacts4@Dy@physx@@YA?AW4Enum@SolverConstraintPrepState@12@AAUCorrelationBuffer@12@PAUPxSolverContactDesc@2@MMMMMAAVPxConstraintAllocator@2@@Z 100ac3b0 f   LowLevelDynamics_static_32:DyContactPrep4.obj
 0001:000ab960       ?computeBlockStreamByteSizes4@Dy@physx@@YAXPAUPxSolverContactDesc@2@AAIPAIABUCorrelationBuffer@12@@Z 100ac960 f   LowLevelDynamics_static_32:DyContactPrep4.obj
 0001:000abc60       ?getFrictionPatches@Dy@physx@@YA_NAAUCorrelationBuffer@12@PBEIABVPxTransform@2@2M@Z 100acc60 f i LowLevelDynamics_static_32:DyContactPrep4.obj
 0001:000afa40       ?setupSolverConstraint4@Dy@physx@@YA?AW4Enum@SolverConstraintPrepState@12@PIAUSolverConstraintShaderPrepDesc@12@PIAUPxSolverConstraintPrepDesc@2@MMAAIAAVPxConstraintAllocator@2@@Z 100b0a40 f   LowLevelDynamics_static_32:DyConstraintSetupBlock.obj
 0001:000afbf0       ?setupSolverConstraint4@Dy@physx@@YA?AW4Enum@SolverConstraintPrepState@12@PIAUPxSolverConstraintPrepDesc@2@MMAAIAAVPxConstraintAllocator@2@I@Z 100b0bf0 f   LowLevelDynamics_static_32:DyConstraintSetupBlock.obj
 0001:000b0fa0       ?SetupSolverConstraint@Dy@physx@@YAIAAUSolverConstraintShaderPrepDesc@12@AAUPxSolverConstraintPrepDesc@2@AAVPxConstraintAllocator@2@MMPAUSpatialVectorF@Cm@2@@Z 100b1fa0 f   LowLevelDynamics_static_32:DyConstraintSetup.obj
 0001:000b10c0       ?setupSolverConstraint@ConstraintHelper@Dy@physx@@SAIAAUPxSolverConstraintPrepDesc@3@AAVPxConstraintAllocator@3@MMPAUSpatialVectorF@Cm@3@@Z 100b20c0 f   LowLevelDynamics_static_32:DyConstraintSetup.obj
 0001:000b1b00       ?preprocessRows@Dy@physx@@YAXPAPAUPx1DConstraint@2@PAU32@PAVPxVec4@2@2IABVPxMat33@2@3MMABUPxConstraintInvMassScale@2@_N55@Z 100b2b00 f   LowLevelDynamics_static_32:DyConstraintSetup.obj
 0001:000b30a0       ?create@SolverCoreGeneral@Dy@physx@@SAPAV123@_N@Z 100b40a0 f   LowLevelDynamics_static_32:DySolverControl.obj
 0001:000b30f0       ?destroyV@SolverCoreGeneral@Dy@physx@@UAEXXZ 100b40f0 f   LowLevelDynamics_static_32:DySolverControl.obj
 0001:000b3110       ?solveVParallelAndWriteBack@SolverCoreGeneral@Dy@physx@@UBEHAAUSolverIslandParams@23@PAUSpatialVectorF@Cm@3@1@Z 100b4110 f   LowLevelDynamics_static_32:DySolverControl.obj
 0001:000b3fe0       ?solveV_Blocks@SolverCoreGeneral@Dy@physx@@UBEXAAUSolverIslandParams@23@@Z 100b4fe0 f   LowLevelDynamics_static_32:DySolverControl.obj
 0001:000b46c0       ?writeBackV@SolverCoreGeneral@Dy@physx@@UBEXPIBUPxSolverConstraintDesc@3@IPAUPxConstraintBatchHeader@3@IPIAUThresholdStreamElement@23@IAAIPAUPxSolverBodyData@3@QAP6AXPBU43@IAAUSolverContext@23@@Z@Z 100b56c0 f   LowLevelDynamics_static_32:DySolverControl.obj
 0001:000b4750       ?solveVBlock@Dy@physx@@YAXPAVSolverCore@12@AAUSolverIslandParams@12@@Z 100b5750 f   LowLevelDynamics_static_32:DySolverControl.obj
 0001:000b4760       ?getSolveBlockTable@Dy@physx@@YAPAP6AXPBUPxSolverConstraintDesc@2@IAAUSolverContext@12@@ZXZ 100b5760 f   LowLevelDynamics_static_32:DySolverControl.obj
 0001:000b4770       ?getSolverConcludeBlockTable@Dy@physx@@YAPAP6AXPBUPxSolverConstraintDesc@2@IAAUSolverContext@12@@ZXZ 100b5770 f   LowLevelDynamics_static_32:DySolverControl.obj
 0001:000b4780       ?getSolveWritebackBlockTable@Dy@physx@@YAPAP6AXPBUPxSolverConstraintDesc@2@IAAUSolverContext@12@@ZXZ 100b5780 f   LowLevelDynamics_static_32:DySolverControl.obj
 0001:000b4790       ?SolverCoreRegisterArticulationFns@Dy@physx@@YAXXZ 100b5790 f   LowLevelDynamics_static_32:DySolverControl.obj
 0001:000b47d0       ??0ThresholdStreamElement@Dy@physx@@QAE@XZ 100b57d0 f i LowLevelDynamics_static_32:DySolverControl.obj
 0001:000b47f0       ??1SolverCore@Dy@physx@@UAE@XZ 100b57f0 f i LowLevelDynamics_static_32:DySolverControl.obj
 0001:000b4800       ??_GSolverCore@Dy@physx@@UAEPAXI@Z 100b5800 f i LowLevelDynamics_static_32:DySolverControl.obj
 0001:000b4800       ??_ESolverCore@Dy@physx@@UAEPAXI@Z 100b5800 f i LowLevelDynamics_static_32:DySolverControl.obj
 0001:000b4830       ??_ESolverCoreGeneral@Dy@physx@@UAEPAXI@Z 100b5830 f i LowLevelDynamics_static_32:DySolverControl.obj
 0001:000b4830       ??_GSolverCoreGeneral@Dy@physx@@UAEPAXI@Z 100b5830 f i LowLevelDynamics_static_32:DySolverControl.obj
 0001:000b4860       ?WaitForProgressCount@Dy@physx@@YAXPCHH@Z 100b5860 f i LowLevelDynamics_static_32:DySolverControl.obj
 0001:000b48b0       ?setupSolverConstraintsTGS@Articulation@Dy@physx@@SAIABUArticulationSolverDesc@23@AAVPxcConstraintBlockStream@3@PAUPxSolverConstraintDesc@3@MMMAAIAAVPxsConstraintBlockManager@3@PAUSpatialVectorF@Cm@3@@Z 100b58b0 f   LowLevelDynamics_static_32:DyTGSContactPrep.obj
 0001:000b5730       ?createHardLimitTGS@ArticulationHelper@Dy@physx@@SAXABUFsData@23@PBUArticulationLink@23@IAAUSolverConstraint1DExtStep@23@ABVPxVec3@3@MM@Z 100b6730 f   LowLevelDynamics_static_32:DyTGSContactPrep.obj
 0001:000b5930       ?createTangentialSpringTGS@ArticulationHelper@Dy@physx@@SAXABUFsData@23@PBUArticulationLink@23@IAAUSolverConstraint1DExtStep@23@ABVPxVec3@3@MMM@Z 100b6930 f   LowLevelDynamics_static_32:DyTGSContactPrep.obj
 0001:000b5b80       ?projectVelocity@SolverExtBodyStep@Dy@physx@@QBEMABVPxVec3@3@0@Z 100b6b80 f   LowLevelDynamics_static_32:DyTGSContactPrep.obj
 0001:000b5c80       ?getLinVel@SolverExtBodyStep@Dy@physx@@QBE?AVPxVec3@3@XZ 100b6c80 f   LowLevelDynamics_static_32:DyTGSContactPrep.obj
 0001:000b5cf0       ?getVelocity@SolverExtBodyStep@Dy@physx@@QBE?AUSpatialVectorV@Cm@3@XZ 100b6cf0 f   LowLevelDynamics_static_32:DyTGSContactPrep.obj
 0001:000b5d40       ?createImpulseResponseVector@Dy@physx@@YA?AVSpatialVector@Cm@2@ABVPxVec3@2@0ABVSolverExtBodyStep@12@@Z 100b6d40 f   LowLevelDynamics_static_32:DyTGSContactPrep.obj
 0001:000b5e40       ?createImpulseResponseVector@Dy@physx@@YA?AUSpatialVectorV@Cm@2@ABT__m128@@0ABVSolverExtBodyStep@12@@Z 100b6e40 f   LowLevelDynamics_static_32:DyTGSContactPrep.obj
 0001:000b5ed0       ?getImpulseResponse@Dy@physx@@YAMABVSolverExtBodyStep@12@ABVSpatialVector@Cm@2@AAV452@MM012MM_N@Z 100b6ed0 f   LowLevelDynamics_static_32:DyTGSContactPrep.obj
 0001:000b63b0       ?getImpulseResponse@Dy@physx@@YA?AT__m128@@ABVSolverExtBodyStep@12@ABUSpatialVectorV@Cm@2@AAU562@ABT3@301233_N@Z 100b73b0 f   LowLevelDynamics_static_32:DyTGSContactPrep.obj
 0001:000b6510       ?setupFinalizeExtSolverContactsStep@Dy@physx@@YAXPBUContactPoint@Gu@2@ABUCorrelationBuffer@12@ABVPxTransform@2@2PAEABVSolverExtBodyStep@12@4MMMMMMMM3MMM@Z 100b7510 f   LowLevelDynamics_static_32:DyTGSContactPrep.obj
 0001:000b7f80       ?createFinalizeSolverContactsStep@Dy@physx@@YA_NAAUPxTGSSolverContactDesc@2@AAUCorrelationBuffer@12@MMMMMAAVPxConstraintAllocator@2@@Z 100b8f80 f   LowLevelDynamics_static_32:DyTGSContactPrep.obj
 0001:000b8ce0       ?createFinalizeSolverContactsStep@Dy@physx@@YA_NAAUPxTGSSolverContactDesc@2@AAUPxsContactManagerOutput@2@AAVThreadContext@12@MMMMMAAVPxConstraintAllocator@2@@Z 100b9ce0 f   LowLevelDynamics_static_32:DyTGSContactPrep.obj
 0001:000b90a0       ?solveContact@Dy@physx@@YAXABUPxSolverConstraintDesc@2@_NMM@Z 100ba0a0 f   LowLevelDynamics_static_32:DyTGSContactPrep.obj
 0001:000b9660       ?writeBackContact@Dy@physx@@YAXABUPxSolverConstraintDesc@2@PAUSolverContext@12@@Z 100ba660 f   LowLevelDynamics_static_32:DyTGSContactPrep.obj
 0001:000b9740       ?setSolverConstantsStep@Dy@physx@@YAXAAM000000ABUPx1DConstraint@2@MMMMMMMMM@Z 100ba740 f   LowLevelDynamics_static_32:DyTGSContactPrep.obj
 0001:000b9960       ?setupSolverConstraintStep@Dy@physx@@YAIABUPxTGSSolverConstraintPrepDesc@2@AAVPxConstraintAllocator@2@MMMMM@Z 100ba960 f   LowLevelDynamics_static_32:DyTGSContactPrep.obj
 0001:000ba7b0       ?SetupSolverConstraintStep@Dy@physx@@YAIAAUSolverConstraintShaderPrepDesc@12@AAUPxTGSSolverConstraintPrepDesc@2@AAVPxConstraintAllocator@2@MMMMM@Z 100bb7b0 f   LowLevelDynamics_static_32:DyTGSContactPrep.obj
 0001:000ba920       ?solveExt1D@Dy@physx@@YAXABUPxSolverConstraintDesc@2@AAT__m128@@111ABT4@22222M1111@Z 100bb920 f   LowLevelDynamics_static_32:DyTGSContactPrep.obj
 0001:000bae50       ?solveExt1DStep@Dy@physx@@YAXABUPxSolverConstraintDesc@2@MAAUSolverContext@12@QBUPxTGSSolverBodyTxInertia@2@@Z 100bbe50 f   LowLevelDynamics_static_32:DyTGSContactPrep.obj
 0001:000bb2c0       ?solve1DStep@Dy@physx@@YAXABUPxSolverConstraintDesc@2@QBUPxTGSSolverBodyTxInertia@2@M@Z 100bc2c0 f   LowLevelDynamics_static_32:DyTGSContactPrep.obj
 0001:000bbe10       ?conclude1DStep@Dy@physx@@YAXABUPxSolverConstraintDesc@2@@Z 100bce10 f   LowLevelDynamics_static_32:DyTGSContactPrep.obj
 0001:000bbe60       ?concludeContact@Dy@physx@@YAXABUPxSolverConstraintDesc@2@@Z 100bce60 f   LowLevelDynamics_static_32:DyTGSContactPrep.obj
 0001:000bbe70       ?writeBack1D@Dy@physx@@YAXABUPxSolverConstraintDesc@2@@Z 100bce70 f   LowLevelDynamics_static_32:DyTGSContactPrep.obj
 0001:000bc0b0       ?solveExtContactStep@Dy@physx@@YAXABUPxSolverConstraintDesc@2@AAT__m128@@11111111111_NMM@Z 100bd0b0 f   LowLevelDynamics_static_32:DyTGSContactPrep.obj
 0001:000bc590       ?solveExtContactStep@Dy@physx@@YAXABUPxSolverConstraintDesc@2@_NMMAAUSolverContext@12@@Z 100bd590 f   LowLevelDynamics_static_32:DyTGSContactPrep.obj
 0001:000bc950       ?solveContactBlock@Dy@physx@@YAXABUPxConstraintBatchHeader@2@PBUPxSolverConstraintDesc@2@QBUPxTGSSolverBodyTxInertia@2@MMAAUSolverContext@12@@Z 100bd950 f   LowLevelDynamics_static_32:DyTGSContactPrep.obj
 0001:000bcf50       ?solve1DBlock@Dy@physx@@YAXABUPxConstraintBatchHeader@2@PBUPxSolverConstraintDesc@2@QBUPxTGSSolverBodyTxInertia@2@MMAAUSolverContext@12@@Z 100bdf50 f   LowLevelDynamics_static_32:DyTGSContactPrep.obj
 0001:000bcfa0       ?solveExtContactBlock@Dy@physx@@YAXABUPxConstraintBatchHeader@2@PBUPxSolverConstraintDesc@2@QBUPxTGSSolverBodyTxInertia@2@MMAAUSolverContext@12@@Z 100bdfa0 f   LowLevelDynamics_static_32:DyTGSContactPrep.obj
 0001:000bd390       ?solveExt1DBlock@Dy@physx@@YAXABUPxConstraintBatchHeader@2@PBUPxSolverConstraintDesc@2@QBUPxTGSSolverBodyTxInertia@2@MMAAUSolverContext@12@@Z 100be390 f   LowLevelDynamics_static_32:DyTGSContactPrep.obj
 0001:000bd3e0       ?writeBackContact@Dy@physx@@YAXABUPxConstraintBatchHeader@2@PBUPxSolverConstraintDesc@2@PAUSolverContext@12@@Z 100be3e0 f   LowLevelDynamics_static_32:DyTGSContactPrep.obj
 0001:000bd420       ?writeBack1D@Dy@physx@@YAXABUPxConstraintBatchHeader@2@PBUPxSolverConstraintDesc@2@PAUSolverContext@12@@Z 100be420 f   LowLevelDynamics_static_32:DyTGSContactPrep.obj
 0001:000bd690       ?solveConclude1DBlock@Dy@physx@@YAXABUPxConstraintBatchHeader@2@PBUPxSolverConstraintDesc@2@QBUPxTGSSolverBodyTxInertia@2@MAAUSolverContext@12@@Z 100be690 f   LowLevelDynamics_static_32:DyTGSContactPrep.obj
 0001:000bd6e0       ?solveConclude1DBlockExt@Dy@physx@@YAXABUPxConstraintBatchHeader@2@PBUPxSolverConstraintDesc@2@QBUPxTGSSolverBodyTxInertia@2@MAAUSolverContext@12@@Z 100be6e0 f   LowLevelDynamics_static_32:DyTGSContactPrep.obj
 0001:000bd730       ?solveConcludeContactBlock@Dy@physx@@YAXABUPxConstraintBatchHeader@2@PBUPxSolverConstraintDesc@2@QBUPxTGSSolverBodyTxInertia@2@MAAUSolverContext@12@@Z 100be730 f   LowLevelDynamics_static_32:DyTGSContactPrep.obj
 0001:000bdd30       ?solveConcludeContactExtBlock@Dy@physx@@YAXABUPxConstraintBatchHeader@2@PBUPxSolverConstraintDesc@2@QBUPxTGSSolverBodyTxInertia@2@MAAUSolverContext@12@@Z 100bed30 f   LowLevelDynamics_static_32:DyTGSContactPrep.obj
 0001:000be120       ?ellipseClamp@shdfnd@physx@@YA?AVPxVec3@2@ABV32@0@Z 100bf120 f i LowLevelDynamics_static_32:DyTGSContactPrep.obj
 0001:000c0400       ?computeBlockStreamByteSizes4@Dy@physx@@YAXPAUPxTGSSolverContactDesc@2@AAIPAIABUCorrelationBuffer@12@@Z 100c1400 f   LowLevelDynamics_static_32:DyTGSContactPrepBlock.obj
 0001:000c0690       ?createFinalizeSolverContacts4Step@Dy@physx@@YA?AW4Enum@SolverConstraintPrepState@12@AAUCorrelationBuffer@12@PAUPxTGSSolverContactDesc@2@MMMMMMAAVPxConstraintAllocator@2@@Z 100c1690 f   LowLevelDynamics_static_32:DyTGSContactPrepBlock.obj
 0001:000c0c50       ?createFinalizeSolverContacts4Step@Dy@physx@@YA?AW4Enum@SolverConstraintPrepState@12@PAPAUPxsContactManagerOutput@2@AAVThreadContext@12@PAUPxTGSSolverContactDesc@2@MMMMMMAAVPxConstraintAllocator@2@@Z 100c1c50 f   LowLevelDynamics_static_32:DyTGSContactPrepBlock.obj
 0001:000c1100       ?setupSolverConstraintStep4@Dy@physx@@YA?AW4Enum@SolverConstraintPrepState@12@PIAUPxTGSSolverConstraintPrepDesc@2@MMMMAAIAAVPxConstraintAllocator@2@IM@Z 100c2100 f   LowLevelDynamics_static_32:DyTGSContactPrepBlock.obj
 0001:000c2ce0       ?setupSolverConstraintStep4@Dy@physx@@YA?AW4Enum@SolverConstraintPrepState@12@PIAUSolverConstraintShaderPrepDesc@12@PIAUPxTGSSolverConstraintPrepDesc@2@MMMMAAIAAVPxConstraintAllocator@2@M@Z 100c3ce0 f   LowLevelDynamics_static_32:DyTGSContactPrepBlock.obj
 0001:000c2ed0       ?solveContact4_Block@Dy@physx@@YAXPIBUPxSolverConstraintDesc@2@_NMM@Z 100c3ed0 f   LowLevelDynamics_static_32:DyTGSContactPrepBlock.obj
 0001:000c3dc0       ?writeBackContact4_Block@Dy@physx@@YAXPIBUPxSolverConstraintDesc@2@PAUSolverContext@12@@Z 100c4dc0 f   LowLevelDynamics_static_32:DyTGSContactPrepBlock.obj
 0001:000c3f90       ?solveContact4@Dy@physx@@YAXABUPxConstraintBatchHeader@2@PIBUPxSolverConstraintDesc@2@QBUPxTGSSolverBodyTxInertia@2@MMAAUSolverContext@12@@Z 100c4f90 f   LowLevelDynamics_static_32:DyTGSContactPrepBlock.obj
 0001:000c3fd0       ?writeBackContact4@Dy@physx@@YAXABUPxConstraintBatchHeader@2@PIBUPxSolverConstraintDesc@2@PAUSolverContext@12@@Z 100c4fd0 f   LowLevelDynamics_static_32:DyTGSContactPrepBlock.obj
 0001:000c3ff0       ?solve1DStep4@Dy@physx@@YAXPIBUPxSolverConstraintDesc@2@QBUPxTGSSolverBodyTxInertia@2@M@Z 100c4ff0 f   LowLevelDynamics_static_32:DyTGSContactPrepBlock.obj
 0001:000c5af0       ?solve1D4@Dy@physx@@YAXABUPxConstraintBatchHeader@2@PIBUPxSolverConstraintDesc@2@QBUPxTGSSolverBodyTxInertia@2@MMAAUSolverContext@12@@Z 100c6af0 f   LowLevelDynamics_static_32:DyTGSContactPrepBlock.obj
 0001:000c5b20       ?writeBack1D4@Dy@physx@@YAXABUPxConstraintBatchHeader@2@PIBUPxSolverConstraintDesc@2@PAUSolverContext@12@@Z 100c6b20 f   LowLevelDynamics_static_32:DyTGSContactPrepBlock.obj
 0001:000c5e70       ?concludeContact4_Block@Dy@physx@@YAXPIBUPxSolverConstraintDesc@2@@Z 100c6e70 f   LowLevelDynamics_static_32:DyTGSContactPrepBlock.obj
 0001:000c5e80       ?conclude1DStep4@Dy@physx@@YAXPIBUPxSolverConstraintDesc@2@@Z 100c6e80 f   LowLevelDynamics_static_32:DyTGSContactPrepBlock.obj
 0001:000c5ee0       ?solveConcludeContact4@Dy@physx@@YAXABUPxConstraintBatchHeader@2@PBUPxSolverConstraintDesc@2@QBUPxTGSSolverBodyTxInertia@2@MAAUSolverContext@12@@Z 100c6ee0 f   LowLevelDynamics_static_32:DyTGSContactPrepBlock.obj
 0001:000c5f10       ?solveConclude1D4@Dy@physx@@YAXABUPxConstraintBatchHeader@2@PBUPxSolverConstraintDesc@2@QBUPxTGSSolverBodyTxInertia@2@MAAUSolverContext@12@@Z 100c6f10 f   LowLevelDynamics_static_32:DyTGSContactPrepBlock.obj
 0001:000c9830       ?packJointData@FeatherstoneArticulation@Dy@physx@@UAEXPBMPAM@Z 100ca830 f   LowLevelDynamics_static_32:DyFeatherstoneInverseDynamic.obj
 0001:000c9900       ?unpackJointData@FeatherstoneArticulation@Dy@physx@@UAEXPBMPAM@Z 100ca900 f   LowLevelDynamics_static_32:DyFeatherstoneInverseDynamic.obj
 0001:000c9990       ?initializeCommonData@FeatherstoneArticulation@Dy@physx@@UAEXXZ 100ca990 f   LowLevelDynamics_static_32:DyFeatherstoneInverseDynamic.obj
 0001:000c99d0       ?getGeneralizedGravityForce@FeatherstoneArticulation@Dy@physx@@UAEXABVPxVec3@3@AAVPxArticulationCache@3@@Z 100ca9d0 f   LowLevelDynamics_static_32:DyFeatherstoneInverseDynamic.obj
 0001:000c9c40       ?getCoriolisAndCentrifugalForce@FeatherstoneArticulation@Dy@physx@@UAEXAAVPxArticulationCache@3@@Z 100cac40 f   LowLevelDynamics_static_32:DyFeatherstoneInverseDynamic.obj
 0001:000c9dd0       ?getGeneralizedExternalForce@FeatherstoneArticulation@Dy@physx@@UAEXAAVPxArticulationCache@3@@Z 100cadd0 f   LowLevelDynamics_static_32:DyFeatherstoneInverseDynamic.obj
 0001:000ca340       ?getJointForce@FeatherstoneArticulation@Dy@physx@@UAEXAAVPxArticulationCache@3@@Z 100cb340 f   LowLevelDynamics_static_32:DyFeatherstoneInverseDynamic.obj
 0001:000ca4f0       ?getKMatrix@FeatherstoneArticulation@Dy@physx@@QAEXPAUArticulationJointCore@23@IIAAVPxArticulationCache@3@@Z 100cb4f0 f   LowLevelDynamics_static_32:DyFeatherstoneInverseDynamic.obj
 0001:000ca500       ?getCoefficientMatrix@FeatherstoneArticulation@Dy@physx@@UAEXMIPBVPxContactJoint@3@IAAVPxArticulationCache@3@@Z 100cb500 f   LowLevelDynamics_static_32:DyFeatherstoneInverseDynamic.obj
 0001:000cadb0       ?getCoefficientMatrixWithLoopJoints@FeatherstoneArticulation@Dy@physx@@UAEXPAUArticulationLoopConstraint@23@IAAVPxArticulationCache@3@@Z 100cbdb0 f   LowLevelDynamics_static_32:DyFeatherstoneInverseDynamic.obj
 0001:000cb870       ?getLambda@FeatherstoneArticulation@Dy@physx@@UAE_NPAUArticulationLoopConstraint@23@IAAVPxArticulationCache@3@1PBMABVPxVec3@3@I@Z 100cc870 f   LowLevelDynamics_static_32:DyFeatherstoneInverseDynamic.obj
 0001:000cc1b0       ?getGeneralizedMassMatrix@FeatherstoneArticulation@Dy@physx@@UAEXAAVPxArticulationCache@3@@Z 100cd1b0 f   LowLevelDynamics_static_32:DyFeatherstoneInverseDynamic.obj
 0001:000cc380       ?getGeneralizedMassMatrixCRB@FeatherstoneArticulation@Dy@physx@@UAEXAAVPxArticulationCache@3@@Z 100cd380 f   LowLevelDynamics_static_32:DyFeatherstoneInverseDynamic.obj
 0001:000cc3d0       ?applyCacheToDest@FeatherstoneArticulation@Dy@physx@@QAE_NAAVArticulationData@23@AAVPxArticulationCache@3@PAM222V?$PxFlags@W4Enum@PxArticulationCache@physx@@E@3@@Z 100cd3d0 f   LowLevelDynamics_static_32:DyFeatherstoneInverseDynamic.obj
 0001:000cc780       ?constraintPrep@FeatherstoneArticulation@Dy@physx@@IAEXPAUArticulationLoopConstraint@23@IPAUSpatialVectorF@Cm@3@AAUPxSolverConstraintPrepDesc@3@AAUPxSolverBody@3@AAUPxSolverBodyData@3@PAUPxSolverConstraintDesc@3@AAVPxConstraintAllocator@3@@Z 100cd780 f   LowLevelDynamics_static_32:DyFeatherstoneInverseDynamic.obj
 0001:000ccc30       ?jcalcLoopJointSubspace@FeatherstoneArticulation@Dy@physx@@IAEXPAUArticulationJointCore@23@AAVArticulationJointCoreData@23@AAUSpatialSubspaceMatrix@23@@Z 100cdc30 f   LowLevelDynamics_static_32:DyFeatherstoneInverseDynamic.obj
 0001:000cdba0       ?getImpulseSelfResponseInv@FeatherstoneArticulation@Dy@physx@@IAEX_NIIPAUSpatialVectorF@Cm@3@ABVSpatialVector@53@2AAV653@3PAM@Z 100ceba0 f   LowLevelDynamics_static_32:DyFeatherstoneInverseDynamic.obj
 0001:000cdef0       ?getImpulseResponseSlowInv@FeatherstoneArticulation@Dy@physx@@IAEXPAUArticulationLink@23@ABVArticulationData@23@IABVSpatialVector@Cm@3@AAV673@I23PAM@Z 100ceef0 f   LowLevelDynamics_static_32:DyFeatherstoneInverseDynamic.obj
 0001:000cece0       ?getImpulseResponseInv@FeatherstoneArticulation@Dy@physx@@IAE?AUSpatialVectorF@Cm@3@_NIPAU453@ABVSpatialVector@53@PAM@Z 100cfce0 f   LowLevelDynamics_static_32:DyFeatherstoneInverseDynamic.obj
 0001:000cf380       ?inverseDynamic@FeatherstoneArticulation@Dy@physx@@IAEXAAVArticulationData@23@ABVPxVec3@3@AAUScratchData@23@_N@Z 100d0380 f   LowLevelDynamics_static_32:DyFeatherstoneInverseDynamic.obj
 0001:000cf3f0       ?inverseDynamicFloatingBase@FeatherstoneArticulation@Dy@physx@@IAEXAAVArticulationData@23@ABVPxVec3@3@AAUScratchData@23@_N@Z 100d03f0 f   LowLevelDynamics_static_32:DyFeatherstoneInverseDynamic.obj
 0001:000cf470       ?computeZAForceInv@FeatherstoneArticulation@Dy@physx@@IAEXAAVArticulationData@23@AAUScratchData@23@@Z 100d0470 f   LowLevelDynamics_static_32:DyFeatherstoneInverseDynamic.obj
 0001:000cf7f0       ?initCompositeSpatialInertia@FeatherstoneArticulation@Dy@physx@@IAEXAAVArticulationData@23@PAUSpatialMatrix@23@@Z 100d07f0 f   LowLevelDynamics_static_32:DyFeatherstoneInverseDynamic.obj
 0001:000cfbc0       ?computeCompositeSpatialInertiaAndZAForceInv@FeatherstoneArticulation@Dy@physx@@IAEXAAVArticulationData@23@AAUScratchData@23@@Z 100d0bc0 f   LowLevelDynamics_static_32:DyFeatherstoneInverseDynamic.obj
 0001:000d0080       ?computeRelativeGeneralizedForceInv@FeatherstoneArticulation@Dy@physx@@IAEXAAVArticulationData@23@AAUScratchData@23@@Z 100d1080 f   LowLevelDynamics_static_32:DyFeatherstoneInverseDynamic.obj
 0001:000d14b0       ?computeLinkAccelerationInv@FeatherstoneArticulation@Dy@physx@@IAEXAAVArticulationData@23@AAUScratchData@23@@Z 100d24b0 f   LowLevelDynamics_static_32:DyFeatherstoneInverseDynamic.obj
 0001:000d1810       ?computeGeneralizedForceInv@FeatherstoneArticulation@Dy@physx@@IAEXAAVArticulationData@23@AAUScratchData@23@@Z 100d2810 f   LowLevelDynamics_static_32:DyFeatherstoneInverseDynamic.obj
 0001:000d1a30       ?calculateMassMatrixColInv@FeatherstoneArticulation@Dy@physx@@IAEXAAUScratchData@23@@Z 100d2a30 f   LowLevelDynamics_static_32:DyFeatherstoneInverseDynamic.obj
 0001:000d21e0       ?calculateHFixBase@FeatherstoneArticulation@Dy@physx@@IAEXAAVPxArticulationCache@3@@Z 100d31e0 f   LowLevelDynamics_static_32:DyFeatherstoneInverseDynamic.obj
 0001:000d2830       ?calculateHFloatingBase@FeatherstoneArticulation@Dy@physx@@IAEXAAVPxArticulationCache@3@@Z 100d3830 f   LowLevelDynamics_static_32:DyFeatherstoneInverseDynamic.obj
 0001:000d3f70       ?computeHi@Dy@physx@@YAIAAVArticulationData@12@IPAMPAUSpatialVectorF@Cm@2@@Z 100d4f70 f   LowLevelDynamics_static_32:DyFeatherstoneInverseDynamic.obj
 0001:000d4370       ??0BlockBasedAllocator@Dy@physx@@QAE@XZ 100d5370 f i LowLevelDynamics_static_32:DyFeatherstoneInverseDynamic.obj
 0001:000d43d0       ??0ScratchData@Dy@physx@@QAE@XZ 100d53d0 f i LowLevelDynamics_static_32:DyFeatherstoneInverseDynamic.obj
 0001:000d4420       ??1ArticulationBlockAllocator@Dy@physx@@UAE@XZ 100d5420 f i LowLevelDynamics_static_32:DyFeatherstoneInverseDynamic.obj
 0001:000d44c0       ??1BlockBasedAllocator@Dy@physx@@UAE@XZ 100d54c0 f i LowLevelDynamics_static_32:DyFeatherstoneInverseDynamic.obj
 0001:000d4500       ??_EArticulationBlockAllocator@Dy@physx@@UAEPAXI@Z 100d5500 f i LowLevelDynamics_static_32:DyFeatherstoneInverseDynamic.obj
 0001:000d4500       ??_GArticulationBlockAllocator@Dy@physx@@UAEPAXI@Z 100d5500 f i LowLevelDynamics_static_32:DyFeatherstoneInverseDynamic.obj
 0001:000d4520       ??_GBlockBasedAllocator@Dy@physx@@UAEPAXI@Z 100d5520 f i LowLevelDynamics_static_32:DyFeatherstoneInverseDynamic.obj
 0001:000d4520       ??_EBlockBasedAllocator@Dy@physx@@UAEPAXI@Z 100d5520 f i LowLevelDynamics_static_32:DyFeatherstoneInverseDynamic.obj
 0001:000d4570       ?alloc@PxcScratchAllocator@physx@@QAEPAXI_N@Z 100d5570 f i LowLevelDynamics_static_32:DyFeatherstoneInverseDynamic.obj
 0001:000d4640       ?allocate@BlockBasedAllocator@Dy@physx@@UAEPAEI@Z 100d5640 f i LowLevelDynamics_static_32:DyFeatherstoneInverseDynamic.obj
 0001:000d4740       ?free@PxcScratchAllocator@physx@@QAEXPAX@Z 100d5740 f i LowLevelDynamics_static_32:DyFeatherstoneInverseDynamic.obj
 0001:000d47c0       ?growAndPushBack@?$Array@PAUAllocationPage@BlockBasedAllocator@Dy@physx@@VNamedAllocator@shdfnd@4@@shdfnd@physx@@IAEAAPAUAllocationPage@BlockBasedAllocator@Dy@3@ABQAU4563@@Z 100d57c0 f i LowLevelDynamics_static_32:DyFeatherstoneInverseDynamic.obj
 0001:000d4870       ?release@BlockBasedAllocator@Dy@physx@@QAEXXZ 100d5870 f i LowLevelDynamics_static_32:DyFeatherstoneInverseDynamic.obj
 0001:000d48c0       ?reserveConstraintData@ArticulationBlockAllocator@Dy@physx@@UAEPAEI@Z 100d58c0 f i LowLevelDynamics_static_32:DyFeatherstoneInverseDynamic.obj
 0001:000d48d0       ?reserveFrictionData@ArticulationBlockAllocator@Dy@physx@@UAEPAEI@Z 100d58d0 f i LowLevelDynamics_static_32:DyFeatherstoneInverseDynamic.obj
 0001:000d48f0       ?getJointAcceleration@FeatherstoneArticulation@Dy@physx@@UAEXABVPxVec3@3@AAVPxArticulationCache@3@@Z 100d58f0 f   LowLevelDynamics_static_32:DyFeatherstoneForwardDynamic.obj
 0001:000d50e0       ?computeUnconstrainedVelocities@FeatherstoneArticulation@Dy@physx@@SAIABUArticulationSolverDesc@23@MAAVPxConstraintAllocator@3@PAUPxSolverConstraintDesc@3@AAIABVPxVec3@3@_KPAUSpatialVectorF@Cm@3@6@Z 100d60e0 f   LowLevelDynamics_static_32:DyFeatherstoneForwardDynamic.obj
 0001:000d5140       ?computeUnconstrainedVelocitiesTGS@FeatherstoneArticulation@Dy@physx@@SAXABUArticulationSolverDesc@23@MABVPxVec3@3@_KPAUSpatialVectorF@Cm@3@3@Z 100d6140 f   LowLevelDynamics_static_32:DyFeatherstoneForwardDynamic.obj
 0001:000d5170       ?updateBodies@FeatherstoneArticulation@Dy@physx@@SAXABUArticulationSolverDesc@23@M@Z 100d6170 f   LowLevelDynamics_static_32:DyFeatherstoneForwardDynamic.obj
 0001:000d5190       ?updateBodiesTGS@FeatherstoneArticulation@Dy@physx@@SAXABUArticulationSolverDesc@23@M@Z 100d6190 f   LowLevelDynamics_static_32:DyFeatherstoneForwardDynamic.obj
 0001:000d51b0       ?updateBodies@FeatherstoneArticulation@Dy@physx@@SAXPAV123@M_N@Z 100d61b0 f   LowLevelDynamics_static_32:DyFeatherstoneForwardDynamic.obj
 0001:000d5440       ?updateArticulation@FeatherstoneArticulation@Dy@physx@@IAEXAAUScratchData@23@ABVPxVec3@3@PAUSpatialVectorF@Cm@3@2@Z 100d6440 f   LowLevelDynamics_static_32:DyFeatherstoneForwardDynamic.obj
 0001:000d54e0       ?computeUnconstrainedVelocitiesInternal@FeatherstoneArticulation@Dy@physx@@IAEXABVPxVec3@3@PAUSpatialVectorF@Cm@3@1@Z 100d64e0 f   LowLevelDynamics_static_32:DyFeatherstoneForwardDynamic.obj
 0001:000d5930       ?initLinks@FeatherstoneArticulation@Dy@physx@@IAEXAAVArticulationData@23@ABVPxVec3@3@AAUScratchData@23@PAUSpatialVectorF@Cm@3@3@Z 100d6930 f   LowLevelDynamics_static_32:DyFeatherstoneForwardDynamic.obj
 0001:000d59c0       ?computeIs@FeatherstoneArticulation@Dy@physx@@IAEXAAVArticulationLinkData@23@AAVArticulationJointCoreData@23@I@Z 100d69c0 f   LowLevelDynamics_static_32:DyFeatherstoneForwardDynamic.obj
 0001:000d5d70       ?computePropagateSpatialInertia@FeatherstoneArticulation@Dy@physx@@KA?AUSpatialMatrix@23@EAAVArticulationJointCoreData@23@ABU423@PBUSpatialVectorF@Cm@3@AAUInvStIs@23@AAUIsInvD@23@ABUSpatialSubspaceMatrix@23@@Z 100d6d70 f   LowLevelDynamics_static_32:DyFeatherstoneForwardDynamic.obj
 0001:000d6890       ?computeArticulatedSpatialInertia@FeatherstoneArticulation@Dy@physx@@IAEXAAVArticulationData@23@@Z 100d7890 f   LowLevelDynamics_static_32:DyFeatherstoneForwardDynamic.obj
 0001:000d7490       ?computeArticulatedResponseMatrix@FeatherstoneArticulation@Dy@physx@@IAEXAAVArticulationData@23@@Z 100d8490 f   LowLevelDynamics_static_32:DyFeatherstoneForwardDynamic.obj
 0001:000d7d20       ?computeArticulatedSpatialZ@FeatherstoneArticulation@Dy@physx@@IAEXAAVArticulationData@23@AAUScratchData@23@@Z 100d8d20 f   LowLevelDynamics_static_32:DyFeatherstoneForwardDynamic.obj
 0001:000d8300       ?computeJointAccelerationW@FeatherstoneArticulation@Dy@physx@@IAEXAAVArticulationLinkData@23@AAVArticulationJointCoreData@23@ABUSpatialVectorF@Cm@3@PAMI@Z 100d9300 f   LowLevelDynamics_static_32:DyFeatherstoneForwardDynamic.obj
 0001:000d8430       ?computeLinkAcceleration@FeatherstoneArticulation@Dy@physx@@IAEXAAVArticulationData@23@AAUScratchData@23@@Z 100d9430 f   LowLevelDynamics_static_32:DyFeatherstoneForwardDynamic.obj
 0001:000d8c00       ?computeJointTransmittedFrictionForce@FeatherstoneArticulation@Dy@physx@@IAEXAAVArticulationData@23@AAUScratchData@23@PAUSpatialVectorF@Cm@3@2@Z 100d9c00 f   LowLevelDynamics_static_32:DyFeatherstoneForwardDynamic.obj
 0001:000d8d90       ?updateBodies@FeatherstoneArticulation@Dy@physx@@IAEXXZ 100d9d90 f   LowLevelDynamics_static_32:DyFeatherstoneForwardDynamic.obj
 0001:000d8e60       ?applyExternalImpulse@FeatherstoneArticulation@Dy@physx@@IAEXPAUArticulationLink@23@I_NAAVArticulationData@23@PAUSpatialVectorF@Cm@3@3MABVPxVec3@3@PAVSpatialVector@73@@Z 100d9e60 f   LowLevelDynamics_static_32:DyFeatherstoneForwardDynamic.obj
 0001:000d9a10       ?enforcePrismaticLimits@FeatherstoneArticulation@Dy@physx@@IAEXPAMPAUArticulationJointCore@23@@Z 100daa10 f   LowLevelDynamics_static_32:DyFeatherstoneForwardDynamic.obj
 0001:000d9a60       ?propagateLinksDown@FeatherstoneArticulation@Dy@physx@@QAEXAAVArticulationData@23@PAM1PAUSpatialVectorF@Cm@3@@Z 100daa60 f   LowLevelDynamics_static_32:DyFeatherstoneForwardDynamic.obj
 0001:000dac30       ?updateJointProperties@FeatherstoneArticulation@Dy@physx@@QAEXPBMPBUSpatialVectorF@Cm@3@PAM2@Z 100dbc30 f   LowLevelDynamics_static_32:DyFeatherstoneForwardDynamic.obj
 0001:000dae00       ?recomputeAccelerations@FeatherstoneArticulation@Dy@physx@@QAEXM@Z 100dbe00 f   LowLevelDynamics_static_32:DyFeatherstoneForwardDynamic.obj
 0001:000db020       ?recomputeAcceleration@FeatherstoneArticulation@Dy@physx@@QBE?AVSpatialVector@Cm@3@IM@Z 100dc020 f   LowLevelDynamics_static_32:DyFeatherstoneForwardDynamic.obj
 0001:000db760       ?computeAndEnforceJointPositions@FeatherstoneArticulation@Dy@physx@@QAEXAAVArticulationData@23@PAM@Z 100dc760 f   LowLevelDynamics_static_32:DyFeatherstoneForwardDynamic.obj
 0001:000db900       ?updateRootBody@FeatherstoneArticulation@Dy@physx@@SAXABUSpatialVectorF@Cm@3@ABVPxTransform@3@AAVArticulationData@23@M@Z 100dc900 f   LowLevelDynamics_static_32:DyFeatherstoneForwardDynamic.obj
 0001:000dbbb0       ?computeSphericalJointPositions@Dy@physx@@YA?AVPxQuat@2@V32@00PAMABUSpatialSubspaceMatrix@12@@Z 100dcbb0 f   LowLevelDynamics_static_32:DyFeatherstoneForwardDynamic.obj
 0001:000dbf70       ??0PxMat33@physx@@QAE@W4PxIDENTITY@1@@Z 100dcf70 f i LowLevelDynamics_static_32:DyFeatherstoneForwardDynamic.obj
 0001:000dbfc0       ??4SpatialMatrix@Dy@physx@@QAEAAU012@$$QAU012@@Z 100dcfc0 f i LowLevelDynamics_static_32:DyFeatherstoneForwardDynamic.obj
 0001:000dc310       ?constructSpatialMatrix@SpatialMatrix@Dy@physx@@SA?AU123@ABUSpatialVectorF@Cm@3@0@Z 100dd310 f i LowLevelDynamics_static_32:DyFeatherstoneForwardDynamic.obj
 0001:000dc4e0       ?getInverse@PxMat33@physx@@QBE?BV12@XZ 100dd4e0 f i LowLevelDynamics_static_32:DyFeatherstoneForwardDynamic.obj
 0001:000dc730       ?getInverse@SpatialMatrix@Dy@physx@@QAE?AU123@XZ 100dd730 f i LowLevelDynamics_static_32:DyFeatherstoneForwardDynamic.obj
 0001:000dd3f0       ?createTGSDynamicsContext@Dy@physx@@YAPAVContext@12@PAVPxcNpMemBlockPool@2@AAVPxcScratchAllocator@2@AAVFlushPool@Cm@2@AAUPxvSimStats@2@PAVPxTaskManager@2@PAVVirtualAllocatorCallback@shdfnd@2@PAVPxsMaterialManager@2@PAVIslandSim@IG@2@_K_N99M@Z 100de3f0 f   LowLevelDynamics_static_32:DyTGSDynamics.obj
 0001:000dd480       ?create@DynamicsTGSContext@Dy@physx@@SAPAV123@PAVPxcNpMemBlockPool@3@AAVPxcScratchAllocator@3@AAVFlushPool@Cm@3@AAUPxvSimStats@3@PAVPxTaskManager@3@PAVVirtualAllocatorCallback@shdfnd@3@PAVPxsMaterialManager@3@PAVIslandSim@IG@3@_K_N99M@Z 100de480 f   LowLevelDynamics_static_32:DyTGSDynamics.obj
 0001:000dd510       ?destroy@DynamicsTGSContext@Dy@physx@@UAEXXZ 100de510 f   LowLevelDynamics_static_32:DyTGSDynamics.obj
 0001:000dd530       ?update@DynamicsTGSContext@Dy@physx@@UAEXAAVSimpleIslandManager@IG@3@PAVPxBaseTask@3@1PAPAVPxsContactManager@3@I2IIAAVPxsContactManagerOutputIterator@3@PAUPxsContactManagerOutput@3@MABVPxVec3@3@I@Z 100de530 f   LowLevelDynamics_static_32:DyTGSDynamics.obj
 0001:000de0a0       ?updatePostKinematic@DynamicsTGSContext@Dy@physx@@QAEXAAVSimpleIslandManager@IG@3@PAVPxBaseTask@3@1@Z 100df0a0 f   LowLevelDynamics_static_32:DyTGSDynamics.obj
 0001:000de380       ?updateBodyCore@DynamicsTGSContext@Dy@physx@@UAEXPAVPxBaseTask@3@@Z 100df380 f   LowLevelDynamics_static_32:DyTGSDynamics.obj
 0001:000de390       ?mergeResults@DynamicsTGSContext@Dy@physx@@UAEXXZ 100df390 f   LowLevelDynamics_static_32:DyTGSDynamics.obj
 0001:000de3a0       ??0DynamicsTGSContext@Dy@physx@@IAE@PAVPxcNpMemBlockPool@2@AAVPxcScratchAllocator@2@AAVFlushPool@Cm@2@AAUPxvSimStats@2@PAVPxTaskManager@2@PAVVirtualAllocatorCallback@shdfnd@2@PAVPxsMaterialManager@2@PAVIslandSim@IG@2@_K_N99M@Z 100df3a0 f   LowLevelDynamics_static_32:DyTGSDynamics.obj
 0001:000dea20       ??1DynamicsTGSContext@Dy@physx@@MAE@XZ 100dfa20 f   LowLevelDynamics_static_32:DyTGSDynamics.obj
 0001:000ded50       ?setDescFromIndices@DynamicsTGSContext@Dy@physx@@IAEXAAUPxSolverConstraintDesc@3@ABUPxsIndexedInteraction@3@IPAUPxTGSSolverBodyVel@3@@Z 100dfd50 f   LowLevelDynamics_static_32:DyTGSDynamics.obj
 0001:000dee60       ?setDescFromIndices@DynamicsTGSContext@Dy@physx@@IAEXAAUPxSolverConstraintDesc@3@IABVSimpleIslandManager@IG@3@PAIIPAUPxTGSSolverBodyVel@3@@Z 100dfe60 f   LowLevelDynamics_static_32:DyTGSDynamics.obj
 0001:000df060       ?solveIsland@DynamicsTGSContext@Dy@physx@@IAEXABUSolverIslandObjectsStep@23@ABVPxsIslandIndices@3@IAAVSimpleIslandManager@IG@3@PAIPAVPxsMaterialManager@3@AAVPxsContactManagerOutputIterator@3@PAVPxBaseTask@3@@Z 100e0060 f   LowLevelDynamics_static_32:DyTGSDynamics.obj
 0001:000df870       ?prepareBodiesAndConstraints@DynamicsTGSContext@Dy@physx@@IAEXABUSolverIslandObjectsStep@23@AAVSimpleIslandManager@IG@3@AAUIslandContextStep@23@@Z 100e0870 f   LowLevelDynamics_static_32:DyTGSDynamics.obj
 0001:000dfc40       ?setupDescs@DynamicsTGSContext@Dy@physx@@IAEXAAUIslandContextStep@23@ABUSolverIslandObjectsStep@23@AAVSimpleIslandManager@IG@3@PAIIAAVPxsContactManagerOutputIterator@3@@Z 100e0c40 f   LowLevelDynamics_static_32:DyTGSDynamics.obj
 0001:000dfea0       ?preIntegrateBodies@DynamicsTGSContext@Dy@physx@@IAEXPAPAUPxsBodyCore@3@PAPAVPxsRigidBody@3@PAUPxTGSSolverBodyVel@3@PAUPxTGSSolverBodyTxInertia@3@PAUPxTGSSolverBodyData@3@PAIIABVPxVec3@3@MAAI7I@Z 100e0ea0 f   LowLevelDynamics_static_32:DyTGSDynamics.obj
 0001:000e0190       ?setupArticulations@DynamicsTGSContext@Dy@physx@@IAEXAAUIslandContextStep@23@ABVPxVec3@3@MAAI2PAVPxBaseTask@3@@Z 100e1190 f   LowLevelDynamics_static_32:DyTGSDynamics.obj
 0001:000e0460       ?setupArticulationInternalConstraints@DynamicsTGSContext@Dy@physx@@IAEIAAUIslandContextStep@23@MMPAUPxSolverConstraintDesc@3@@Z 100e1460 f   LowLevelDynamics_static_32:DyTGSDynamics.obj
 0001:000e05c0       ?createSolverConstraints@DynamicsTGSContext@Dy@physx@@IAEXPAUPxSolverConstraintDesc@3@PAUPxConstraintBatchHeader@3@IAAVPxsContactManagerOutputIterator@3@AAVThreadContext@23@3MMMI@Z 100e15c0 f   LowLevelDynamics_static_32:DyTGSDynamics.obj
 0001:000e0e20       ?solveConstraintsIteration@DynamicsTGSContext@Dy@physx@@IAEXQBUPxSolverConstraintDesc@3@QBUPxConstraintBatchHeader@3@IMQBUPxTGSSolverBodyTxInertia@3@MMAAUSolverContext@23@@Z 100e1e20 f   LowLevelDynamics_static_32:DyTGSDynamics.obj
 0001:000e0e80       ?solveConcludeConstraintsIteration@DynamicsTGSContext@Dy@physx@@IAEXQBUPxSolverConstraintDesc@3@QBUPxConstraintBatchHeader@3@IPAUPxTGSSolverBodyTxInertia@3@MAAUSolverContext@23@@Z 100e1e80 f   LowLevelDynamics_static_32:DyTGSDynamics.obj
 0001:000e0ee0       ?parallelSolveConstraints@DynamicsTGSContext@Dy@physx@@IAEXQBUPxSolverConstraintDesc@3@QBUPxConstraintBatchHeader@3@IPAUPxTGSSolverBodyTxInertia@3@MMAAUSolverContext@23@@Z 100e1ee0 f   LowLevelDynamics_static_32:DyTGSDynamics.obj
 0001:000e0f40       ?writebackConstraintsIteration@DynamicsTGSContext@Dy@physx@@IAEXQBUPxConstraintBatchHeader@3@QBUPxSolverConstraintDesc@3@I@Z 100e1f40 f   LowLevelDynamics_static_32:DyTGSDynamics.obj
 0001:000e0ff0       ?parallelWritebackConstraintsIteration@DynamicsTGSContext@Dy@physx@@IAEXQBUPxSolverConstraintDesc@3@QBUPxConstraintBatchHeader@3@I@Z 100e1ff0 f   LowLevelDynamics_static_32:DyTGSDynamics.obj
 0001:000e1030       ?integrateBodies@DynamicsTGSContext@Dy@physx@@IAEXABUSolverIslandObjectsStep@23@IPAUPxTGSSolverBodyVel@3@PAUPxTGSSolverBodyTxInertia@3@QBUPxTGSSolverBodyData@3@M@Z 100e2030 f   LowLevelDynamics_static_32:DyTGSDynamics.obj
 0001:000e1410       ?parallelIntegrateBodies@DynamicsTGSContext@Dy@physx@@IAEXPAUPxTGSSolverBodyVel@3@PAUPxTGSSolverBodyTxInertia@3@QBUPxTGSSolverBodyData@3@IM@Z 100e2410 f   LowLevelDynamics_static_32:DyTGSDynamics.obj
 0001:000e17f0       ?copyBackBodies@DynamicsTGSContext@Dy@physx@@IAEXABUSolverIslandObjectsStep@23@PAUPxTGSSolverBodyVel@3@PAUPxTGSSolverBodyTxInertia@3@PAUPxTGSSolverBodyData@3@MAAVIslandSim@IG@3@II@Z 100e27f0 f   LowLevelDynamics_static_32:DyTGSDynamics.obj
 0001:000e25c0       ?updateArticulations@DynamicsTGSContext@Dy@physx@@IAEXAAVThreadContext@23@IIM@Z 100e35c0 f   LowLevelDynamics_static_32:DyTGSDynamics.obj
 0001:000e2620       ?stepArticulations@DynamicsTGSContext@Dy@physx@@IAEXAAVThreadContext@23@ABVPxsIslandIndices@3@M@Z 100e3620 f   LowLevelDynamics_static_32:DyTGSDynamics.obj
 0001:000e2690       ?iterativeSolveIsland@DynamicsTGSContext@Dy@physx@@IAEXABUSolverIslandObjectsStep@23@ABVPxsIslandIndices@3@AAVThreadContext@23@MMIIAAUSolverContext@23@@Z 100e3690 f   LowLevelDynamics_static_32:DyTGSDynamics.obj
 0001:000e2de0       ?iterativeSolveIslandParallel@DynamicsTGSContext@Dy@physx@@IAEXABUSolverIslandObjectsStep@23@ABVPxsIslandIndices@3@AAVThreadContext@23@MIIPAH33333II@Z 100e3de0 f   LowLevelDynamics_static_32:DyTGSDynamics.obj
 0001:000e3de0       ?endIsland@DynamicsTGSContext@Dy@physx@@IAEXAAVThreadContext@23@@Z 100e4de0 f   LowLevelDynamics_static_32:DyTGSDynamics.obj
 0001:000e3df0       ?finishSolveIsland@DynamicsTGSContext@Dy@physx@@IAEXAAVThreadContext@23@ABUSolverIslandObjectsStep@23@ABVPxsIslandIndices@3@AAVSimpleIslandManager@IG@3@PAVPxBaseTask@3@@Z 100e4df0 f   LowLevelDynamics_static_32:DyTGSDynamics.obj
 0001:000e41e0       ?resetThreadContexts@DynamicsTGSContext@Dy@physx@@IAEXXZ 100e51e0 f   LowLevelDynamics_static_32:DyTGSDynamics.obj
 0001:000e4230       ?copyToSolverBodyDataStep@Dy@physx@@YAXABVPxVec3@2@0M0ABVPxTransform@2@MMIMMI_NAAUPxTGSSolverBodyVel@2@AAUPxTGSSolverBodyTxInertia@2@AAUPxTGSSolverBodyData@2@@Z 100e5230 f   LowLevelDynamics_static_32:DyTGSDynamics.obj
 0001:000e48f0       ?copyToSolverBodyDataStepKinematic@Dy@physx@@YAXABVPxVec3@2@0ABVPxTransform@2@MMIMMAAUPxTGSSolverBodyVel@2@AAUPxTGSSolverBodyTxInertia@2@AAUPxTGSSolverBodyData@2@@Z 100e58f0 f   LowLevelDynamics_static_32:DyTGSDynamics.obj
 0001:000e4a30       ?integrateCoreStep@Dy@physx@@YAXAAUPxTGSSolverBodyVel@2@AAUPxTGSSolverBodyTxInertia@2@M@Z 100e5a30 f   LowLevelDynamics_static_32:DyTGSDynamics.obj
 0001:000e4de0       ??$sort@UPxSolverConstraintDesc@physx@@UConstraintLess@Dy@2@@shdfnd@physx@@YAXPAUPxSolverConstraintDesc@1@IABUConstraintLess@Dy@1@@Z 100e5de0 f i LowLevelDynamics_static_32:DyTGSDynamics.obj
 0001:000e4e10       ??$sort@UPxSolverConstraintDesc@physx@@UConstraintLess@Dy@2@VNamedAllocator@shdfnd@2@@shdfnd@physx@@YAXPAUPxSolverConstraintDesc@1@IABUConstraintLess@Dy@1@ABVNamedAllocator@01@I@Z 100e5e10 f i LowLevelDynamics_static_32:DyTGSDynamics.obj
 0001:000e51e0       ??0PxTGSSolverConstraintPrepDesc@physx@@QAE@XZ 100e61e0 f i LowLevelDynamics_static_32:DyTGSDynamics.obj
 0001:000e51f0       ??0PxTGSSolverContactDesc@physx@@QAE@XZ 100e61f0 f i LowLevelDynamics_static_32:DyTGSDynamics.obj
 0001:000e5200       ??1?$PxcThreadCoherentCache@VThreadContext@Dy@physx@@VPxcNpMemBlockPool@3@@physx@@QAE@XZ 100e6200 f i LowLevelDynamics_static_32:DyTGSDynamics.obj
 0001:000e5260       ??1Context@Dy@physx@@MAE@XZ 100e6260 f i LowLevelDynamics_static_32:DyTGSDynamics.obj
 0001:000e5330       ??1ThreadContext@Dy@physx@@QAE@XZ 100e6330 f i LowLevelDynamics_static_32:DyTGSDynamics.obj
 0001:000e5550       ??_EArticulationTask@Dy@physx@@UAEPAXI@Z 100e6550 f i LowLevelDynamics_static_32:DyTGSDynamics.obj
 0001:000e5550       ??_GArticulationTask@Dy@physx@@UAEPAXI@Z 100e6550 f i LowLevelDynamics_static_32:DyTGSDynamics.obj
 0001:000e5580       ??_GContext@Dy@physx@@MAEPAXI@Z 100e6580 f i LowLevelDynamics_static_32:DyTGSDynamics.obj
 0001:000e5580       ??_EContext@Dy@physx@@MAEPAXI@Z 100e6580 f i LowLevelDynamics_static_32:DyTGSDynamics.obj
 0001:000e55b0       ??_GCopyBackTask@Dy@physx@@UAEPAXI@Z 100e65b0 f i LowLevelDynamics_static_32:DyTGSDynamics.obj
 0001:000e55b0       ??_ECopyBackTask@Dy@physx@@UAEPAXI@Z 100e65b0 f i LowLevelDynamics_static_32:DyTGSDynamics.obj
 0001:000e55e0       ??_EDynamicsMergeTask@Dy@physx@@UAEPAXI@Z 100e65e0 f i LowLevelDynamics_static_32:DyTGSDynamics.obj
 0001:000e55e0       ??_GDynamicsMergeTask@Dy@physx@@UAEPAXI@Z 100e65e0 f i LowLevelDynamics_static_32:DyTGSDynamics.obj
 0001:000e5610       ??_GDynamicsTGSContext@Dy@physx@@MAEPAXI@Z 100e6610 f i LowLevelDynamics_static_32:DyTGSDynamics.obj
 0001:000e5610       ??_EDynamicsTGSContext@Dy@physx@@MAEPAXI@Z 100e6610 f i LowLevelDynamics_static_32:DyTGSDynamics.obj
 0001:000e5640       ??_GEndIslandTask@Dy@physx@@UAEPAXI@Z 100e6640 f i LowLevelDynamics_static_32:DyTGSDynamics.obj
 0001:000e5640       ??_EEndIslandTask@Dy@physx@@UAEPAXI@Z 100e6640 f i LowLevelDynamics_static_32:DyTGSDynamics.obj
 0001:000e5670       ??_GFinishSolveIslandTask@Dy@physx@@UAEPAXI@Z 100e6670 f i LowLevelDynamics_static_32:DyTGSDynamics.obj
 0001:000e5670       ??_EFinishSolveIslandTask@Dy@physx@@UAEPAXI@Z 100e6670 f i LowLevelDynamics_static_32:DyTGSDynamics.obj
 0001:000e56a0       ??_GKinematicCopyTGSTask@Dy@physx@@UAEPAXI@Z 100e66a0 f i LowLevelDynamics_static_32:DyTGSDynamics.obj
 0001:000e56a0       ??_EKinematicCopyTGSTask@Dy@physx@@UAEPAXI@Z 100e66a0 f i LowLevelDynamics_static_32:DyTGSDynamics.obj
 0001:000e56d0       ??_EParallelSolveTask@Dy@physx@@UAEPAXI@Z 100e66d0 f i LowLevelDynamics_static_32:DyTGSDynamics.obj
 0001:000e56d0       ??_GParallelSolveTask@Dy@physx@@UAEPAXI@Z 100e66d0 f i LowLevelDynamics_static_32:DyTGSDynamics.obj
 0001:000e5700       ??_GPartitionTask@Dy@physx@@UAEPAXI@Z 100e6700 f i LowLevelDynamics_static_32:DyTGSDynamics.obj
 0001:000e5700       ??_EPartitionTask@Dy@physx@@UAEPAXI@Z 100e6700 f i LowLevelDynamics_static_32:DyTGSDynamics.obj
 0001:000e5730       ??_GPreIntegrateParallelTask@Dy@physx@@UAEPAXI@Z 100e6730 f i LowLevelDynamics_static_32:DyTGSDynamics.obj
 0001:000e5730       ??_EPreIntegrateParallelTask@Dy@physx@@UAEPAXI@Z 100e6730 f i LowLevelDynamics_static_32:DyTGSDynamics.obj
 0001:000e5760       ??_GPreIntegrateTask@Dy@physx@@UAEPAXI@Z 100e6760 f i LowLevelDynamics_static_32:DyTGSDynamics.obj
 0001:000e5760       ??_EPreIntegrateTask@Dy@physx@@UAEPAXI@Z 100e6760 f i LowLevelDynamics_static_32:DyTGSDynamics.obj
 0001:000e5790       ??_EPxsCreateArticConstraintsSubTask@Dy@physx@@UAEPAXI@Z 100e6790 f i LowLevelDynamics_static_32:DyTGSDynamics.obj
 0001:000e5790       ??_GPxsCreateArticConstraintsSubTask@Dy@physx@@UAEPAXI@Z 100e6790 f i LowLevelDynamics_static_32:DyTGSDynamics.obj
 0001:000e57c0       ??_GSetStepperTask@Dy@physx@@UAEPAXI@Z 100e67c0 f i LowLevelDynamics_static_32:DyTGSDynamics.obj
 0001:000e57c0       ??_ESetStepperTask@Dy@physx@@UAEPAXI@Z 100e67c0 f i LowLevelDynamics_static_32:DyTGSDynamics.obj
 0001:000e57f0       ??_GSetupArticulationInternalConstraintsTask@Dy@physx@@UAEPAXI@Z 100e67f0 f i LowLevelDynamics_static_32:DyTGSDynamics.obj
 0001:000e57f0       ??_ESetupArticulationInternalConstraintsTask@Dy@physx@@UAEPAXI@Z 100e67f0 f i LowLevelDynamics_static_32:DyTGSDynamics.obj
 0001:000e5820       ??_GSetupArticulationTask@Dy@physx@@UAEPAXI@Z 100e6820 f i LowLevelDynamics_static_32:DyTGSDynamics.obj
 0001:000e5820       ??_ESetupArticulationTask@Dy@physx@@UAEPAXI@Z 100e6820 f i LowLevelDynamics_static_32:DyTGSDynamics.obj
 0001:000e5850       ??_ESetupDescsTask@Dy@physx@@UAEPAXI@Z 100e6850 f i LowLevelDynamics_static_32:DyTGSDynamics.obj
 0001:000e5850       ??_GSetupDescsTask@Dy@physx@@UAEPAXI@Z 100e6850 f i LowLevelDynamics_static_32:DyTGSDynamics.obj
 0001:000e5880       ??_GSetupSolverConstraintsSubTask@Dy@physx@@UAEPAXI@Z 100e6880 f i LowLevelDynamics_static_32:DyTGSDynamics.obj
 0001:000e5880       ??_ESetupSolverConstraintsSubTask@Dy@physx@@UAEPAXI@Z 100e6880 f i LowLevelDynamics_static_32:DyTGSDynamics.obj
 0001:000e58b0       ??_ESetupSolverConstraintsTask@Dy@physx@@UAEPAXI@Z 100e68b0 f i LowLevelDynamics_static_32:DyTGSDynamics.obj
 0001:000e58b0       ??_GSetupSolverConstraintsTask@Dy@physx@@UAEPAXI@Z 100e68b0 f i LowLevelDynamics_static_32:DyTGSDynamics.obj
 0001:000e58e0       ??_GSolveIslandTask@Dy@physx@@UAEPAXI@Z 100e68e0 f i LowLevelDynamics_static_32:DyTGSDynamics.obj
 0001:000e58e0       ??_ESolveIslandTask@Dy@physx@@UAEPAXI@Z 100e68e0 f i LowLevelDynamics_static_32:DyTGSDynamics.obj
 0001:000e5910       ??_GUpdateArticTask@Dy@physx@@UAEPAXI@Z 100e6910 f i LowLevelDynamics_static_32:DyTGSDynamics.obj
 0001:000e5910       ??_EUpdateArticTask@Dy@physx@@UAEPAXI@Z 100e6910 f i LowLevelDynamics_static_32:DyTGSDynamics.obj
 0001:000e5940       ??_GUpdateContinuationTGSTask@Dy@physx@@UAEPAXI@Z 100e6940 f i LowLevelDynamics_static_32:DyTGSDynamics.obj
 0001:000e5940       ??_EUpdateContinuationTGSTask@Dy@physx@@UAEPAXI@Z 100e6940 f i LowLevelDynamics_static_32:DyTGSDynamics.obj
 0001:000e5970       ?allocate@FlushPool@Cm@physx@@QAEPAXII@Z 100e6970 f i LowLevelDynamics_static_32:DyTGSDynamics.obj
 0001:000e5a60       ?copy@?$Array@VSpatialVector@Cm@physx@@VNamedAllocator@shdfnd@3@@shdfnd@physx@@KAXPAVSpatialVector@Cm@3@0PBV453@@Z 100e6a60 f i LowLevelDynamics_static_32:DyTGSDynamics.obj
 0001:000e5ad0       ?get@?$PxcThreadCoherentCache@VThreadContext@Dy@physx@@VPxcNpMemBlockPool@3@@physx@@QAEPAVThreadContext@Dy@2@XZ 100e6ad0 f i LowLevelDynamics_static_32:DyTGSDynamics.obj
 0001:000e5b60       ?getDataStreamBase@DynamicsTGSContext@Dy@physx@@UAEXAAPAX00@Z 100e6b60 f i LowLevelDynamics_static_32:DyTGSDynamics.obj
 0001:000e5b70       ?getName@ArticulationTask@Dy@physx@@UBEPBDXZ 100e6b70 f i LowLevelDynamics_static_32:DyTGSDynamics.obj
 0001:000e5b80       ?getName@CopyBackTask@Dy@physx@@UBEPBDXZ 100e6b80 f i LowLevelDynamics_static_32:DyTGSDynamics.obj
 0001:000e5b90       ?getName@DynamicsMergeTask@Dy@physx@@UBEPBDXZ 100e6b90 f i LowLevelDynamics_static_32:DyTGSDynamics.obj
 0001:000e5ba0       ?getName@EndIslandTask@Dy@physx@@UBEPBDXZ 100e6ba0 f i LowLevelDynamics_static_32:DyTGSDynamics.obj
 0001:000e5bb0       ?getName@FinishSolveIslandTask@Dy@physx@@UBEPBDXZ 100e6bb0 f i LowLevelDynamics_static_32:DyTGSDynamics.obj
 0001:000e5bc0       ?getName@KinematicCopyTGSTask@Dy@physx@@UBEPBDXZ 100e6bc0 f i LowLevelDynamics_static_32:DyTGSDynamics.obj
 0001:000e5bd0       ?getName@ParallelSolveTask@Dy@physx@@UBEPBDXZ 100e6bd0 f i LowLevelDynamics_static_32:DyTGSDynamics.obj
 0001:000e5be0       ?getName@PartitionTask@Dy@physx@@UBEPBDXZ 100e6be0 f i LowLevelDynamics_static_32:DyTGSDynamics.obj
 0001:000e5bf0       ?getName@PreIntegrateParallelTask@Dy@physx@@UBEPBDXZ 100e6bf0 f i LowLevelDynamics_static_32:DyTGSDynamics.obj
 0001:000e5c00       ?getName@PreIntegrateTask@Dy@physx@@UBEPBDXZ 100e6c00 f i LowLevelDynamics_static_32:DyTGSDynamics.obj
 0001:000e5c10       ?getName@PxsCreateArticConstraintsSubTask@Dy@physx@@UBEPBDXZ 100e6c10 f i LowLevelDynamics_static_32:DyTGSDynamics.obj
 0001:000e5c20       ?getName@SetStepperTask@Dy@physx@@UBEPBDXZ 100e6c20 f i LowLevelDynamics_static_32:DyTGSDynamics.obj
 0001:000e5c30       ?getName@SetupArticulationInternalConstraintsTask@Dy@physx@@UBEPBDXZ 100e6c30 f i LowLevelDynamics_static_32:DyTGSDynamics.obj
 0001:000e5c40       ?getName@SetupArticulationTask@Dy@physx@@UBEPBDXZ 100e6c40 f i LowLevelDynamics_static_32:DyTGSDynamics.obj
 0001:000e5c50       ?getName@SetupDescsTask@Dy@physx@@UBEPBDXZ 100e6c50 f i LowLevelDynamics_static_32:DyTGSDynamics.obj
 0001:000e5c60       ?getName@SetupSolverConstraintsSubTask@Dy@physx@@UBEPBDXZ 100e6c60 f i LowLevelDynamics_static_32:DyTGSDynamics.obj
 0001:000e5c70       ?getName@SetupSolverConstraintsTask@Dy@physx@@UBEPBDXZ 100e6c70 f i LowLevelDynamics_static_32:DyTGSDynamics.obj
 0001:000e5c80       ?getName@SolveIslandTask@Dy@physx@@UBEPBDXZ 100e6c80 f i LowLevelDynamics_static_32:DyTGSDynamics.obj
 0001:000e5c90       ?getName@UpdateArticTask@Dy@physx@@UBEPBDXZ 100e6c90 f i LowLevelDynamics_static_32:DyTGSDynamics.obj
 0001:000e5ca0       ?getName@UpdateContinuationTGSTask@Dy@physx@@UBEPBDXZ 100e6ca0 f i LowLevelDynamics_static_32:DyTGSDynamics.obj
 0001:000e5cb0       ?processLostPatches@DynamicsTGSContext@Dy@physx@@UAEXAAVSimpleIslandManager@IG@3@PAPAVPxsContactManager@3@IAAVPxsContactManagerOutputIterator@3@@Z 100e6cb0 f i LowLevelDynamics_static_32:DyTGSDynamics.obj
 0001:000e5cc0       ?recreate@?$Array@PAUPxsBodyCore@physx@@VNamedAllocator@shdfnd@2@@shdfnd@physx@@IAEXI@Z 100e6cc0 f i LowLevelDynamics_static_32:DyTGSDynamics.obj
 0001:000e5d40       ?recreate@?$Array@PAVArticulationV@Dy@physx@@VNamedAllocator@shdfnd@3@@shdfnd@physx@@IAEXI@Z 100e6d40 f i LowLevelDynamics_static_32:DyTGSDynamics.obj
 0001:000e5dc0       ?recreate@?$Array@PAVPxsRigidBody@physx@@VNamedAllocator@shdfnd@2@@shdfnd@physx@@IAEXI@Z 100e6dc0 f i LowLevelDynamics_static_32:DyTGSDynamics.obj
 0001:000e5e40       ?recreate@?$Array@UPxConstraintBatchHeader@physx@@VNamedAllocator@shdfnd@2@@shdfnd@physx@@IAEXI@Z 100e6e40 f i LowLevelDynamics_static_32:DyTGSDynamics.obj
 0001:000e5ed0       ?recreate@?$Array@UPxSolverConstraintDesc@physx@@V?$AlignedAllocator@$0IA@V?$ReflectionAllocator@UPxSolverConstraintDesc@physx@@@shdfnd@physx@@@shdfnd@2@@shdfnd@physx@@IAEXI@Z 100e6ed0 f i LowLevelDynamics_static_32:DyTGSDynamics.obj
 0001:000e5fc0       ?recreate@?$Array@UPxTGSSolverBodyData@physx@@V?$AlignedAllocator@$0IA@V?$ReflectionAllocator@UPxTGSSolverBodyData@physx@@@shdfnd@physx@@@shdfnd@2@@shdfnd@physx@@IAEXI@Z 100e6fc0 f i LowLevelDynamics_static_32:DyTGSDynamics.obj
 0001:000e6110       ?recreate@?$Array@UPxTGSSolverBodyTxInertia@physx@@V?$AlignedAllocator@$0IA@V?$ReflectionAllocator@UPxTGSSolverBodyTxInertia@physx@@@shdfnd@physx@@@shdfnd@2@@shdfnd@physx@@IAEXI@Z 100e7110 f i LowLevelDynamics_static_32:DyTGSDynamics.obj
 0001:000e6260       ?recreate@?$Array@UPxTGSSolverBodyVel@physx@@V?$AlignedAllocator@$0IA@V?$ReflectionAllocator@UPxTGSSolverBodyVel@physx@@@shdfnd@physx@@@shdfnd@2@@shdfnd@physx@@IAEXI@Z 100e7260 f i LowLevelDynamics_static_32:DyTGSDynamics.obj
 0001:000e63d0       ?recreate@?$Array@UPxsIndexedContactManager@physx@@VNamedAllocator@shdfnd@2@@shdfnd@physx@@IAEXI@Z 100e73d0 f i LowLevelDynamics_static_32:DyTGSDynamics.obj
 0001:000e6450       ?recreate@?$Array@UThresholdStreamElement@Dy@physx@@VVirtualAllocator@shdfnd@3@@shdfnd@physx@@IAEXI@Z 100e7450 f i LowLevelDynamics_static_32:DyTGSDynamics.obj
 0001:000e64f0       ?recreate@?$Array@VSpatialVector@Cm@physx@@VNamedAllocator@shdfnd@3@@shdfnd@physx@@IAEXI@Z 100e74f0 f i LowLevelDynamics_static_32:DyTGSDynamics.obj
 0001:000e6570       ?release@DynamicsMergeTask@Dy@physx@@UAEXXZ 100e7570 f i LowLevelDynamics_static_32:DyTGSDynamics.obj
 0001:000e6590       ?release@SetStepperTask@Dy@physx@@UAEXXZ 100e7590 f i LowLevelDynamics_static_32:DyTGSDynamics.obj
 0001:000e65b0       ?resize@?$Array@IVNamedAllocator@shdfnd@physx@@@shdfnd@physx@@QAEXIABI@Z 100e75b0 f i LowLevelDynamics_static_32:DyTGSDynamics.obj
 0001:000e6650       ?resize@?$Array@UPxTGSSolverBodyData@physx@@V?$AlignedAllocator@$0IA@V?$ReflectionAllocator@UPxTGSSolverBodyData@physx@@@shdfnd@physx@@@shdfnd@2@@shdfnd@physx@@QAEXIABUPxTGSSolverBodyData@3@@Z 100e7650 f i LowLevelDynamics_static_32:DyTGSDynamics.obj
 0001:000e66f0       ?resize@?$Array@UPxTGSSolverBodyTxInertia@physx@@V?$AlignedAllocator@$0IA@V?$ReflectionAllocator@UPxTGSSolverBodyTxInertia@physx@@@shdfnd@physx@@@shdfnd@2@@shdfnd@physx@@QAEXIABUPxTGSSolverBodyTxInertia@3@@Z 100e76f0 f i LowLevelDynamics_static_32:DyTGSDynamics.obj
 0001:000e67a0       ?resize@?$Array@UPxTGSSolverBodyVel@physx@@V?$AlignedAllocator@$0IA@V?$ReflectionAllocator@UPxTGSSolverBodyVel@physx@@@shdfnd@physx@@@shdfnd@2@@shdfnd@physx@@QAEXIABUPxTGSSolverBodyVel@3@@Z 100e77a0 f i LowLevelDynamics_static_32:DyTGSDynamics.obj
 0001:000e6870       ?runInternal@ArticulationTask@Dy@physx@@UAEXXZ 100e7870 f i LowLevelDynamics_static_32:DyTGSDynamics.obj
 0001:000e6960       ?runInternal@CopyBackTask@Dy@physx@@UAEXXZ 100e7960 f i LowLevelDynamics_static_32:DyTGSDynamics.obj
 0001:000e6990       ?runInternal@DynamicsMergeTask@Dy@physx@@UAEXXZ 100e7990 f i LowLevelDynamics_static_32:DyTGSDynamics.obj
 0001:000e69a0       ?runInternal@EndIslandTask@Dy@physx@@UAEXXZ 100e79a0 f i LowLevelDynamics_static_32:DyTGSDynamics.obj
 0001:000e69c0       ?runInternal@FinishSolveIslandTask@Dy@physx@@UAEXXZ 100e79c0 f i LowLevelDynamics_static_32:DyTGSDynamics.obj
 0001:000e69e0       ?runInternal@KinematicCopyTGSTask@Dy@physx@@UAEXXZ 100e79e0 f i LowLevelDynamics_static_32:DyTGSDynamics.obj
 0001:000e6bb0       ?runInternal@ParallelSolveTask@Dy@physx@@UAEXXZ 100e7bb0 f i LowLevelDynamics_static_32:DyTGSDynamics.obj
 0001:000e6c00       ?runInternal@PartitionTask@Dy@physx@@UAEXXZ 100e7c00 f i LowLevelDynamics_static_32:DyTGSDynamics.obj
 0001:000e7000       ?runInternal@PreIntegrateParallelTask@Dy@physx@@UAEXXZ 100e8000 f i LowLevelDynamics_static_32:DyTGSDynamics.obj
 0001:000e7070       ?runInternal@PreIntegrateTask@Dy@physx@@UAEXXZ 100e8070 f i LowLevelDynamics_static_32:DyTGSDynamics.obj
 0001:000e7360       ?runInternal@PxsCreateArticConstraintsSubTask@Dy@physx@@UAEXXZ 100e8360 f i LowLevelDynamics_static_32:DyTGSDynamics.obj
 0001:000e7490       ?runInternal@SetStepperTask@Dy@physx@@UAEXXZ 100e8490 f i LowLevelDynamics_static_32:DyTGSDynamics.obj
 0001:000e7500       ?runInternal@SetupArticulationInternalConstraintsTask@Dy@physx@@UAEXXZ 100e8500 f i LowLevelDynamics_static_32:DyTGSDynamics.obj
 0001:000e7680       ?runInternal@SetupArticulationTask@Dy@physx@@UAEXXZ 100e8680 f i LowLevelDynamics_static_32:DyTGSDynamics.obj
 0001:000e76e0       ?runInternal@SetupDescsTask@Dy@physx@@UAEXXZ 100e86e0 f i LowLevelDynamics_static_32:DyTGSDynamics.obj
 0001:000e7710       ?runInternal@SetupSolverConstraintsSubTask@Dy@physx@@UAEXXZ 100e8710 f i LowLevelDynamics_static_32:DyTGSDynamics.obj
 0001:000e7790       ?runInternal@SetupSolverConstraintsTask@Dy@physx@@UAEXXZ 100e8790 f i LowLevelDynamics_static_32:DyTGSDynamics.obj
 0001:000e7bd0       ?runInternal@SolveIslandTask@Dy@physx@@UAEXXZ 100e8bd0 f i LowLevelDynamics_static_32:DyTGSDynamics.obj
 0001:000e8050       ?runInternal@UpdateArticTask@Dy@physx@@UAEXXZ 100e9050 f i LowLevelDynamics_static_32:DyTGSDynamics.obj
 0001:000e80b0       ?runInternal@UpdateContinuationTGSTask@Dy@physx@@UAEXXZ 100e90b0 f i LowLevelDynamics_static_32:DyTGSDynamics.obj
 0001:000e80d0       ?setSimulationController@DynamicsTGSContext@Dy@physx@@UAEXPAVPxsSimulationController@3@@Z 100e90d0 f i LowLevelDynamics_static_32:DyTGSDynamics.obj
