 PhysXCooking_32

 Timestamp is 5f539c99 (Sat Sep  5 16:11:37 2020)

 Preferred load address is 10000000

 Start         Length     Name                   Class
 0001:00000000 00000640H .text$di                CODE
 0001:00000640 00066654H .text$mn                CODE
 0001:00066c94 00000047H .text$x                 CODE
 0002:00000000 00000158H .idata$5                DATA
 0002:00000158 00000008H .00cfg                  DATA
 0002:00000160 00000004H .CRT$XCA                DATA
 0002:00000164 000000f0H .CRT$XCU                DATA
 0002:00000254 00000004H .CRT$XCZ                DATA
 0002:00000258 00000004H .CRT$XIA                DATA
 0002:0000025c 0000000cH .CRT$XIC                DATA
 0002:00000268 00000004H .CRT$XIZ                DATA
 0002:0000026c 00000004H .CRT$XPA                DATA
 0002:00000270 00000008H .CRT$XPX                DATA
 0002:00000278 00000004H .CRT$XPXA               DATA
 0002:0000027c 00000004H .CRT$XPZ                DATA
 0002:00000280 00000004H .CRT$XTA                DATA
 0002:00000284 0000000cH .CRT$XTZ                DATA
 0002:00000288 00000000H .gfids$y                DATA
 0002:00000290 0000a550H .rdata                  DATA
 0002:0000a7e0 000002a0H .rdata$r                DATA
 0002:0000aa80 0000001cH .rdata$sxdata           DATA
 0002:0000aa9c 000003d0H .rdata$zzzdbg           DATA
 0002:0000ae6c 00000004H .rtc$IAA                DATA
 0002:0000ae70 00000004H .rtc$IZZ                DATA
 0002:0000ae74 00000004H .rtc$TAA                DATA
 0002:0000ae78 00000008H .rtc$TZZ                DATA
 0002:0000ae80 000008acH .xdata$x                DATA
 0002:0000b72c 00000040H .didat$2                DATA
 0002:0000b76c 00000020H .didat$3                DATA
 0002:0000b78c 000000e0H .didat$4                DATA
 0002:0000b86c 00000a68H .didat$6                DATA
 0002:0000c2d4 000000ecH .didat$7                DATA
 0002:0000c3c0 00001c68H .edata                  DATA
 0002:0000e028 00000014H .idata$2                DATA
 0002:0000e03c 00000014H .idata$3                DATA
 0002:0000e050 00000158H .idata$4                DATA
 0002:0000e1a8 0000063aH .idata$6                DATA
 0003:00000000 00000900H .data                   DATA
 0003:00000900 00000348H .data$r                 DATA
 0003:00000c48 000000e8H .didat$5                DATA
 0003:00000d30 00001678H .bss                    DATA
 0004:00000000 00002608H _RDATA                  DATA
 0005:00000000 000000a0H .rsrc$01                DATA
 0005:000000a0 000004b0H .rsrc$02                DATA

  Address         Publics by Value              Rva+Base       Lib:Object

 0000:00000000       ___guard_fids_table        00000000     <absolute>
 0000:00000000       ___arm64x_native_entrypoint 00000000     <absolute>
 0000:00000000       ___guard_iat_table         00000000     <absolute>
 0000:00000000       ___x64_code_ranges_to_entry_points_count 00000000     <absolute>
 0000:00000000       ___guard_longjmp_table     00000000     <absolute>
 0000:00000000       ___AbsoluteZero            00000000     <absolute>
 0000:00000000       ___x64_code_ranges_to_entry_points 00000000     <absolute>
 0000:00000000       ___guard_iat_count         00000000     <absolute>
 0000:00000000       ___volatile_metadata       00000000     <absolute>
 0000:00000000       ___enclave_config          00000000     <absolute>
 0000:00000000       ___guard_eh_cont_count     00000000     <absolute>
 0000:00000000       ___arm64x_redirection_metadata_count 00000000     <absolute>
 0000:00000000       __except_list              00000000     <absolute>
 0000:00000000       ___arm64x_redirection_metadata 00000000     <absolute>
 0000:00000000       ___hybrid_code_map_count   00000000     <absolute>
 0000:00000000       ___hybrid_auxiliary_iat    00000000     <absolute>
 0000:00000000       ___hybrid_code_map         00000000     <absolute>
 0000:00000000       ___guard_fids_count        00000000     <absolute>
 0000:00000000       ___arm64x_extra_rfe_table_size 00000000     <absolute>
 0000:00000000       ___dynamic_value_reloc_table 00000000     <absolute>
 0000:00000000       ___arm64x_extra_rfe_table  00000000     <absolute>
 0000:00000000       ___guard_eh_cont_table     00000000     <absolute>
 0000:00000000       ___guard_longjmp_count     00000000     <absolute>
 0000:00000007       ___safe_se_handler_count   00000007     <absolute>
 0000:00000100       ___guard_flags             00000100     <absolute>
 0000:00000000       ___ImageBase               10000000     <linker-defined>
 0001:00000640       ?ComputeNbBoundaryEdges@AdjTriangle@physx@@QBEIXZ 10001640 f   Adjacencies.obj
 0001:00000680       ?ComputeNbNeighbors@AdjTriangle@physx@@QBEIXZ 10001680 f   Adjacencies.obj
 0001:000006c0       ?HasNeighbor@AdjTriangle@physx@@QBE_NIPAI@Z 100016c0 f   Adjacencies.obj
 0001:00000740       ?Flip@AdjTriangle@physx@@QAEXXZ 10001740 f   Adjacencies.obj
 0001:00000750       ??0Adjacencies@physx@@QAE@XZ 10001750 f   Adjacencies.obj
 0001:00000760       ??1Adjacencies@physx@@QAE@XZ 10001760 f   Adjacencies.obj
 0001:000007a0       ?Load@Adjacencies@physx@@QAE_NAAVPxInputStream@2@@Z 100017a0 f   Adjacencies.obj
 0001:00000880       ?ComputeNbBoundaryEdges@Adjacencies@physx@@QBEIXZ 10001880 f   Adjacencies.obj
 0001:000008f0       ?GetBoundaryVertices@Adjacencies@physx@@QBE_NIPA_NPBU?$TriangleT@I@Gu@2@@Z 100018f0 f   Adjacencies.obj
 0001:00000a40       ?MakeLastRef@Adjacencies@physx@@QAE_NAAVAdjTriangle@2@IPAU?$TriangleT@I@Gu@2@@Z 10001a40 f   Adjacencies.obj
 0001:00000c00       ?AssignNewEdgeCode@Adjacencies@physx@@AAEXIE@Z 10001c00 f   Adjacencies.obj
 0001:00000c40       ??0AdjacenciesBuilder@physx@@QAE@XZ 10001c40 f   Adjacencies.obj
 0001:00000c50       ??1AdjacenciesBuilder@physx@@QAE@XZ 10001c50 f   Adjacencies.obj
 0001:00000c90       ?Init@AdjacenciesBuilder@physx@@QAE_NABUADJACENCIESCREATE@2@@Z 10001c90 f   Adjacencies.obj
 0001:00001000       ??0AdjEdge@@QAE@XZ         10002000 f i Adjacencies.obj
 0001:00001010       ??0AdjTriangle@physx@@QAE@XZ 10002010 f i Adjacencies.obj
 0001:00001020       ??0Allocator@shdfnd@physx@@QAE@PBD@Z 10002020 f i Adjacencies.obj
 0001:00001030       ??0PxFoundation@physx@@QAE@ABV01@@Z 10002030 f i Adjacencies.obj
 0001:00001040       ??0PxFoundation@physx@@QAE@XZ 10002040 f i Adjacencies.obj
 0001:00001050       ??1AdjEdge@@QAE@XZ         10002050 f i Adjacencies.obj
 0001:00001060       ??1AdjTriangle@physx@@QAE@XZ 10002060 f i Adjacencies.obj
 0001:00001070       ??1PxFoundation@physx@@MAE@XZ 10002070 f i Adjacencies.obj
 0001:00001080       ??4Allocator@shdfnd@physx@@QAEAAV012@$$QAV012@@Z 10002080 f i Adjacencies.obj
 0001:00001090       ??4Allocator@shdfnd@physx@@QAEAAV012@ABV012@@Z 10002090 f i Adjacencies.obj
 0001:000010a0       ??4MutexImpl@shdfnd@physx@@QAEAAV012@ABV012@@Z 100020a0 f i Adjacencies.obj
 0001:000010b0       ??4PxFoundation@physx@@QAEAAV01@ABV01@@Z 100020b0 f i Adjacencies.obj
 0001:000010c0       ??_EAdjEdge@@QAEPAXI@Z     100020c0 f i Adjacencies.obj
 0001:00001130       ??_EAdjTriangle@physx@@QAEPAXI@Z 10002130 f i Adjacencies.obj
 0001:000011a0       ??_EPxFoundation@physx@@MAEPAXI@Z 100021a0 f i Adjacencies.obj
 0001:00001210       ??_FAllocator@shdfnd@physx@@QAEXXZ 10002210 f i Adjacencies.obj
 0001:00001220       ??_FNamedAllocator@shdfnd@physx@@QAEXXZ 10002220 f i Adjacencies.obj
 0001:00001230       ??_GPxFoundation@physx@@MAEPAXI@Z 10002230 f i Adjacencies.obj
 0001:00001260       ??_H@YGXPAXIIP6EPAX0@Z@Z   10002260 f i Adjacencies.obj
 0001:00001290       ??_I@YGXPAXIIP6EX0@Z@Z     10002290 f i Adjacencies.obj
 0001:000014c0       ?GetNbHits@RadixSort@Cm@physx@@QBEIXZ 100024c0 f i Adjacencies.obj
 0001:000014d0       ?GetNbTotalCalls@RadixSort@Cm@physx@@QBEIXZ 100024d0 f i Adjacencies.obj
 0001:000014e0       ?GetRanks@RadixSort@Cm@physx@@QBEPBIXZ 100024e0 f i Adjacencies.obj
 0001:000014f0       ?GetRecyclable@RadixSort@Cm@physx@@QBEPAIXZ 100024f0 f i Adjacencies.obj
 0001:000016a0       ?__empty_global_delete@@YAXPAX@Z 100026a0 f i Adjacencies.obj
 0001:000016b0       ?__empty_global_delete@@YAXPAXI@Z 100026b0 f i Adjacencies.obj
 0001:000016c0       ?getAllocator@Foundation@shdfnd@physx@@QAEAAVPxAllocatorCallback@3@XZ 100026c0 f i Adjacencies.obj
 0001:000016d0       ?getAllocatorCallback@Foundation@shdfnd@physx@@UAEAAVPxAllocatorCallback@3@XZ 100026d0 f i Adjacencies.obj
 0001:000016e0       ?getErrorCallback@Foundation@shdfnd@physx@@UAEAAVPxErrorCallback@3@XZ 100026e0 f i Adjacencies.obj
 0001:000016f0       ?getErrorLevel@Foundation@shdfnd@physx@@UBE?AW4Enum@PxErrorCode@3@XZ 100026f0 f i Adjacencies.obj
 0001:00001700       ?getInternalErrorCallback@Foundation@shdfnd@physx@@QAEAAVPxErrorCallback@3@XZ 10002700 f i Adjacencies.obj
 0001:00001710       ?getNamedAllocMap@Foundation@shdfnd@physx@@QAEAAV?$HashMap@PBVNamedAllocator@shdfnd@physx@@PBDU?$Hash@PBVNamedAllocator@shdfnd@physx@@@23@VNonTrackingAllocator@23@@23@XZ 10002710 f i Adjacencies.obj
 0001:00001720       ?getNamedAllocMutex@Foundation@shdfnd@physx@@QAEAAV?$MutexT@VAllocator@shdfnd@physx@@@23@XZ 10002720 f i Adjacencies.obj
 0001:00001730       ?getReportAllocationNames@Foundation@shdfnd@physx@@UBE_NXZ 10002730 f i Adjacencies.obj
 0001:00001740       ?getTempAllocFreeTable@Foundation@shdfnd@physx@@QAEAAV?$Array@PATTempAllocatorChunk@shdfnd@physx@@VAllocator@23@@23@XZ 10002740 f i Adjacencies.obj
 0001:00001750       ?getTempAllocMutex@Foundation@shdfnd@physx@@QAEAAV?$MutexT@VAllocator@shdfnd@physx@@@23@XZ 10002750 f i Adjacencies.obj
 0001:00001760       ?invalidateRanks@RadixSort@Cm@physx@@QAEXXZ 10002760 f i Adjacencies.obj
 0001:00001770       ?setErrorLevel@Foundation@shdfnd@physx@@UAEXW4Enum@PxErrorCode@3@@Z 10002770 f i Adjacencies.obj
 0001:00001780       ?setReportAllocationNames@Foundation@shdfnd@physx@@UAEX_N@Z 10002780 f i Adjacencies.obj
 0001:00001790       _PxCreateCooking           10002790 f   Cooking.obj
 0001:00001850       ?release@Cooking@physx@@UAEXXZ 10002850 f   Cooking.obj
 0001:00001860       ?setParams@Cooking@physx@@UAEXABUPxCookingParams@2@@Z 10002860 f   Cooking.obj
 0001:000018c0       ?getParams@Cooking@physx@@UBEABUPxCookingParams@2@XZ 100028c0 f   Cooking.obj
 0001:000018d0       ?platformMismatch@Cooking@physx@@UBE_NXZ 100028d0 f   Cooking.obj
 0001:000018e0       ?cookTriangleMesh@Cooking@physx@@UBE_NABVPxTriangleMeshDesc@2@AAVPxOutputStream@2@PAW4Enum@PxTriangleMeshCookingResult@2@@Z 100028e0 f   Cooking.obj
 0001:000019f0       ?createTriangleMesh@Cooking@physx@@UBEPAVPxTriangleMesh@2@ABVPxTriangleMeshDesc@2@AAVPxPhysicsInsertionCallback@2@PAW4Enum@PxTriangleMeshCookingResult@2@@Z 100029f0 f   Cooking.obj
 0001:00001a70       ?validateTriangleMesh@Cooking@physx@@UBE_NABVPxTriangleMeshDesc@2@@Z 10002a70 f   Cooking.obj
 0001:00001b50       ?cookConvexMesh@Cooking@physx@@UBE_NABVPxConvexMeshDesc@2@AAVPxOutputStream@2@PAW4Enum@PxConvexMeshCookingResult@2@@Z 10002b50 f   Cooking.obj
 0001:00001cd0       ?createConvexMesh@Cooking@physx@@UBEPAVPxConvexMesh@2@ABVPxConvexMeshDesc@2@AAVPxPhysicsInsertionCallback@2@PAW4Enum@PxConvexMeshCookingResult@2@@Z 10002cd0 f   Cooking.obj
 0001:00001e70       ?validateConvexMesh@Cooking@physx@@UBE_NABVPxConvexMeshDesc@2@@Z 10002e70 f   Cooking.obj
 0001:00001ec0       ?computeHullPolygons@Cooking@physx@@UBE_NABVPxSimpleTriangleMesh@2@AAVPxAllocatorCallback@2@AAIAAPAVPxVec3@2@2AAPAI2AAPAUPxHullPolygon@2@@Z 10002ec0 f   Cooking.obj
 0001:00001ff0       ?cookHeightField@Cooking@physx@@UBE_NABVPxHeightFieldDesc@2@AAVPxOutputStream@2@@Z 10002ff0 f   Cooking.obj
 0001:000020d0       ?createHeightField@Cooking@physx@@UBEPAVPxHeightField@2@ABVPxHeightFieldDesc@2@AAVPxPhysicsInsertionCallback@2@@Z 100030d0 f   Cooking.obj
 0001:00002250       ?cookBVHStructure@Cooking@physx@@UBE_NABVPxBVHStructureDesc@2@AAVPxOutputStream@2@@Z 10003250 f   Cooking.obj
 0001:00002320       ?createBVHStructure@Cooking@physx@@UBEPAVPxBVHStructure@2@ABVPxBVHStructureDesc@2@AAVPxPhysicsInsertionCallback@2@@Z 10003320 f   Cooking.obj
 0001:000023f0       ?cookConvexMeshInternal@Cooking@physx@@ABE_NABVPxConvexMeshDesc@2@AAVConvexMeshBuilder@2@PAVConvexHullLib@2@PAW4Enum@PxConvexMeshCookingResult@2@@Z 100033f0 f   Cooking.obj
 0001:000025c0       ?cookTriangleMesh@Cooking@physx@@ABE_NAAVTriangleMeshBuilder@2@ABVPxTriangleMeshDesc@2@AAVPxOutputStream@2@PAW4Enum@PxTriangleMeshCookingResult@2@@Z 100035c0 f   Cooking.obj
 0001:00002640       ?createTriangleMesh@Cooking@physx@@ABEPAVPxTriangleMesh@2@AAVTriangleMeshBuilder@2@ABVPxTriangleMeshDesc@2@AAVPxPhysicsInsertionCallback@2@PAW4Enum@PxTriangleMeshCookingResult@2@@Z 10003640 f   Cooking.obj
 0001:000026d0       ??0DebugText@Cm@physx@@QAE@$$QAU012@@Z 100036d0 f i Cooking.obj
 0001:00002720       ??0DebugText@Cm@physx@@QAE@ABU012@@Z 10003720 f i Cooking.obj
 0001:00002770       ??0HeightFieldData@Gu@physx@@QAE@$$QAU012@@Z 10003770 f i Cooking.obj
 0001:000027e0       ??0HeightFieldData@Gu@physx@@QAE@ABU012@@Z 100037e0 f i Cooking.obj
 0001:00002850       ??0HeightFieldData@Gu@physx@@QAE@W4PxEMPTY@2@@Z 10003850 f i Cooking.obj
 0001:00002860       ??0HeightFieldData@Gu@physx@@QAE@XZ 10003860 f i Cooking.obj
 0001:00002870       ??0PxConvexMeshDesc@physx@@QAE@ABV01@@Z 10003870 f i Cooking.obj
 0001:000028c0       ??0RenderOutput@Cm@physx@@QAE@AAVRenderBuffer@12@@Z 100038c0 f i Cooking.obj
 0001:00002980       ??0RenderOutput@Cm@physx@@QAE@ABV012@@Z 10003980 f i Cooking.obj
 0001:00002a30       ??1HeightFieldData@Gu@physx@@QAE@XZ 10003a30 f i Cooking.obj
 0001:00002a40       ??1PxBase@physx@@MAE@XZ    10003a40 f i Cooking.obj
 0001:00002a50       ??1PxConvexMesh@physx@@MAE@XZ 10003a50 f i Cooking.obj
 0001:00002a60       ??1PxCooking@physx@@MAE@XZ 10003a60 f i Cooking.obj
 0001:00002a70       ??1PxHeightField@physx@@MAE@XZ 10003a70 f i Cooking.obj
 0001:00002a80       ??4DebugText@Cm@physx@@QAEAAU012@$$QAU012@@Z 10003a80 f i Cooking.obj
 0001:00002b10       ??4DebugText@Cm@physx@@QAEAAU012@ABU012@@Z 10003b10 f i Cooking.obj
 0001:00002ba0       ??4FPUGuard@shdfnd@physx@@QAEAAV012@ABV012@@Z 10003ba0 f i Cooking.obj
 0001:00002bc0       ??4HeightFieldData@Gu@physx@@QAEAAU012@$$QAU012@@Z 10003bc0 f i Cooking.obj
 0001:00002c30       ??4HeightFieldData@Gu@physx@@QAEAAU012@ABU012@@Z 10003c30 f i Cooking.obj
 0001:00002ca0       ??_GCooking@physx@@UAEPAXI@Z 10003ca0 f i Cooking.obj
 0001:00002ca0       ??_ECooking@physx@@UAEPAXI@Z 10003ca0 f i Cooking.obj
 0001:00002ce0       ??_EPxBase@physx@@MAEPAXI@Z 10003ce0 f i Cooking.obj
 0001:00002ce0       ??_GPxBase@physx@@MAEPAXI@Z 10003ce0 f i Cooking.obj
 0001:00002d10       ??_GPxCooking@physx@@MAEPAXI@Z 10003d10 f i Cooking.obj
 0001:00002d10       ??_EPxCooking@physx@@MAEPAXI@Z 10003d10 f i Cooking.obj
 0001:00002d40       ?copy@?$Array@UPxDebugLine@physx@@VNamedAllocator@shdfnd@2@@shdfnd@physx@@KAXPAUPxDebugLine@3@0PBU43@@Z 10003d40 f i Cooking.obj
 0001:00002db0       ?getConcreteTypeName@PxConvexMesh@physx@@UBEPBDXZ 10003db0 f i Cooking.obj
 0001:00002dc0       ?getConcreteTypeName@PxHeightField@physx@@UBEPBDXZ 10003dc0 f i Cooking.obj
 0001:00002dd0       ?getConvexEdgeThreshold@HeightField@Gu@physx@@UBEMXZ 10003dd0 f i Cooking.obj
 0001:00002de0       ?getFlags@HeightField@Gu@physx@@UBE?AV?$PxFlags@W4Enum@PxHeightFieldFlag@physx@@G@3@XZ 10003de0 f i Cooking.obj
 0001:00002df0       ?getFormat@HeightField@Gu@physx@@UBE?AW4Enum@PxHeightFieldFormat@3@XZ 10003df0 f i Cooking.obj
 0001:00002e00       ?getHeight@HeightField@Gu@physx@@UBEMMM@Z 10003e00 f i Cooking.obj
 0001:00002e60       ?getHeightInternal2@HeightField@Gu@physx@@QBEMIMM@Z 10003e60 f i Cooking.obj
 0001:00002fb0       ?getIndexBuffer@ConvexMesh@Gu@physx@@UBEPBEXZ 10003fb0 f i Cooking.obj
 0001:00002ff0       ?getNbColumns@HeightField@Gu@physx@@UBEIXZ 10003ff0 f i Cooking.obj
 0001:00003000       ?getNbPolygons@ConvexMesh@Gu@physx@@UBEIXZ 10004000 f i Cooking.obj
 0001:00003010       ?getNbRows@HeightField@Gu@physx@@UBEIXZ 10004010 f i Cooking.obj
 0001:00003020       ?getNbVertices@ConvexMesh@Gu@physx@@UBEIXZ 10004020 f i Cooking.obj
 0001:00003030       ?getPaddedBounds@HeightFieldData@Gu@physx@@QBEABVCenterExtentsPadded@23@XZ 10004030 f i Cooking.obj
 0001:00003040       ?getSample@HeightField@Gu@physx@@UBEABUPxHeightFieldSample@3@II@Z 10004040 f i Cooking.obj
 0001:00003060       ?getSampleStride@HeightField@Gu@physx@@UBEIXZ 10004060 f i Cooking.obj
 0001:00003070       ?getTimestamp@HeightField@Gu@physx@@UBEIXZ 10004070 f i Cooking.obj
 0001:00003080       ?getTriangleMaterialIndex@HeightField@Gu@physx@@UBEGI@Z 10004080 f i Cooking.obj
 0001:000030b0       ?getTriangleNormal@HeightField@Gu@physx@@UBE?AVPxVec3@3@I@Z 100040b0 f i Cooking.obj
 0001:000031a0       ?getVertices@ConvexMesh@Gu@physx@@UBEPBVPxVec3@3@XZ 100041a0 f i Cooking.obj
 0001:000031b0       ?isKindOf@PxBase@physx@@MBE_NPBD@Z 100041b0 f i Cooking.obj
 0001:00003200       ?isKindOf@PxConvexMesh@physx@@MBE_NPBD@Z 10004200 f i Cooking.obj
 0001:00003280       ?isKindOf@PxHeightField@physx@@MBE_NPBD@Z 10004280 f i Cooking.obj
 0001:00003300       ?isReleasable@PxBase@physx@@UBE_NXZ 10004300 f i Cooking.obj
 0001:00003310       ?outputSegment@RenderOutput@Cm@physx@@QAEXABVPxVec3@3@0@Z 10004310 f i Cooking.obj
 0001:000033a0       ?preExportDataReset@ConvexMesh@Gu@physx@@QAEXXZ 100043a0 f i Cooking.obj
 0001:000033b0       ?preExportDataReset@HeightField@Gu@physx@@QAEXXZ 100043b0 f i Cooking.obj
 0001:000033c0       ?recreate@?$Array@UPxDebugLine@physx@@VNamedAllocator@shdfnd@2@@shdfnd@physx@@IAEXI@Z 100043c0 f i Cooking.obj
 0001:00003430       ?reserveSegments@RenderOutput@Cm@physx@@QAEPAUPxDebugLine@3@I@Z 10004430 f i Cooking.obj
 0001:00003490       ??0ReducedVertexCloud@physx@@QAE@PBVPxVec3@1@I@Z 10004490 f   CookingUtils.obj
 0001:000034c0       ??1ReducedVertexCloud@physx@@QAE@XZ 100044c0 f   CookingUtils.obj
 0001:00003500       ?Clean@ReducedVertexCloud@physx@@QAEAAV12@XZ 10004500 f   CookingUtils.obj
 0001:00003540       ?Reduce@ReducedVertexCloud@physx@@QAE_NPAUREDUCEDCLOUD@2@@Z 10004540 f   CookingUtils.obj
 0001:000037e0       ??0EdgeList@Gu@physx@@QAE@XZ 100047e0 f   EdgeList.obj
 0001:00003810       ??1EdgeList@Gu@physx@@QAE@XZ 10004810 f   EdgeList.obj
 0001:00003890       ?load@EdgeList@Gu@physx@@QAE_NAAVPxInputStream@3@@Z 10004890 f   EdgeList.obj
 0001:000039f0       ??0EdgeListBuilder@Gu@physx@@QAE@XZ 100049f0 f   EdgeList.obj
 0001:00003a20       ??1EdgeListBuilder@Gu@physx@@QAE@XZ 10004a20 f   EdgeList.obj
 0001:00003a30       ?init@EdgeListBuilder@Gu@physx@@QAE_NABUEDGELISTCREATE@23@@Z 10004a30 f   EdgeList.obj
 0001:00003b10       ?createFacesToEdges@EdgeListBuilder@Gu@physx@@AAE_NIPBIPBG@Z 10004b10 f   EdgeList.obj
 0001:00003ee0       ?createEdgesToFaces@EdgeListBuilder@Gu@physx@@AAE_NIPBIPBG@Z 10004ee0 f   EdgeList.obj
 0001:000040a0       ?computeActiveEdges@EdgeListBuilder@Gu@physx@@AAE_NIPBIPBGPBVPxVec3@3@M@Z 100050a0 f   EdgeList.obj
 0001:00005860       ??$?_UI@@YAPAXIV?$ReflectionAllocator@I@shdfnd@physx@@PBDH@Z 10006860 f i EdgeList.obj
 0001:000058c0       ??0PxVec3@physx@@QAE@XZ    100068c0 f i EdgeList.obj
 0001:000058d0       ??0MeshCleaner@physx@@QAE@IPBVPxVec3@1@IPBIM@Z 100068d0 f   MeshCleaner.obj
 0001:00006160       ??1MeshCleaner@physx@@QAE@XZ 10007160 f   MeshCleaner.obj
 0001:000061c0       ?createQuantizer@physx@@YAPAVQuantizer@1@XZ 100071c0 f   Quantizer.obj
 0001:000062c0       ?kmeans_cluster3d@@YAIPBVPxVec3@physx@@IIPAV12@PAIMM@Z 100072c0 f   Quantizer.obj
 0001:00006300       ??$kmeans_cluster@VPxVec3@physx@@M@@YAIPBVPxVec3@physx@@IIPAV01@PAIMM@Z 10007300 f i Quantizer.obj
 0001:00006910       ??1Quantizer@physx@@MAE@XZ 10007910 f i Quantizer.obj
 0001:00006920       ??1QuantizerImpl@@EAE@XZ   10007920 f i Quantizer.obj
 0001:00006980       ??_EQuantizer@physx@@MAEPAXI@Z 10007980 f i Quantizer.obj
 0001:00006980       ??_GQuantizer@physx@@MAEPAXI@Z 10007980 f i Quantizer.obj
 0001:000069b0       ??_EQuantizerImpl@@EAEPAXI@Z 100079b0 f i Quantizer.obj
 0001:000069b0       ??_GQuantizerImpl@@EAEPAXI@Z 100079b0 f i Quantizer.obj
 0001:00006a40       ?getDenormalizeCenter@QuantizerImpl@@UBEABVPxVec3@physx@@XZ 10007a40 f i Quantizer.obj
 0001:00006a50       ?getDenormalizeScale@QuantizerImpl@@UBEABVPxVec3@physx@@XZ 10007a50 f i Quantizer.obj
 0001:00006a60       ?growAndPushBack@?$Array@VPxVec3@physx@@VNamedAllocator@shdfnd@2@@shdfnd@physx@@IAEAAVPxVec3@3@ABV43@@Z 10007a60 f i Quantizer.obj
 0001:00006be0       ?kmeansQuantize3D@QuantizerImpl@@UAEPBVPxVec3@physx@@IPBV23@I_NIAAI@Z 10007be0 f i Quantizer.obj
 0001:00006de0       ?normalizeInput@QuantizerImpl@@AAEXIPBVPxVec3@physx@@I@Z 10007de0 f i Quantizer.obj
 0001:00007060       ?release@QuantizerImpl@@UAEXXZ 10008060 f i Quantizer.obj
 0001:00007070       ??0BVHStructureBuilder@physx@@QAE@XZ 10008070 f   BVHStructureBuilder.obj
 0001:000070a0       ??1BVHStructureBuilder@physx@@QAE@XZ 100080a0 f   BVHStructureBuilder.obj
 0001:00007100       ?loadFromDesc@BVHStructureBuilder@physx@@QAE_NABVPxBVHStructureDesc@2@@Z 10008100 f   BVHStructureBuilder.obj
 0001:00007410       ?save@BVHStructureBuilder@physx@@QBE_NAAVPxOutputStream@2@_N@Z 10008410 f   BVHStructureBuilder.obj
 0001:00007520       ?moveData@BVHStructureBuilder@physx@@QAEXAAUBVHStructureData@Gu@2@@Z 10008520 f   BVHStructureBuilder.obj
 0001:00007570       ?flatten@@YAXABVNodeAllocator@Gu@physx@@PAUBVHNode@23@@Z 10008570 f   BVHStructureBuilder.obj
 0001:000076d0       ??$copy@VNamedAllocator@shdfnd@physx@@@?$Array@USlab@NodeAllocator@Gu@physx@@VNamedAllocator@shdfnd@4@@shdfnd@physx@@IAEXABV012@@Z 100086d0 f i BVHStructureBuilder.obj
 0001:00007770       ??0AABBTreeBuildNode@Gu@physx@@QAE@ABV012@@Z 10008770 f i BVHStructureBuilder.obj
 0001:000077b0       ??0AABBTreeBuildNode@Gu@physx@@QAE@XZ 100087b0 f i BVHStructureBuilder.obj
 0001:000077c0       ??0AABBTreeBuildParams@Gu@physx@@QAE@IIPBVPxBounds3@2@@Z 100087c0 f i BVHStructureBuilder.obj
 0001:000077e0       ??0BuildStats@Gu@physx@@QAE@XZ 100087e0 f i BVHStructureBuilder.obj
 0001:000077f0       ??0NodeAllocator@Gu@physx@@QAE@ABV012@@Z 100087f0 f i BVHStructureBuilder.obj
 0001:00007840       ??1AABBTreeBuildNode@Gu@physx@@QAE@XZ 10008840 f i BVHStructureBuilder.obj
 0001:00007850       ??1AABBTreeBuildParams@Gu@physx@@QAE@XZ 10008850 f i BVHStructureBuilder.obj
 0001:00007890       ??4AABBTreeBuildNode@Gu@physx@@QAEAAV012@ABV012@@Z 10008890 f i BVHStructureBuilder.obj
 0001:000078d0       ??4AABBTreeBuildParams@Gu@physx@@QAEAAV012@ABV012@@Z 100088d0 f i BVHStructureBuilder.obj
 0001:000078e0       ??4BuildStats@Gu@physx@@QAEAAU012@$$QAU012@@Z 100088e0 f i BVHStructureBuilder.obj
 0001:00007900       ??4BuildStats@Gu@physx@@QAEAAU012@ABU012@@Z 10008900 f i BVHStructureBuilder.obj
 0001:00007920       ??4NodeAllocator@Gu@physx@@QAEAAV012@ABV012@@Z 10008920 f i BVHStructureBuilder.obj
 0001:000079b0       ??_FAABBTreeBuildParams@Gu@physx@@QAEXXZ 100089b0 f i BVHStructureBuilder.obj
 0001:000079d0       ?__global_array_delete@@YAXPAX@Z 100089d0 f i BVHStructureBuilder.obj
 0001:000079e0       ?__global_array_delete@@YAXPAXI@Z 100089e0 f i BVHStructureBuilder.obj
 0001:000079f0       ?__global_delete@@YAXPAX@Z 100089f0 f i BVHStructureBuilder.obj
 0001:00007a00       ?__global_delete@@YAXPAXI@Z 10008a00 f i BVHStructureBuilder.obj
 0001:00007a10       ?getAABB@AABBTreeBuildNode@Gu@physx@@QBEABVPxBounds3@3@XZ 10008a10 f i BVHStructureBuilder.obj
 0001:00007a20       ?getCount@BuildStats@Gu@physx@@QBEIXZ 10008a20 f i BVHStructureBuilder.obj
 0001:00007a30       ?getNbPrimitives@AABBTreeBuildNode@Gu@physx@@QBEIXZ 10008a30 f i BVHStructureBuilder.obj
 0001:00007a40       ?getNbRuntimePrimitives@AABBTreeBuildNode@Gu@physx@@QBEIXZ 10008a40 f i BVHStructureBuilder.obj
 0001:00007a50       ?getNeg@AABBTreeBuildNode@Gu@physx@@QBEPBV123@XZ 10008a50 f i BVHStructureBuilder.obj
 0001:00007a60       ?getPos@AABBTreeBuildNode@Gu@physx@@QBEPBV123@XZ 10008a60 f i BVHStructureBuilder.obj
 0001:00007a70       ?getPrimitives@AABBTreeBuildNode@Gu@physx@@QAEPAIPAI@Z 10008a70 f i BVHStructureBuilder.obj
 0001:00007a80       ?getPrimitives@AABBTreeBuildNode@Gu@physx@@QBEPBIPBI@Z 10008a80 f i BVHStructureBuilder.obj
 0001:00007a90       ?increaseCount@BuildStats@Gu@physx@@QAEXI@Z 10008a90 f i BVHStructureBuilder.obj
 0001:00007aa0       ?isLeaf@AABBTreeBuildNode@Gu@physx@@QBE_NXZ 10008aa0 f i BVHStructureBuilder.obj
 0001:00007ab0       ?recreate@?$Array@USlab@NodeAllocator@Gu@physx@@VNamedAllocator@shdfnd@4@@shdfnd@physx@@IAEXI@Z 10008ab0 f i BVHStructureBuilder.obj
 0001:00007b50       ?reset@AABBTreeBuildParams@Gu@physx@@QAEXXZ 10008b50 f i BVHStructureBuilder.obj
 0001:00007b90       ?reset@BuildStats@Gu@physx@@QAEXXZ 10008b90 f i BVHStructureBuilder.obj
 0001:00007ba0       ?setCount@BuildStats@Gu@physx@@QAEXI@Z 10008ba0 f i BVHStructureBuilder.obj
 0001:00007bb0       ?setNbRunTimePrimitives@AABBTreeBuildNode@Gu@physx@@QAEXI@Z 10008bb0 f i BVHStructureBuilder.obj
 0001:00007bc0       ?saveHeightField@physx@@YA_NABVHeightField@Gu@1@AAVPxOutputStream@1@_N@Z 10008bc0 f   HeightFieldCooking.obj
 0001:00007da0       ?buildFromTriangles@RTreeCooker@physx@@SAXAAURTree@Gu@2@PBVPxVec3@2@IPBGPBIIAAV?$Array@IVNamedAllocator@shdfnd@physx@@@shdfnd@2@PAURemapCallback@12@MW4Enum@PxMeshCookingHint@2@@Z 10008da0 f   RTreeCooking.obj
 0001:00007fe0       ??$partition@UBoundsLTE@physx@@@quickSelect@physx@@YAIPIAIIIIABUBoundsLTE@1@@Z 10008fe0 f i RTreeCooking.obj
 0001:00008060       ??$quickSelectFirstK@UBoundsLTE@physx@@@quickSelect@physx@@YAXPIAIIIIABUBoundsLTE@1@@Z 10009060 f i RTreeCooking.obj
 0001:00008130       ??$sort@I@shdfnd@physx@@YAXPAII@Z 10009130 f i RTreeCooking.obj
 0001:00008160       ??$sort@IU?$Less@I@shdfnd@physx@@VNamedAllocator@23@@shdfnd@physx@@YAXPAIIABU?$Less@I@01@ABVNamedAllocator@01@I@Z 10009160 f i RTreeCooking.obj
 0001:00008470       ??$sort@IUSortBoundsPredicate@physx@@@shdfnd@physx@@YAXPAIIABUSortBoundsPredicate@1@@Z 10009470 f i RTreeCooking.obj
 0001:000084a0       ??$sort@IUSortBoundsPredicate@physx@@VNamedAllocator@shdfnd@2@@shdfnd@physx@@YAXPAIIABUSortBoundsPredicate@1@ABVNamedAllocator@01@I@Z 100094a0 f i RTreeCooking.obj
 0001:000088e0       ??0?$InlineArray@UInterval@physx@@$0EAA@VNamedAllocator@shdfnd@2@@shdfnd@physx@@QAE@ABVNamedAllocator@12@@Z 100098e0 f i RTreeCooking.obj
 0001:000089a0       ?allocate@?$Array@UInterval@physx@@V?$InlineAllocator@$0CAAA@VNamedAllocator@shdfnd@physx@@@shdfnd@2@@shdfnd@physx@@IAEPAUInterval@3@I@Z 100099a0 f i RTreeCooking.obj
 0001:000097c0       ?copy@?$Array@URTreeNodeNQ@physx@@VNamedAllocator@shdfnd@2@@shdfnd@physx@@KAXPAURTreeNodeNQ@3@0PBU43@@Z 1000a7c0 f i RTreeCooking.obj
 0001:00009830       ?copy@?$Array@VPxVec3@physx@@VNamedAllocator@shdfnd@2@@shdfnd@physx@@KAXPAVPxVec3@3@0PBV43@@Z 1000a830 f i RTreeCooking.obj
 0001:000098f0       ?growAndPushBack@?$Array@IVNamedAllocator@shdfnd@physx@@@shdfnd@physx@@IAEAAIABI@Z 1000a8f0 f i RTreeCooking.obj
 0001:000099a0       ?growAndPushBack@?$Array@UInterval@physx@@V?$InlineAllocator@$0CAAA@VNamedAllocator@shdfnd@physx@@@shdfnd@2@@shdfnd@physx@@IAEAAUInterval@3@ABU43@@Z 1000a9a0 f i RTreeCooking.obj
 0001:00009a60       ?growAndPushBack@?$Array@UPxBounds3V@physx@@VNamedAllocator@shdfnd@2@@shdfnd@physx@@IAEAAUPxBounds3V@3@ABU43@@Z 1000aa60 f i RTreeCooking.obj
 0001:00009b20       ?growAndPushBack@?$Array@URTreeNodeNQ@physx@@VNamedAllocator@shdfnd@2@@shdfnd@physx@@IAEAAURTreeNodeNQ@3@ABU43@@Z 1000ab20 f i RTreeCooking.obj
 0001:00009bf0       ?growAndPushBack@?$Array@URTreeNodeQ@Gu@physx@@VNamedAllocator@shdfnd@3@@shdfnd@physx@@IAEAAURTreeNodeQ@Gu@3@ABU453@@Z 1000abf0 f i RTreeCooking.obj
 0001:00009ce0       ?recreate@?$Array@IVNamedAllocator@shdfnd@physx@@@shdfnd@physx@@IAEXI@Z 1000ace0 f i RTreeCooking.obj
 0001:00009d60       ?recreate@?$Array@UPxBounds3V@physx@@VNamedAllocator@shdfnd@2@@shdfnd@physx@@IAEXI@Z 1000ad60 f i RTreeCooking.obj
 0001:00009df0       ?recreate@?$Array@URTreeNodeNQ@physx@@VNamedAllocator@shdfnd@2@@shdfnd@physx@@IAEXI@Z 1000adf0 f i RTreeCooking.obj
 0001:00009e60       ?recreate@?$Array@URTreeNodeQ@Gu@physx@@VNamedAllocator@shdfnd@3@@shdfnd@physx@@IAEXI@Z 1000ae60 f i RTreeCooking.obj
 0001:00009f00       ?recreate@?$Array@VPxVec3@physx@@VNamedAllocator@shdfnd@2@@shdfnd@physx@@IAEXI@Z 1000af00 f i RTreeCooking.obj
 0001:00009f80       ?resize@?$Array@IVNamedAllocator@shdfnd@physx@@@shdfnd@physx@@QAEXIABI@Z 1000af80 f i RTreeCooking.obj
 0001:0000a020       ?resizeUninitialized@?$Array@URTreeNodeNQ@physx@@VNamedAllocator@shdfnd@2@@shdfnd@physx@@QAEXI@Z 1000b020 f i RTreeCooking.obj
 0001:0000a050       ?sort4@SubSortQuick@physx@@QAEXPIAIIAAV?$Array@URTreeNodeNQ@physx@@VNamedAllocator@shdfnd@2@@shdfnd@2@AAIAAUPxBounds3V@2@I@Z 1000b050 f i RTreeCooking.obj
 0001:0000a460       ?sort4@SubSortSAH@physx@@QAEXPAIIAAV?$Array@URTreeNodeNQ@physx@@VNamedAllocator@shdfnd@2@@shdfnd@2@AAIIPAURTreeNodeNQ@2@@Z 1000b460 f i RTreeCooking.obj
 0001:0000ac40       ?split@SubSortSAH@physx@@QAEIPAII@Z 1000bc40 f i RTreeCooking.obj
 0001:0000b090       ?computeLocalBounds@MeshBulider@physx@@IAEXAAVMeshDataBase@Gu@2@@Z 1000c090 f   MeshBuilder.obj
 0001:0000b110       ??0TriangleMeshBuilder@physx@@QAE@AAVTriangleMeshData@Gu@1@ABUPxCookingParams@1@@Z 1000c110 f   TriangleMeshBuilder.obj
 0001:0000b130       ??1TriangleMeshBuilder@physx@@UAE@XZ 1000c130 f   TriangleMeshBuilder.obj
 0001:0000b160       ?cleanMesh@TriangleMeshBuilder@physx@@QAE_N_NPAW4Enum@PxTriangleMeshCookingResult@2@@Z 1000c160 f   TriangleMeshBuilder.obj
 0001:0000b560       ?remapTopology@TriangleMeshBuilder@physx@@QAEXPBI@Z 1000c560 f   TriangleMeshBuilder.obj
 0001:0000b7b0       ?createSharedEdgeData@TriangleMeshBuilder@physx@@QAEX_N0@Z 1000c7b0 f   TriangleMeshBuilder.obj
 0001:0000bb70       ?recordTriangleIndices@TriangleMeshBuilder@physx@@QAEXXZ 1000cb70 f   TriangleMeshBuilder.obj
 0001:0000bbf0       ?createGRBMidPhaseAndData@TriangleMeshBuilder@physx@@QAEXI@Z 1000cbf0 f   TriangleMeshBuilder.obj
 0001:0000bee0       ?createGRBData@TriangleMeshBuilder@physx@@QAEXXZ 1000cee0 f   TriangleMeshBuilder.obj
 0001:0000bf80       ?loadFromDesc@TriangleMeshBuilder@physx@@QAE_NABVPxTriangleMeshDesc@2@PAW4Enum@PxTriangleMeshCookingResult@2@_N@Z 1000cf80 f   TriangleMeshBuilder.obj
 0001:0000c2a0       ?save@TriangleMeshBuilder@physx@@QBE_NAAVPxOutputStream@2@_NABUPxCookingParams@2@@Z 1000d2a0 f   TriangleMeshBuilder.obj
 0001:0000c7c0       ?checkMeshIndicesSize@TriangleMeshBuilder@physx@@QAEXXZ 1000d7c0 f   TriangleMeshBuilder.obj
 0001:0000c870       ?importMesh@TriangleMeshBuilder@physx@@IAE_NABVPxTriangleMeshDesc@2@ABUPxCookingParams@2@PAW4Enum@PxTriangleMeshCookingResult@2@_N@Z 1000d870 f   TriangleMeshBuilder.obj
 0001:0000cbf0       ?releaseEdgeList@TriangleMeshBuilder@physx@@IAEXXZ 1000dbf0 f   TriangleMeshBuilder.obj
 0001:0000cc20       ?createEdgeList@TriangleMeshBuilder@physx@@IAEXXZ 1000dc20 f   TriangleMeshBuilder.obj
 0001:0000cd00       ??0RTreeTriangleMeshBuilder@physx@@QAE@ABUPxCookingParams@1@@Z 1000dd00 f   TriangleMeshBuilder.obj
 0001:0000cd70       ??1RTreeTriangleMeshBuilder@physx@@UAE@XZ 1000dd70 f   TriangleMeshBuilder.obj
 0001:0000cdf0       ?createMidPhaseStructure@RTreeTriangleMeshBuilder@physx@@UAEXXZ 1000ddf0 f   TriangleMeshBuilder.obj
 0001:0000ced0       ?saveMidPhaseStructure@RTreeTriangleMeshBuilder@physx@@UBEXAAVPxOutputStream@2@_N@Z 1000ded0 f   TriangleMeshBuilder.obj
 0001:0000d060       ??0BV4TriangleMeshBuilder@physx@@QAE@ABUPxCookingParams@1@@Z 1000e060 f   TriangleMeshBuilder.obj
 0001:0000d0b0       ??1BV4TriangleMeshBuilder@physx@@UAE@XZ 1000e0b0 f   TriangleMeshBuilder.obj
 0001:0000d110       ?createMidPhaseStructure@BV4TriangleMeshBuilder@physx@@UAEXXZ 1000e110 f   TriangleMeshBuilder.obj
 0001:0000d310       ?saveMidPhaseStructure@BV4TriangleMeshBuilder@physx@@UBEXAAVPxOutputStream@2@_N@Z 1000e310 f   TriangleMeshBuilder.obj
 0001:0000d4b0       ?onMeshIndexFormatChange@BV4TriangleMeshBuilder@physx@@UAEXXZ 1000e4b0 f   TriangleMeshBuilder.obj
 0001:0000d4e0       ?createMidPhaseStructure@BV32TriangleMeshBuilder@physx@@SAXABUPxCookingParams@2@AAVTriangleMeshData@Gu@2@AAVBV32Tree@52@@Z 1000e4e0 f   TriangleMeshBuilder.obj
 0001:0000d610       ?saveMidPhaseStructure@BV32TriangleMeshBuilder@physx@@SAXPAVBV32Tree@Gu@2@AAVPxOutputStream@2@_N@Z 1000e610 f   TriangleMeshBuilder.obj
 0001:0000d770       ?findSharpVertices@GrbTrimeshCookerHelper@physx@@YAXAAV?$Array@USortedNeighbor@GrbTrimeshCookerHelper@physx@@VNamedAllocator@shdfnd@3@@shdfnd@2@AAV?$Array@USharpEdgeRange@GrbTrimeshCookerHelper@physx@@VNamedAllocator@shdfnd@3@@42@PBUuint3@2@PBUuint4@2@II@Z 1000e770 f   TriangleMeshBuilder.obj
 0001:0000dae0       ?buildVertexConnectionNew_p1@GrbTrimeshCookerHelper@physx@@YAIAAV?$Array@USortedNeighbor@GrbTrimeshCookerHelper@physx@@VNamedAllocator@shdfnd@3@@shdfnd@2@AAV?$Array@USharpEdgeRange@GrbTrimeshCookerHelper@physx@@VNamedAllocator@shdfnd@3@@42@PBUuint3@2@PBUuint4@2@II@Z 1000eae0 f   TriangleMeshBuilder.obj
 0001:0000dbf0       ?buildVertexConnectionNew_p2@GrbTrimeshCookerHelper@physx@@YAXPAI00AAV?$Array@USortedNeighbor@GrbTrimeshCookerHelper@physx@@VNamedAllocator@shdfnd@3@@shdfnd@2@AAV?$Array@USharpEdgeRange@GrbTrimeshCookerHelper@physx@@VNamedAllocator@shdfnd@3@@42@I@Z 1000ebf0 f   TriangleMeshBuilder.obj
 0001:0000dc70       ??$?_UG@@YAPAXIV?$ReflectionAllocator@G@shdfnd@physx@@PBDH@Z 1000ec70 f i TriangleMeshBuilder.obj
 0001:0000dcd0       ??$sort@UEdgeTriLookup@physx@@@shdfnd@physx@@YAXPAUEdgeTriLookup@1@I@Z 1000ecd0 f i TriangleMeshBuilder.obj
 0001:0000dd00       ??$sort@UEdgeTriLookup@physx@@U?$Less@UEdgeTriLookup@physx@@@shdfnd@2@VNamedAllocator@42@@shdfnd@physx@@YAXPAUEdgeTriLookup@1@IABU?$Less@UEdgeTriLookup@physx@@@01@ABVNamedAllocator@01@I@Z 1000ed00 f i TriangleMeshBuilder.obj
 0001:0000e0f0       ??$sort@USortedNeighbor@GrbTrimeshCookerHelper@physx@@@shdfnd@physx@@YAXPAUSortedNeighbor@GrbTrimeshCookerHelper@1@I@Z 1000f0f0 f i TriangleMeshBuilder.obj
 0001:0000e120       ??$sort@USortedNeighbor@GrbTrimeshCookerHelper@physx@@U?$Less@USortedNeighbor@GrbTrimeshCookerHelper@physx@@@shdfnd@3@VNamedAllocator@53@@shdfnd@physx@@YAXPAUSortedNeighbor@GrbTrimeshCookerHelper@1@IABU?$Less@USortedNeighbor@GrbTrimeshCookerHelper@physx@@@01@ABVNamedAllocator@01@I@Z 1000f120 f i TriangleMeshBuilder.obj
 0001:0000e590       ??0PxVec4@physx@@QAE@XZ    1000f590 f i TriangleMeshBuilder.obj
 0001:0000e5a0       ??0TriangleMeshData@Gu@physx@@QAE@XZ 1000f5a0 f i TriangleMeshBuilder.obj
 0001:0000e640       ??1BV4TriangleData@Gu@physx@@UAE@XZ 1000f640 f i TriangleMeshBuilder.obj
 0001:0000e670       ??1MeshDataBase@Gu@physx@@UAE@XZ 1000f670 f i TriangleMeshBuilder.obj
 0001:0000e720       ??1RTreeTriangleData@Gu@physx@@UAE@XZ 1000f720 f i TriangleMeshBuilder.obj
 0001:0000e770       ??1RemapCallback@RTreeCooker@physx@@UAE@XZ 1000f770 f i TriangleMeshBuilder.obj
 0001:0000e780       ??1TriangleMeshData@Gu@physx@@UAE@XZ 1000f780 f i TriangleMeshBuilder.obj
 0001:0000e800       ??_EBV4TriangleData@Gu@physx@@UAEPAXI@Z 1000f800 f i TriangleMeshBuilder.obj
 0001:0000e800       ??_GBV4TriangleData@Gu@physx@@UAEPAXI@Z 1000f800 f i TriangleMeshBuilder.obj
 0001:0000e860       ??_EBV4TriangleMeshBuilder@physx@@UAEPAXI@Z 1000f860 f i TriangleMeshBuilder.obj
 0001:0000e860       ??_GBV4TriangleMeshBuilder@physx@@UAEPAXI@Z 1000f860 f i TriangleMeshBuilder.obj
 0001:0000e8d0       ??_GMeshDataBase@Gu@physx@@UAEPAXI@Z 1000f8d0 f i TriangleMeshBuilder.obj
 0001:0000e8d0       ??_EMeshDataBase@Gu@physx@@UAEPAXI@Z 1000f8d0 f i TriangleMeshBuilder.obj
 0001:0000e910       ??_ERTreeCookerRemap@physx@@UAEPAXI@Z 1000f910 f i TriangleMeshBuilder.obj
 0001:0000e910       ??_GRTreeCookerRemap@physx@@UAEPAXI@Z 1000f910 f i TriangleMeshBuilder.obj
 0001:0000e940       ??_ERTreeTriangleData@Gu@physx@@UAEPAXI@Z 1000f940 f i TriangleMeshBuilder.obj
 0001:0000e940       ??_GRTreeTriangleData@Gu@physx@@UAEPAXI@Z 1000f940 f i TriangleMeshBuilder.obj
 0001:0000e9c0       ??_GRTreeTriangleMeshBuilder@physx@@UAEPAXI@Z 1000f9c0 f i TriangleMeshBuilder.obj
 0001:0000e9c0       ??_ERTreeTriangleMeshBuilder@physx@@UAEPAXI@Z 1000f9c0 f i TriangleMeshBuilder.obj
 0001:0000ea50       ??_ERemapCallback@RTreeCooker@physx@@UAEPAXI@Z 1000fa50 f i TriangleMeshBuilder.obj
 0001:0000ea50       ??_GRemapCallback@RTreeCooker@physx@@UAEPAXI@Z 1000fa50 f i TriangleMeshBuilder.obj
 0001:0000ea80       ??_ETriangleMeshBuilder@physx@@UAEPAXI@Z 1000fa80 f i TriangleMeshBuilder.obj
 0001:0000ea80       ??_GTriangleMeshBuilder@physx@@UAEPAXI@Z 1000fa80 f i TriangleMeshBuilder.obj
 0001:0000ead0       ??_ETriangleMeshData@Gu@physx@@UAEPAXI@Z 1000fad0 f i TriangleMeshBuilder.obj
 0001:0000ead0       ??_GTriangleMeshData@Gu@physx@@UAEPAXI@Z 1000fad0 f i TriangleMeshBuilder.obj
 0001:0000eb10       ?allocateTriangles@TriangleMeshData@Gu@physx@@QAEPAXI_NI@Z 1000fb10 f i TriangleMeshBuilder.obj
 0001:0000f100       ?getMidphaseID@BV4TriangleMeshBuilder@physx@@UBE?AW4Enum@PxMeshMidPhase@2@XZ 10010100 f i TriangleMeshBuilder.obj
 0001:0000f110       ?getMidphaseID@RTreeTriangleMeshBuilder@physx@@UBE?AW4Enum@PxMeshMidPhase@2@XZ 10010110 f i TriangleMeshBuilder.obj
 0001:0000f120       ?growAndPushBack@?$Array@USortedNeighbor@GrbTrimeshCookerHelper@physx@@VNamedAllocator@shdfnd@3@@shdfnd@physx@@IAEAAUSortedNeighbor@GrbTrimeshCookerHelper@3@ABU453@@Z 10010120 f i TriangleMeshBuilder.obj
 0001:0000f1f0       ?onMeshIndexFormatChange@TriangleMeshBuilder@physx@@UAEXXZ 100101f0 f i TriangleMeshBuilder.obj
 0001:0000f200       ?recreate@?$Array@USharpEdgeRange@GrbTrimeshCookerHelper@physx@@VNamedAllocator@shdfnd@3@@shdfnd@physx@@IAEXI@Z 10010200 f i TriangleMeshBuilder.obj
 0001:0000f280       ?recreate@?$Array@USortedNeighbor@GrbTrimeshCookerHelper@physx@@VNamedAllocator@shdfnd@3@@shdfnd@physx@@IAEXI@Z 10010280 f i TriangleMeshBuilder.obj
 0001:0000f320       ?remap@RTreeCookerRemap@physx@@UAEXPAIII@Z 10010320 f i TriangleMeshBuilder.obj
 0001:0000f340       ?resize@?$Array@USharpEdgeRange@GrbTrimeshCookerHelper@physx@@VNamedAllocator@shdfnd@3@@shdfnd@physx@@QAEXIABUSharpEdgeRange@GrbTrimeshCookerHelper@3@@Z 10010340 f i TriangleMeshBuilder.obj
 0001:0000f390       ?resizeUninitialized@?$Array@USortedNeighbor@GrbTrimeshCookerHelper@physx@@VNamedAllocator@shdfnd@3@@shdfnd@physx@@QAEXI@Z 10010390 f i TriangleMeshBuilder.obj
 0001:0000f3c0       ??0BigConvexDataBuilder@physx@@QAE@PBUConvexHullData@Gu@1@PAVBigConvexData@1@PBVPxVec3@1@@Z 100103c0 f   BigConvexDataBuilder.obj
 0001:0000f3e0       ??1BigConvexDataBuilder@physx@@QAE@XZ 100103e0 f   BigConvexDataBuilder.obj
 0001:0000f3f0       ?precompute@BigConvexDataBuilder@physx@@QAE_NI@Z 100103f0 f   BigConvexDataBuilder.obj
 0001:0000fd60       ?initialize@BigConvexDataBuilder@physx@@QAE_NXZ 10010d60 f   BigConvexDataBuilder.obj
 0001:0000fdd0       ?save@BigConvexDataBuilder@physx@@QBE_NAAVPxOutputStream@2@_N@Z 10010dd0 f   BigConvexDataBuilder.obj
 0001:0000ff80       ?computeValencies@BigConvexDataBuilder@physx@@QAE_NABVConvexHullBuilder@2@@Z 10010f80 f   BigConvexDataBuilder.obj
 0001:000102f0       ?saveValencies@BigConvexDataBuilder@physx@@QBE_NAAVPxOutputStream@2@_N@Z 100112f0 f   BigConvexDataBuilder.obj
 0001:00010420       ??0BigConvexData@physx@@QAE@W4PxEMPTY@1@@Z 10011420 f i BigConvexDataBuilder.obj
 0001:00010430       ??4BigConvexData@physx@@QAEAAV01@ABV01@@Z 10011430 f i BigConvexDataBuilder.obj
 0001:00010450       ?GetAdjacentVerts@BigConvexData@physx@@QBEPBEXZ 10011450 f i BigConvexDataBuilder.obj
 0001:00010460       ?GetNbNeighbors@BigConvexData@physx@@QBEGI@Z 10011460 f i BigConvexDataBuilder.obj
 0001:00010470       ?GetNbSamples@BigConvexData@physx@@QBEIXZ 10011470 f i BigConvexDataBuilder.obj
 0001:00010480       ?GetNbVerts@BigConvexData@physx@@QBEIXZ 10011480 f i BigConvexDataBuilder.obj
 0001:00010490       ?GetNeighbors@BigConvexData@physx@@QBEPBEI@Z 10011490 f i BigConvexDataBuilder.obj
 0001:000104b0       ?GetOffset@BigConvexData@physx@@QBEGI@Z 100114b0 f i BigConvexDataBuilder.obj
 0001:000104c0       ?GetSubdiv@BigConvexData@physx@@QBEIXZ 100114c0 f i BigConvexDataBuilder.obj
 0001:000104d0       ?GetValencies@BigConvexData@physx@@QBEPBUValency@Gu@2@XZ 100114d0 f i BigConvexDataBuilder.obj
 0001:000104e0       ?GetValency@BigConvexData@physx@@QBEGI@Z 100114e0 f i BigConvexDataBuilder.obj
 0001:000104f0       ??0ConvexHullBuilder@physx@@QAE@PAUConvexHullData@Gu@1@_N@Z 100114f0 f   ConvexHullBuilder.obj
 0001:00010540       ??1ConvexHullBuilder@physx@@QAE@XZ 10011540 f   ConvexHullBuilder.obj
 0001:00010610       ?init@ConvexHullBuilder@physx@@QAE_NIPBVPxVec3@2@PBIIIPBUPxHullPolygon@2@_NPAVConvexHullLib@2@@Z 10011610 f   ConvexHullBuilder.obj
 0001:00010e60       ?save@ConvexHullBuilder@physx@@QBE_NAAVPxOutputStream@2@_N@Z 10011e60 f   ConvexHullBuilder.obj
 0001:00011110       ?copy@ConvexHullBuilder@physx@@QAE_NAAUConvexHullData@Gu@2@AAI@Z 10012110 f   ConvexHullBuilder.obj
 0001:00011320       ?createEdgeList@ConvexHullBuilder@physx@@QAE_N_NI@Z 10012320 f   ConvexHullBuilder.obj
 0001:00011a90       ?checkHullPolygons@ConvexHullBuilder@physx@@QBE_NXZ 10012a90 f   ConvexHullBuilder.obj
 0001:00011e90       ?calculateVertexMapTable@ConvexHullBuilder@physx@@QAE_NI_N@Z 10012e90 f   ConvexHullBuilder.obj
 0001:00012050       ?computeGeomCenter@ConvexHullBuilder@physx@@IBE_NAAVPxVec3@2@IPAUHullTriangleData@2@@Z 10013050 f   ConvexHullBuilder.obj
 0001:00012290       ??1ConvexHullLib@physx@@UAE@XZ 10013290 f   ConvexHullLib.obj
 0001:000122d0       ?cleanupVertices@ConvexHullLib@physx@@IAE_NIPBVPxVec3@2@IAAIPAV32@AAV32@3@Z 100132d0 f   ConvexHullLib.obj
 0001:00012680       ?shiftAndcleanupVertices@ConvexHullLib@physx@@IAE_NIPBVPxVec3@2@IAAIPAV32@AAV32@3@Z 10013680 f   ConvexHullLib.obj
 0001:00012810       ?swapLargestFace@ConvexHullLib@physx@@IAEXAAVPxConvexMeshDesc@2@@Z 10013810 f   ConvexHullLib.obj
 0001:00012a00       ?shiftConvexMeshDesc@ConvexHullLib@physx@@IAEXAAVPxConvexMeshDesc@2@@Z 10013a00 f   ConvexHullLib.obj
 0001:00012aa0       ??_EConvexHullLib@physx@@UAEPAXI@Z 10013aa0 f i ConvexHullLib.obj
 0001:00012aa0       ??_GConvexHullLib@physx@@UAEPAXI@Z 10013aa0 f i ConvexHullLib.obj
 0001:00012e00       ??0ConvexHull@physx@@QAE@ABVPxVec3@1@0ABV?$Array@VPxPlane@physx@@VNamedAllocator@shdfnd@2@@shdfnd@1@@Z 10013e00 f   ConvexHullUtils.obj
 0001:000138f0       ??0ConvexHull@physx@@QAE@ABVPxVec3@1@ABVPxTransform@1@ABV?$Array@VPxPlane@physx@@VNamedAllocator@shdfnd@2@@shdfnd@1@@Z 100148f0 f   ConvexHullUtils.obj
 0001:00014cd0       ?findCandidatePlane@ConvexHull@physx@@QBEHMM@Z 10015cd0 f   ConvexHullUtils.obj
 0001:00014f50       ?assertIntact@ConvexHull@physx@@QBE_NM@Z 10015f50 f   ConvexHullUtils.obj
 0001:00015220       ?maxNumVertsPerFace@ConvexHull@physx@@QBEIXZ 10016220 f   ConvexHullUtils.obj
 0001:000152a0       ?convexHullCrop@physx@@YAPAVConvexHull@1@ABV21@ABVPxPlane@1@M@Z 100162a0 f   ConvexHullUtils.obj
 0001:000164c0       ?computeOBBFromConvex@physx@@YA_NABVPxConvexMeshDesc@1@AAVPxVec3@1@AAVPxTransform@1@@Z 100174c0 f   ConvexHullUtils.obj
 0001:00016dc0       ?computeOBBSIMD@local@@YAXIPBT__m128@@AAT2@ABT2@1@Z 10017dc0 f   ConvexHullUtils.obj
 0001:00016fa0       ??0Box@Gu@physx@@QAE@ABV012@@Z 10017fa0 f i ConvexHullUtils.obj
 0001:00017010       ??0Box@Gu@physx@@QAE@ABVPxVec3@2@0ABVPxMat33@2@@Z 10018010 f i ConvexHullUtils.obj
 0001:00017080       ??0Box@Gu@physx@@QAE@XZ    10018080 f i ConvexHullUtils.obj
 0001:00017090       ??0HalfEdge@ConvexHull@physx@@QAE@XZ 10018090 f i ConvexHullUtils.obj
 0001:000170a0       ??0PxPlane@physx@@QAE@XZ   100180a0 f i ConvexHullUtils.obj
 0001:000170b0       ??0PxQuat@physx@@QAE@ABVPxMat33@1@@Z 100180b0 f i ConvexHullUtils.obj
 0001:00017270       ??1Box@Gu@physx@@QAE@XZ    10018270 f i ConvexHullUtils.obj
 0001:00017280       ??4Box@Gu@physx@@QAEABV012@ABV012@@Z 10018280 f i ConvexHullUtils.obj
 0001:000172f0       ?computeAABBExtent@Box@Gu@physx@@QBE?AVPxVec3@3@XZ 100182f0 f i ConvexHullUtils.obj
 0001:000173a0       ?computeBoxPoints@Box@Gu@physx@@QBEXPIAVPxVec3@3@@Z 100183a0 f i ConvexHullUtils.obj
 0001:000173c0       ?copy@?$Array@VPxPlane@physx@@VNamedAllocator@shdfnd@2@@shdfnd@physx@@KAXPAVPxPlane@3@0PBV43@@Z 100183c0 f i ConvexHullUtils.obj
 0001:00017410       ?getInverse@PxMat33@physx@@QBE?BV12@XZ 10018410 f i ConvexHullUtils.obj
 0001:00017660       ?getTransform@Box@Gu@physx@@QBE?AVPxTransform@3@XZ 10018660 f i ConvexHullUtils.obj
 0001:000176b0       ?growAndPushBack@?$Array@VHalfEdge@ConvexHull@physx@@VNamedAllocator@shdfnd@3@@shdfnd@physx@@IAEAAVHalfEdge@ConvexHull@3@ABV453@@Z 100186b0 f i ConvexHullUtils.obj
 0001:00017760       ?growAndPushBack@?$Array@VPxPlane@physx@@VNamedAllocator@shdfnd@2@@shdfnd@physx@@IAEAAVPxPlane@3@ABV43@@Z 10018760 f i ConvexHullUtils.obj
 0001:00017810       ?isValid@Box@Gu@physx@@QBE_NXZ 10018810 f i ConvexHullUtils.obj
 0001:00017830       ?recreate@?$Array@VHalfEdge@ConvexHull@physx@@VNamedAllocator@shdfnd@3@@shdfnd@physx@@IAEXI@Z 10018830 f i ConvexHullUtils.obj
 0001:000178b0       ?recreate@?$Array@VPxPlane@physx@@VNamedAllocator@shdfnd@2@@shdfnd@physx@@IAEXI@Z 100188b0 f i ConvexHullUtils.obj
 0001:00017920       ?resize@?$Array@VHalfEdge@ConvexHull@physx@@VNamedAllocator@shdfnd@3@@shdfnd@physx@@QAEXIABVHalfEdge@ConvexHull@3@@Z 10018920 f i ConvexHullUtils.obj
 0001:000179c0       ?resize@?$Array@VPxPlane@physx@@VNamedAllocator@shdfnd@2@@shdfnd@physx@@QAEXIABVPxPlane@3@@Z 100189c0 f i ConvexHullUtils.obj
 0001:00017ac0       ?resize@?$Array@VPxVec3@physx@@VNamedAllocator@shdfnd@2@@shdfnd@physx@@QAEXIABVPxVec3@3@@Z 10018ac0 f i ConvexHullUtils.obj
 0001:00017b90       ?rotate@Box@Gu@physx@@QBE?AVPxVec3@3@ABV43@@Z 10018b90 f i ConvexHullUtils.obj
 0001:00017c20       ?rotateInv@Box@Gu@physx@@QBE?AVPxVec3@3@ABV43@@Z 10018c20 f i ConvexHullUtils.obj
 0001:00017cb0       ?setAxes@Box@Gu@physx@@QAEXABVPxVec3@3@00@Z 10018cb0 f i ConvexHullUtils.obj
 0001:00017d00       ?setEmpty@Box@Gu@physx@@QAEXXZ 10018d00 f i ConvexHullUtils.obj
 0001:00017d70       ?transform@Box@Gu@physx@@QBE?AVPxVec3@3@ABV43@@Z 10018d70 f i ConvexHullUtils.obj
 0001:00017e10       ??0ConvexMeshBuilder@physx@@QAE@_N@Z 10018e10 f   ConvexMeshBuilder.obj
 0001:00017e70       ??1ConvexMeshBuilder@physx@@QAE@XZ 10018e70 f   ConvexMeshBuilder.obj
 0001:00017ea0       ?build@ConvexMeshBuilder@physx@@QAE_NABVPxConvexMeshDesc@2@I_NPAVConvexHullLib@2@@Z 10018ea0 f   ConvexMeshBuilder.obj
 0001:00018160       ?save@ConvexMeshBuilder@physx@@QBE_NAAVPxOutputStream@2@_N@Z 10019160 f   ConvexMeshBuilder.obj
 0001:00018350       ?copy@ConvexMeshBuilder@physx@@QAE_NAAUConvexHullInitData@Gu@2@@Z 10019350 f   ConvexMeshBuilder.obj
 0001:00018440       ?loadConvexHull@ConvexMeshBuilder@physx@@QAE_NABVPxConvexMeshDesc@2@PAVConvexHullLib@2@@Z 10019440 f   ConvexMeshBuilder.obj
 0001:00018620       ?computeHullPolygons@ConvexMeshBuilder@physx@@QAE_NABIPBVPxVec3@2@0PBIAAVPxAllocatorCallback@2@AAIAAPAV32@4AAPAI4AAPAUPxHullPolygon@2@@Z 10019620 f   ConvexMeshBuilder.obj
 0001:000187a0       ?computeGaussMaps@ConvexMeshBuilder@physx@@QAE_NXZ 100197a0 f   ConvexMeshBuilder.obj
 0001:00018870       ?computeMassInfo@ConvexMeshBuilder@physx@@QAEX_N@Z 10019870 f   ConvexMeshBuilder.obj
 0001:00018ce0       ?computeInternalObjects@ConvexMeshBuilder@physx@@QAEXXZ 10019ce0 f   ConvexMeshBuilder.obj
 0001:00019190       ?isFinite@PxVec3@physx@@QBE_NXZ 1001a190 f i ConvexMeshBuilder.obj
 0001:00019200       ??0ConvexPolygonsBuilder@physx@@QAE@PAUConvexHullData@Gu@1@_N@Z 1001a200 f   ConvexPolygonsBuilder.obj
 0001:00019230       ??1ConvexPolygonsBuilder@physx@@QAE@XZ 1001a230 f   ConvexPolygonsBuilder.obj
 0001:00019260       ?computeHullPolygons@ConvexPolygonsBuilder@physx@@QAE_NABIPBVPxVec3@2@0PBI@Z 1001a260 f   ConvexPolygonsBuilder.obj
 0001:0001a100       ?createPolygonData@ConvexPolygonsBuilder@physx@@AAE_NXZ 1001b100 f   ConvexPolygonsBuilder.obj
 0001:0001ac60       ?createTrianglesFromPolygons@ConvexPolygonsBuilder@physx@@AAE_NXZ 1001bc60 f   ConvexPolygonsBuilder.obj
 0001:0001b130       ??$?_UE@@YAPAXIV?$ReflectionAllocator@E@shdfnd@physx@@PBDH@Z 1001c130 f i ConvexPolygonsBuilder.obj
 0001:0001b190       ??$copy@VNamedAllocator@shdfnd@physx@@@?$Array@VPair@@VNamedAllocator@shdfnd@physx@@@shdfnd@physx@@IAEXABV012@@Z 1001c190 f i ConvexPolygonsBuilder.obj
 0001:0001b220       ??4?$Array@IVNamedAllocator@shdfnd@physx@@@shdfnd@physx@@QAEAAV012@ABV012@@Z 1001c220 f i ConvexPolygonsBuilder.obj
 0001:0001cb20       ?growAndPushBack@?$Array@VPair@@VNamedAllocator@shdfnd@physx@@@shdfnd@physx@@IAEAAVPair@@ABV4@@Z 1001db20 f i ConvexPolygonsBuilder.obj
 0001:0001cbe0       ??0QuickHullConvexHullLib@physx@@QAE@ABVPxConvexMeshDesc@1@ABUPxCookingParams@1@@Z 1001dbe0 f   QuickHullConvexHullLib.obj
 0001:0001cca0       ??1QuickHullConvexHullLib@physx@@UAE@XZ 1001dca0 f   QuickHullConvexHullLib.obj
 0001:0001cd20       ?createConvexHull@QuickHullConvexHullLib@physx@@UAE?AW4Enum@PxConvexMeshCookingResult@2@XZ 1001dd20 f   QuickHullConvexHullLib.obj
 0001:0001d230       ?fillConvexMeshDesc@QuickHullConvexHullLib@physx@@UAEXAAVPxConvexMeshDesc@2@@Z 1001e230 f   QuickHullConvexHullLib.obj
 0001:0001d270       ?createEdgeList@QuickHullConvexHullLib@physx@@UAE_NIPBEPAPAEPAPAG2@Z 1001e270 f   QuickHullConvexHullLib.obj
 0001:0001d4b0       ?expandHullOBB@QuickHullConvexHullLib@physx@@IAE?AW4Enum@PxConvexMeshCookingResult@2@XZ 1001e4b0 f   QuickHullConvexHullLib.obj
 0001:0001d930       ?expandHull@QuickHullConvexHullLib@physx@@IAE?AW4Enum@PxConvexMeshCookingResult@2@XZ 1001e930 f   QuickHullConvexHullLib.obj
 0001:0001dfb0       ?cleanupForSimplex@QuickHullConvexHullLib@physx@@IAE_NPAVPxVec3@2@IPAUQuickHullVertex@local@@1AAM2@Z 1001efb0 f   QuickHullConvexHullLib.obj
 0001:0001e6b0       ?fillConvexMeshDescFromQuickHull@QuickHullConvexHullLib@physx@@IAEXAAVPxConvexMeshDesc@2@@Z 1001f6b0 f   QuickHullConvexHullLib.obj
 0001:0001ea60       ?fillConvexMeshDescFromCroppedHull@QuickHullConvexHullLib@physx@@IAEXAAVPxConvexMeshDesc@2@@Z 1001fa60 f   QuickHullConvexHullLib.obj
 0001:0001ec20       ?getOppositeFaceDistance@QuickHullHalfEdge@local@@QBEMXZ 1001fc20 f   QuickHullConvexHullLib.obj
 0001:0001ec60       ?mergeAdjacentFace@QuickHullFace@local@@QAE_NPAUQuickHullHalfEdge@2@AAV?$Array@PAUQuickHullFace@local@@VNamedAllocator@shdfnd@physx@@@shdfnd@physx@@@Z 1001fc60 f   QuickHullConvexHullLib.obj
 0001:0001f060       ?checkFaceConsistency@QuickHullFace@local@@QAE_NXZ 10020060 f   QuickHullConvexHullLib.obj
 0001:0001f070       ?connectHalfEdges@QuickHullFace@local@@AAEPAU12@PAUQuickHullHalfEdge@2@0@Z 10020070 f   QuickHullConvexHullLib.obj
 0001:0001f390       ??0QuickHull@local@@QAE@ABUPxCookingParams@physx@@ABVPxConvexMeshDesc@3@@Z 10020390 f   QuickHullConvexHullLib.obj
 0001:0001f5e0       ??1QuickHull@local@@QAE@XZ 100205e0 f   QuickHullConvexHullLib.obj
 0001:0001f700       ?preallocate@QuickHull@local@@QAEXI@Z 10020700 f   QuickHullConvexHullLib.obj
 0001:0001f830       ?parseInputVertices@QuickHull@local@@QAEXPBVPxVec3@physx@@I@Z 10020830 f   QuickHullConvexHullLib.obj
 0001:0001f890       ?releaseHull@QuickHull@local@@QAEXXZ 10020890 f   QuickHullConvexHullLib.obj
 0001:0001f8c0       ?setPrecomputedMinMax@QuickHull@local@@QAEXPBUQuickHullVertex@2@0MM@Z 100208c0 f   QuickHullConvexHullLib.obj
 0001:0001fa30       ?buildHull@QuickHull@local@@QAE?AW4Enum@QuickHullResult@2@XZ 10020a30 f   QuickHullConvexHullLib.obj
 0001:0001fc60       ?maxNumVertsPerFace@QuickHull@local@@QBEIXZ 10020c60 f   QuickHullConvexHullLib.obj
 0001:0001fc90       ?computeMinMaxVerts@QuickHull@local@@IAEXXZ 10020c90 f   QuickHullConvexHullLib.obj
 0001:0001ffe0       ?findSimplex@QuickHull@local@@IAE_NXZ 10020fe0 f   QuickHullConvexHullLib.obj
 0001:00020480       ?addSimplex@QuickHull@local@@IAEXPAUQuickHullVertex@2@_N@Z 10021480 f   QuickHullConvexHullLib.obj
 0001:00020830       ?nextPointToAdd@QuickHull@local@@IAEPAUQuickHullVertex@2@AAPAUQuickHullFace@2@@Z 10021830 f   QuickHullConvexHullLib.obj
 0001:000208a0       ?addPointToHull@QuickHull@local@@IAE_NPBUQuickHullVertex@2@AAUQuickHullFace@2@AA_N@Z 100218a0 f   QuickHullConvexHullLib.obj
 0001:00020bc0       ?createTriangle@QuickHull@local@@IAEPAUQuickHullFace@2@ABUQuickHullVertex@2@00@Z 10021bc0 f   QuickHullConvexHullLib.obj
 0001:00020f30       ?addPointToFace@QuickHull@local@@IAEXAAUQuickHullFace@2@PAUQuickHullVertex@2@M@Z 10021f30 f   QuickHullConvexHullLib.obj
 0001:00020f80       ?removeEyePointFromFace@QuickHull@local@@IAEXAAUQuickHullFace@2@PBUQuickHullVertex@2@@Z 10021f80 f   QuickHullConvexHullLib.obj
 0001:00020f90       ?calculateHorizon@QuickHull@local@@IAEXABVPxVec3@physx@@PAUQuickHullHalfEdge@2@AAUQuickHullFace@2@AAV?$Array@PAUQuickHullHalfEdge@local@@VNamedAllocator@shdfnd@physx@@@shdfnd@4@AAV?$Array@PAUQuickHullFace@local@@VNamedAllocator@shdfnd@physx@@@84@@Z 10021f90 f   QuickHullConvexHullLib.obj
 0001:000210a0       ?addNewFacesFromHorizon@QuickHull@local@@IAEXPBUQuickHullVertex@2@ABV?$Array@PAUQuickHullHalfEdge@local@@VNamedAllocator@shdfnd@physx@@@shdfnd@physx@@AAV?$Array@PAUQuickHullFace@local@@VNamedAllocator@shdfnd@physx@@@56@@Z 100220a0 f   QuickHullConvexHullLib.obj
 0001:000211b0       ?doAdjacentMerge@QuickHull@local@@IAE_NAAUQuickHullFace@2@_NAA_N@Z 100221b0 f   QuickHullConvexHullLib.obj
 0001:000213f0       ?doPostAdjacentMerge@QuickHull@local@@IAE_NAAUQuickHullFace@2@M@Z 100223f0 f   QuickHullConvexHullLib.obj
 0001:00021500       ?deleteFacePoints@QuickHull@local@@IAEXAAUQuickHullFace@2@PAU32@@Z 10022500 f   QuickHullConvexHullLib.obj
 0001:000215f0       ?resolveUnclaimedPoints@QuickHull@local@@IAEXABV?$Array@PAUQuickHullFace@local@@VNamedAllocator@shdfnd@physx@@@shdfnd@physx@@@Z 100225f0 f   QuickHullConvexHullLib.obj
 0001:000216f0       ?postMergeHull@QuickHull@local@@IAEXXZ 100226f0 f   QuickHullConvexHullLib.obj
 0001:00021820       ?canMergeFaces@QuickHull@local@@IAE_NABUQuickHullHalfEdge@2@@Z 10022820 f   QuickHullConvexHullLib.obj
 0001:00021f40       ?getExpandPoint@local@@YAXABUQuickHullHalfEdge@1@AAUExpandPoint@1@PBV?$Array@IVNamedAllocator@shdfnd@physx@@@shdfnd@physx@@@Z 10022f40 f   QuickHullConvexHullLib.obj
 0001:00021ff0       ?addExpandPoint@local@@YAXABUExpandPoint@1@AAV?$Array@UExpandPoint@local@@VNamedAllocator@shdfnd@physx@@@shdfnd@physx@@@Z 10022ff0 f   QuickHullConvexHullLib.obj
 0001:000220d0       ??0PxPlane@physx@@QAE@ABV01@@Z 100230d0 f i QuickHullConvexHullLib.obj
 0001:000220f0       ??0QuickHullVertex@local@@QAE@XZ 100230f0 f i QuickHullConvexHullLib.obj
 0001:00022100       ??1?$MemBlock@UQuickHullFace@local@@$00@local@@QAE@XZ 10023100 f i QuickHullConvexHullLib.obj
 0001:00022160       ??1?$MemBlock@UQuickHullHalfEdge@local@@$0A@@local@@QAE@XZ 10023160 f i QuickHullConvexHullLib.obj
 0001:000221c0       ??_GConvexHull@physx@@QAEPAXI@Z 100231c0 f i QuickHullConvexHullLib.obj
 0001:00022260       ??_GQuickHull@local@@QAEPAXI@Z 10023260 f i QuickHullConvexHullLib.obj
 0001:000223b0       ??_GQuickHullConvexHullLib@physx@@UAEPAXI@Z 100233b0 f i QuickHullConvexHullLib.obj
 0001:000223b0       ??_EQuickHullConvexHullLib@physx@@UAEPAXI@Z 100233b0 f i QuickHullConvexHullLib.obj
 0001:00022460       ??__G@YGXPAX0IIP6EPAX00@Z@Z 10023460 f i QuickHullConvexHullLib.obj
 0001:000224a0       ?copy@?$Array@UExpandPoint@local@@VNamedAllocator@shdfnd@physx@@@shdfnd@physx@@KAXPAUExpandPoint@local@@0PBU45@@Z 100234a0 f i QuickHullConvexHullLib.obj
 0001:00022530       ?getFreeItem@?$MemBlock@UQuickHullFace@local@@$00@local@@QAEPAUQuickHullFace@2@XZ 10023530 f i QuickHullConvexHullLib.obj
 0001:00022620       ?getFreeItem@?$MemBlock@UQuickHullHalfEdge@local@@$0A@@local@@QAEPAUQuickHullHalfEdge@2@XZ 10023620 f i QuickHullConvexHullLib.obj
 0001:000226d0       ?growAndPushBack@?$Array@PAUQuickHullFace@local@@VNamedAllocator@shdfnd@physx@@@shdfnd@physx@@IAEAAPAUQuickHullFace@local@@ABQAU45@@Z 100236d0 f i QuickHullConvexHullLib.obj
 0001:00022780       ?growAndPushBack@?$Array@PAUQuickHullHalfEdge@local@@VNamedAllocator@shdfnd@physx@@@shdfnd@physx@@IAEAAPAUQuickHullHalfEdge@local@@ABQAU45@@Z 10023780 f i QuickHullConvexHullLib.obj
 0001:00022830       ?growAndPushBack@?$Array@PAUQuickHullVertex@local@@VNamedAllocator@shdfnd@physx@@@shdfnd@physx@@IAEAAPAUQuickHullVertex@local@@ABQAU45@@Z 10023830 f i QuickHullConvexHullLib.obj
 0001:000228e0       ?growAndPushBack@?$Array@UExpandPoint@local@@VNamedAllocator@shdfnd@physx@@@shdfnd@physx@@IAEAAUExpandPoint@local@@ABU45@@Z 100238e0 f i QuickHullConvexHullLib.obj
 0001:000229f0       ?init@?$MemBlock@UQuickHullFace@local@@$00@local@@QAEXI@Z 100239f0 f i QuickHullConvexHullLib.obj
 0001:00022aa0       ?init@?$MemBlock@UQuickHullHalfEdge@local@@$0A@@local@@QAEXI@Z 10023aa0 f i QuickHullConvexHullLib.obj
 0001:00022b10       ?recreate@?$Array@PAUQuickHullFace@local@@VNamedAllocator@shdfnd@physx@@@shdfnd@physx@@IAEXI@Z 10023b10 f i QuickHullConvexHullLib.obj
 0001:00022b90       ?recreate@?$Array@PAUQuickHullHalfEdge@local@@VNamedAllocator@shdfnd@physx@@@shdfnd@physx@@IAEXI@Z 10023b90 f i QuickHullConvexHullLib.obj
 0001:00022c10       ?recreate@?$Array@PAUQuickHullVertex@local@@VNamedAllocator@shdfnd@physx@@@shdfnd@physx@@IAEXI@Z 10023c10 f i QuickHullConvexHullLib.obj
 0001:00022c90       ?recreate@?$Array@UExpandPoint@local@@VNamedAllocator@shdfnd@physx@@@shdfnd@physx@@IAEXI@Z 10023c90 f i QuickHullConvexHullLib.obj
 0001:00022d10       ?computeVolumeIntegrals@physx@@YA_NABVPxSimpleTriangleMesh@1@MAAUPxIntegrals@1@@Z 10023d10 f   VolumeIntegration.obj
 0001:00022d80       ?computeVolumeIntegralsEberly@physx@@YA_NABVPxConvexMeshDesc@1@MAAUPxIntegrals@1@ABVPxVec3@1@@Z 10023d80 f   VolumeIntegration.obj
 0001:00022dd0       ?computeVolumeIntegralsEberlySIMD@physx@@YA_NABVPxConvexMeshDesc@1@MAAUPxIntegrals@1@ABVPxVec3@1@@Z 10023dd0 f   VolumeIntegration.obj
 0001:000251c0       _PxSetPhysXCookingDelayLoadHook 100261c0 f   WindowsCookingDelayLoadHook.obj
 0001:000251d0       ?cookingDelayHook@@YGP6GHXZIPAUDelayLoadInfo@@@Z 100261d0 f   WindowsCookingDelayLoadHook.obj
 0001:00025270       __imp_load_??0RadixSortBuffered@Cm@physx@@QAE@XZ 10026270 f   PhysXCommon_32:PhysXCommon_32.dll
 0001:0002527a       ??0RadixSortBuffered@Cm@physx@@QAE@XZ 1002627a f   PhysXCommon_32:PhysXCommon_32.dll
 0001:00025280       __tailMerge_physxcommon_32_dll 10026280     PhysXCommon_32:PhysXCommon_32.dll
 0001:00025291       __imp_load_??1RadixSortBuffered@Cm@physx@@UAE@XZ 10026291 f   PhysXCommon_32:PhysXCommon_32.dll
 0001:0002529b       ??1RadixSortBuffered@Cm@physx@@UAE@XZ 1002629b f   PhysXCommon_32:PhysXCommon_32.dll
 0001:000252a1       __imp_load_?Sort@RadixSortBuffered@Cm@physx@@QAEAAV123@PBIIW4RadixHint@23@@Z 100262a1 f   PhysXCommon_32:PhysXCommon_32.dll
 0001:000252ab       ?Sort@RadixSortBuffered@Cm@physx@@QAEAAV123@PBIIW4RadixHint@23@@Z 100262ab f   PhysXCommon_32:PhysXCommon_32.dll
 0001:000252b1       __imp_load_?readDword@physx@@YAI_NAAVPxInputStream@1@@Z 100262b1 f   PhysXCommon_32:PhysXCommon_32.dll
 0001:000252bb       ?readDword@physx@@YAI_NAAVPxInputStream@1@@Z 100262bb f   PhysXCommon_32:PhysXCommon_32.dll
 0001:000252c1       __imp_load_?ReadHeader@Gu@physx@@YA_NEEEEAAIAA_NAAVPxInputStream@2@@Z 100262c1 f   PhysXCommon_32:PhysXCommon_32.dll
 0001:000252cb       ?ReadHeader@Gu@physx@@YA_NEEEEAAIAA_NAAVPxInputStream@2@@Z 100262cb f   PhysXCommon_32:PhysXCommon_32.dll
 0001:000252d1       __imp_load_??0HeightField@Gu@physx@@QAE@PAVGuMeshFactory@2@@Z 100262d1 f   PhysXCommon_32:PhysXCommon_32.dll
 0001:000252db       ??0HeightField@Gu@physx@@QAE@PAVGuMeshFactory@2@@Z 100262db f   PhysXCommon_32:PhysXCommon_32.dll
 0001:000252e1       __imp_load_?loadFromDesc@HeightField@Gu@physx@@QAE_NABVPxHeightFieldDesc@3@@Z 100262e1 f   PhysXCommon_32:PhysXCommon_32.dll
 0001:000252eb       ?loadFromDesc@HeightField@Gu@physx@@QAE_NABVPxHeightFieldDesc@3@@Z 100262eb f   PhysXCommon_32:PhysXCommon_32.dll
 0001:000252f1       __imp_load_?computeCellCoordinates@HeightField@Gu@physx@@QBEIMMAAM0@Z 100262f1 f   PhysXCommon_32:PhysXCommon_32.dll
 0001:000252fb       ?computeCellCoordinates@HeightField@Gu@physx@@QBEIMMAAM0@Z 100262fb f   PhysXCommon_32:PhysXCommon_32.dll
 0001:00025301       __imp_load_?releaseMemory@HeightField@Gu@physx@@QAEXXZ 10026301 f   PhysXCommon_32:PhysXCommon_32.dll
 0001:0002530b       ?releaseMemory@HeightField@Gu@physx@@QAEXXZ 1002630b f   PhysXCommon_32:PhysXCommon_32.dll
 0001:00025311       __imp_load_??1HeightField@Gu@physx@@UAE@XZ 10026311 f   PhysXCommon_32:PhysXCommon_32.dll
 0001:0002531b       ??1HeightField@Gu@physx@@UAE@XZ 1002631b f   PhysXCommon_32:PhysXCommon_32.dll
 0001:00025321       __imp_load_??0NodeAllocator@Gu@physx@@QAE@XZ 10026321 f   PhysXCommon_32:PhysXCommon_32.dll
 0001:0002532b       ??0NodeAllocator@Gu@physx@@QAE@XZ 1002632b f   PhysXCommon_32:PhysXCommon_32.dll
 0001:00025331       __imp_load_??1NodeAllocator@Gu@physx@@QAE@XZ 10026331 f   PhysXCommon_32:PhysXCommon_32.dll
 0001:0002533b       ??1NodeAllocator@Gu@physx@@QAE@XZ 1002633b f   PhysXCommon_32:PhysXCommon_32.dll
 0001:00025341       __imp_load_?release@NodeAllocator@Gu@physx@@QAEXXZ 10026341 f   PhysXCommon_32:PhysXCommon_32.dll
 0001:0002534b       ?release@NodeAllocator@Gu@physx@@QAEXXZ 1002634b f   PhysXCommon_32:PhysXCommon_32.dll
 0001:00025351       __imp_load_?buildAABBTree@Gu@physx@@YA_NAAVAABBTreeBuildParams@12@AAVNodeAllocator@12@AAUBuildStats@12@AAPAI@Z 10026351 f   PhysXCommon_32:PhysXCommon_32.dll
 0001:0002535b       ?buildAABBTree@Gu@physx@@YA_NAAVAABBTreeBuildParams@12@AAVNodeAllocator@12@AAUBuildStats@12@AAPAI@Z 1002635b f   PhysXCommon_32:PhysXCommon_32.dll
 0001:00025361       __imp_load_?writeDword@physx@@YAXI_NAAVPxOutputStream@1@@Z 10026361 f   PhysXCommon_32:PhysXCommon_32.dll
 0001:0002536b       ?writeDword@physx@@YAXI_NAAVPxOutputStream@1@@Z 1002636b f   PhysXCommon_32:PhysXCommon_32.dll
 0001:00025371       __imp_load_?writeFloatBuffer@physx@@YAXPBMI_NAAVPxOutputStream@1@@Z 10026371 f   PhysXCommon_32:PhysXCommon_32.dll
 0001:0002537b       ?writeFloatBuffer@physx@@YAXPBMI_NAAVPxOutputStream@1@@Z 1002637b f   PhysXCommon_32:PhysXCommon_32.dll
 0001:00025381       __imp_load_?writeHeader@physx@@YA_NCCCCI_NAAVPxOutputStream@1@@Z 10026381 f   PhysXCommon_32:PhysXCommon_32.dll
 0001:0002538b       ?writeHeader@physx@@YA_NCCCCI_NAAVPxOutputStream@1@@Z 1002638b f   PhysXCommon_32:PhysXCommon_32.dll
 0001:00025391       __imp_load_?writeWord@physx@@YAXG_NAAVPxOutputStream@1@@Z 10026391 f   PhysXCommon_32:PhysXCommon_32.dll
 0001:0002539b       ?writeWord@physx@@YAXG_NAAVPxOutputStream@1@@Z 1002639b f   PhysXCommon_32:PhysXCommon_32.dll
 0001:000253a1       __imp_load_?writeFloat@physx@@YAXM_NAAVPxOutputStream@1@@Z 100263a1 f   PhysXCommon_32:PhysXCommon_32.dll
 0001:000253ab       ?writeFloat@physx@@YAXM_NAAVPxOutputStream@1@@Z 100263ab f   PhysXCommon_32:PhysXCommon_32.dll
 0001:000253b1       __imp_load_?computeBoundsAroundVertices@Gu@physx@@YAXAAVPxBounds3@2@IPIBVPxVec3@2@@Z 100263b1 f   PhysXCommon_32:PhysXCommon_32.dll
 0001:000253bb       ?computeBoundsAroundVertices@Gu@physx@@YAXAAVPxBounds3@2@IPIBVPxVec3@2@@Z 100263bb f   PhysXCommon_32:PhysXCommon_32.dll
 0001:000253c1       __imp_load_??0SourceMesh@Gu@physx@@QAE@XZ 100263c1 f   PhysXCommon_32:PhysXCommon_32.dll
 0001:000253cb       ??0SourceMesh@Gu@physx@@QAE@XZ 100263cb f   PhysXCommon_32:PhysXCommon_32.dll
 0001:000253d1       __imp_load_??1SourceMesh@Gu@physx@@QAE@XZ 100263d1 f   PhysXCommon_32:PhysXCommon_32.dll
 0001:000253db       ??1SourceMesh@Gu@physx@@QAE@XZ 100263db f   PhysXCommon_32:PhysXCommon_32.dll
 0001:000253e1       __imp_load_??0BV4Tree@Gu@physx@@QAE@XZ 100263e1 f   PhysXCommon_32:PhysXCommon_32.dll
 0001:000253eb       ??0BV4Tree@Gu@physx@@QAE@XZ 100263eb f   PhysXCommon_32:PhysXCommon_32.dll
 0001:000253f1       __imp_load_??1BV4Tree@Gu@physx@@QAE@XZ 100263f1 f   PhysXCommon_32:PhysXCommon_32.dll
 0001:000253fb       ??1BV4Tree@Gu@physx@@QAE@XZ 100263fb f   PhysXCommon_32:PhysXCommon_32.dll
 0001:00025401       __imp_load_??0BV32Tree@Gu@physx@@QAE@XZ 10026401 f   PhysXCommon_32:PhysXCommon_32.dll
 0001:0002540b       ??0BV32Tree@Gu@physx@@QAE@XZ 1002640b f   PhysXCommon_32:PhysXCommon_32.dll
 0001:00025411       __imp_load_??1BV32Tree@Gu@physx@@QAE@XZ 10026411 f   PhysXCommon_32:PhysXCommon_32.dll
 0001:0002541b       ??1BV32Tree@Gu@physx@@QAE@XZ 1002641b f   PhysXCommon_32:PhysXCommon_32.dll
 0001:00025421       __imp_load_?writeWordBuffer@physx@@YAXPBGI_NAAVPxOutputStream@1@@Z 10026421 f   PhysXCommon_32:PhysXCommon_32.dll
 0001:0002542b       ?writeWordBuffer@physx@@YAXPBGI_NAAVPxOutputStream@1@@Z 1002642b f   PhysXCommon_32:PhysXCommon_32.dll
 0001:00025431       __imp_load_?computeMaxIndex@physx@@YAIPBII@Z 10026431 f   PhysXCommon_32:PhysXCommon_32.dll
 0001:0002543b       ?computeMaxIndex@physx@@YAIPBII@Z 1002643b f   PhysXCommon_32:PhysXCommon_32.dll
 0001:00025441       __imp_load_?storeIndices@physx@@YAXIIPBIAAVPxOutputStream@1@_N@Z 10026441 f   PhysXCommon_32:PhysXCommon_32.dll
 0001:0002544b       ?storeIndices@physx@@YAXIIPBIAAVPxOutputStream@1@_N@Z 1002644b f   PhysXCommon_32:PhysXCommon_32.dll
 0001:00025451       __imp_load_?BuildBV4Ex@Gu@physx@@YA_NAAVBV4Tree@12@AAVSourceMesh@12@MI@Z 10026451 f   PhysXCommon_32:PhysXCommon_32.dll
 0001:0002545b       ?BuildBV4Ex@Gu@physx@@YA_NAAVBV4Tree@12@AAVSourceMesh@12@MI@Z 1002645b f   PhysXCommon_32:PhysXCommon_32.dll
 0001:00025461       __imp_load_?BuildBV32Ex@Gu@physx@@YA_NAAVBV32Tree@12@AAVSourceMesh@12@MI@Z 10026461 f   PhysXCommon_32:PhysXCommon_32.dll
 0001:0002546b       ?BuildBV32Ex@Gu@physx@@YA_NAAVBV32Tree@12@AAVSourceMesh@12@MI@Z 1002646b f   PhysXCommon_32:PhysXCommon_32.dll
 0001:00025471       __imp_load_?computeMaxIndex@physx@@YAGPBGI@Z 10026471 f   PhysXCommon_32:PhysXCommon_32.dll
 0001:0002547b       ?computeMaxIndex@physx@@YAGPBGI@Z 1002647b f   PhysXCommon_32:PhysXCommon_32.dll
 0001:00025481       __imp_load_?WriteHeader@Gu@physx@@YA_NEEEEI_NAAVPxOutputStream@2@@Z 10026481 f   PhysXCommon_32:PhysXCommon_32.dll
 0001:0002548b       ?WriteHeader@Gu@physx@@YA_NEEEEI_NAAVPxOutputStream@2@@Z 1002648b f   PhysXCommon_32:PhysXCommon_32.dll
 0001:00025491       __imp_load_?StoreIndices@Gu@physx@@YAXGIPBGAAVPxOutputStream@2@_N@Z 10026491 f   PhysXCommon_32:PhysXCommon_32.dll
 0001:0002549b       ?StoreIndices@Gu@physx@@YAXGIPBGAAVPxOutputStream@2@_N@Z 1002649b f   PhysXCommon_32:PhysXCommon_32.dll
 0001:000254a1       __imp_load_?CreateOffsets@BigConvexData@physx@@IAEXXZ 100264a1 f   PhysXCommon_32:PhysXCommon_32.dll
 0001:000254ab       ?CreateOffsets@BigConvexData@physx@@IAEXXZ 100264ab f   PhysXCommon_32:PhysXCommon_32.dll
 0001:000254b1       __imp_load_?computeOBBPoints@Gu@physx@@YAXPIAVPxVec3@2@ABV32@1111@Z 100264b1 f   PhysXCommon_32:PhysXCommon_32.dll
 0001:000254bb       ?computeOBBPoints@Gu@physx@@YAXPIAVPxVec3@2@ABV32@1111@Z 100264bb f   PhysXCommon_32:PhysXCommon_32.dll
 0001:000254c1       __imp_load_??0BigConvexData@physx@@QAE@XZ 100264c1 f   PhysXCommon_32:PhysXCommon_32.dll
 0001:000254cb       ??0BigConvexData@physx@@QAE@XZ 100264cb f   PhysXCommon_32:PhysXCommon_32.dll
 0001:000254d1       __imp_load_??1BigConvexData@physx@@QAE@XZ 100264d1 f   PhysXCommon_32:PhysXCommon_32.dll
 0001:000254db       ??1BigConvexData@physx@@QAE@XZ 100264db f   PhysXCommon_32:PhysXCommon_32.dll
 0001:000254e1       __imp_load__PxGetFoundation 100264e1 f   PhysXFoundation_32:PhysXFoundation_32.dll
 0001:000254eb       _PxGetFoundation           100264eb f   PhysXFoundation_32:PhysXFoundation_32.dll
 0001:000254f1       __tailMerge_physxfoundation_32_dll 100264f1     PhysXFoundation_32:PhysXFoundation_32.dll
 0001:00025502       __imp_load_?getAllocator@shdfnd@physx@@YAAAVPxAllocatorCallback@2@XZ 10026502 f   PhysXFoundation_32:PhysXFoundation_32.dll
 0001:0002550c       ?getAllocator@shdfnd@physx@@YAAAVPxAllocatorCallback@2@XZ 1002650c f   PhysXFoundation_32:PhysXFoundation_32.dll
 0001:00025512       __imp_load_??0NamedAllocator@shdfnd@physx@@QAE@PBD@Z 10026512 f   PhysXFoundation_32:PhysXFoundation_32.dll
 0001:0002551c       ??0NamedAllocator@shdfnd@physx@@QAE@PBD@Z 1002651c f   PhysXFoundation_32:PhysXFoundation_32.dll
 0001:00025522       __imp_load_?getInstance@Foundation@shdfnd@physx@@SAAAV123@XZ 10026522 f   PhysXFoundation_32:PhysXFoundation_32.dll
 0001:0002552c       ?getInstance@Foundation@shdfnd@physx@@SAAAV123@XZ 1002652c f   PhysXFoundation_32:PhysXFoundation_32.dll
 0001:00025532       __imp_load_?error@Foundation@shdfnd@physx@@QAAXW4Enum@PxErrorCode@3@PBDH1ZZ 10026532 f   PhysXFoundation_32:PhysXFoundation_32.dll
 0001:0002553c       ?error@Foundation@shdfnd@physx@@QAAXW4Enum@PxErrorCode@3@PBDH1ZZ 1002653c f   PhysXFoundation_32:PhysXFoundation_32.dll
 0001:00025542       __imp_load_?allocate@NamedAllocator@shdfnd@physx@@QAEPAXIPBDH@Z 10026542 f   PhysXFoundation_32:PhysXFoundation_32.dll
 0001:0002554c       ?allocate@NamedAllocator@shdfnd@physx@@QAEPAXIPBDH@Z 1002654c f   PhysXFoundation_32:PhysXFoundation_32.dll
 0001:00025552       __imp_load_?deallocate@NamedAllocator@shdfnd@physx@@QAEXPAX@Z 10026552 f   PhysXFoundation_32:PhysXFoundation_32.dll
 0001:0002555c       ?deallocate@NamedAllocator@shdfnd@physx@@QAEXPAX@Z 1002655c f   PhysXFoundation_32:PhysXFoundation_32.dll
 0001:00025562       __imp_load_?incRefCount@Foundation@shdfnd@physx@@SAXXZ 10026562 f   PhysXFoundation_32:PhysXFoundation_32.dll
 0001:0002556c       ?incRefCount@Foundation@shdfnd@physx@@SAXXZ 1002656c f   PhysXFoundation_32:PhysXFoundation_32.dll
 0001:00025572       __imp_load_?decRefCount@Foundation@shdfnd@physx@@SAXXZ 10026572 f   PhysXFoundation_32:PhysXFoundation_32.dll
 0001:0002557c       ?decRefCount@Foundation@shdfnd@physx@@SAXXZ 1002657c f   PhysXFoundation_32:PhysXFoundation_32.dll
 0001:00025582       __imp_load_??0FPUGuard@shdfnd@physx@@QAE@XZ 10026582 f   PhysXFoundation_32:PhysXFoundation_32.dll
 0001:0002558c       ??0FPUGuard@shdfnd@physx@@QAE@XZ 1002658c f   PhysXFoundation_32:PhysXFoundation_32.dll
 0001:00025592       __imp_load_??1FPUGuard@shdfnd@physx@@QAE@XZ 10026592 f   PhysXFoundation_32:PhysXFoundation_32.dll
 0001:0002559c       ??1FPUGuard@shdfnd@physx@@QAE@XZ 1002659c f   PhysXFoundation_32:PhysXFoundation_32.dll
 0001:000255a2       __imp_load_??1NamedAllocator@shdfnd@physx@@QAE@XZ 100265a2 f   PhysXFoundation_32:PhysXFoundation_32.dll
 0001:000255ac       ??1NamedAllocator@shdfnd@physx@@QAE@XZ 100265ac f   PhysXFoundation_32:PhysXFoundation_32.dll
 0001:000255b2       __imp_load_??0NamedAllocator@shdfnd@physx@@QAE@ABV012@@Z 100265b2 f   PhysXFoundation_32:PhysXFoundation_32.dll
 0001:000255bc       ??0NamedAllocator@shdfnd@physx@@QAE@ABV012@@Z 100265bc f   PhysXFoundation_32:PhysXFoundation_32.dll
 0001:000255c2       __imp_load_?allocate@TempAllocator@shdfnd@physx@@QAEPAXIPBDH@Z 100265c2 f   PhysXFoundation_32:PhysXFoundation_32.dll
 0001:000255cc       ?allocate@TempAllocator@shdfnd@physx@@QAEPAXIPBDH@Z 100265cc f   PhysXFoundation_32:PhysXFoundation_32.dll
 0001:000255d2       __imp_load_?deallocate@TempAllocator@shdfnd@physx@@QAEXPAX@Z 100265d2 f   PhysXFoundation_32:PhysXFoundation_32.dll
 0001:000255dc       ?deallocate@TempAllocator@shdfnd@physx@@QAEXPAX@Z 100265dc f   PhysXFoundation_32:PhysXFoundation_32.dll
 0001:000255e2       __imp_load_?PxDiagonalize@physx@@YA?AVPxVec3@1@ABVPxMat33@1@AAVPxQuat@1@@Z 100265e2 f   PhysXFoundation_32:PhysXFoundation_32.dll
 0001:000255ec       ?PxDiagonalize@physx@@YA?AVPxVec3@1@ABVPxMat33@1@AAVPxQuat@1@@Z 100265ec f   PhysXFoundation_32:PhysXFoundation_32.dll
 0001:000255f2       _LoadLibraryA@4            100265f2 f   kernel32:KERNEL32.dll
 0001:000255f8       ??$PFromRva@PAP6GHXZ@@YGPAP6GHXZK@Z 100265f8 f i Delayimp:delayhlp.obj
 0001:0002560a       ??$PFromRva@PAPAUHINSTANCE__@@@@YGPAPAUHINSTANCE__@@K@Z 1002660a f i Delayimp:delayhlp.obj
 0001:0002561c       ??$PFromRva@PAU_IMAGE_IMPORT_BY_NAME@@@@YGPAU_IMAGE_IMPORT_BY_NAME@@K@Z 1002661c f i Delayimp:delayhlp.obj
 0001:0002562e       ??$PFromRva@PAU_IMAGE_THUNK_DATA32@@@@YGPAU_IMAGE_THUNK_DATA32@@K@Z 1002662e f i Delayimp:delayhlp.obj
 0001:00025640       ??$PFromRva@PBD@@YGPBDK@Z  10026640 f i Delayimp:delayhlp.obj
 0001:00025652       ??$PFromRva@PBUImgDelayDescr@@@@YGPBUImgDelayDescr@@K@Z 10026652 f i Delayimp:delayhlp.obj
 0001:00025664       ??$PFromRva@PBU_IMAGE_THUNK_DATA32@@@@YGPBU_IMAGE_THUNK_DATA32@@K@Z 10026664 f i Delayimp:delayhlp.obj
 0001:00025676       ?CountOfImports@@YGIPBU_IMAGE_THUNK_DATA32@@@Z 10026676 f i Delayimp:delayhlp.obj
 0001:00025691       ?DloadAcquireSectionWriteAccess@@YGXXZ 10026691 f i Delayimp:delayhlp.obj
 0001:000256c4       ?DloadGetSRWLockFunctionPointers@@YGEXZ 100266c4 f i Delayimp:delayhlp.obj
 0001:00025737       ?DloadLock@@YGXXZ          10026737 f i Delayimp:delayhlp.obj
 0001:00025776       ?DloadMakePermanentImageCommit@@YGXPAXK@Z 10026776 f i Delayimp:delayhlp.obj
 0001:000257e5       ?DloadObtainSection@@YGPAXPAK0@Z 100267e5 f i Delayimp:delayhlp.obj
 0001:00025860       ?DloadProtectSection@@YGXKPAK@Z 10026860 f i Delayimp:delayhlp.obj
 0001:000258ce       ?DloadReleaseSectionWriteAccess@@YGXXZ 100268ce f i Delayimp:delayhlp.obj
 0001:00025904       ?DloadUnlock@@YGXXZ        10026904 f i Delayimp:delayhlp.obj
 0001:00025945       ?IndexFromPImgThunkData@@YGIPBU_IMAGE_THUNK_DATA32@@0@Z 10026945 f i Delayimp:delayhlp.obj
 0001:00025aa5       _HRESULT_FROM_WIN32@4      10026aa5 f i Delayimp:delayhlp.obj
 0001:00025abd       _ReadAcquire@4             10026abd f i Delayimp:delayhlp.obj
 0001:00025acb       _ReadPointerAcquire@4      10026acb f i Delayimp:delayhlp.obj
 0001:00025ad9       _WritePointerRelease@8     10026ad9 f i Delayimp:delayhlp.obj
 0001:00025aea       _WriteRelease@8            10026aea f i Delayimp:delayhlp.obj
 0001:00025afb       __InlineInterlockedCompareExchangePointer@12 10026afb f i Delayimp:delayhlp.obj
 0001:00025b11       ___FUnloadDelayLoadedDLL2@4 10026b11 f   Delayimp:delayhlp.obj
 0001:00025b95       ___HrLoadAllImportsForDll@4 10026b95 f   Delayimp:delayhlp.obj
 0001:00025bf6       ___delayLoadHelper2@8      10026bf6 f   Delayimp:delayhlp.obj
 0001:00025e65       ??3@YAXPAXI@Z              10026e65 f   LIBCMT:delete_scalar_size.obj
 0001:00025e73       ??_V@YAXPAXI@Z             10026e73 f   LIBCMT:delete_array_size.obj
 0001:00025e81       ??1type_info@@UAE@XZ       10026e81 f   LIBCMT:std_type_info_static.obj
 0001:00025e88       ??_Etype_info@@UAEPAXI@Z   10026e88 f i LIBCMT:std_type_info_static.obj
 0001:00025e88       ??_Gtype_info@@UAEPAXI@Z   10026e88 f i LIBCMT:std_type_info_static.obj
 0001:00025eab       ?__scrt_initialize_type_info@@YAXXZ 10026eab f   LIBCMT:tncleanup.obj
 0001:00025eb7       ?__scrt_uninitialize_type_info@@YAXXZ 10026eb7 f   LIBCMT:tncleanup.obj
 0001:00025ed0       __alloca_probe_16          10026ed0 f   LIBCMT:alloca16.obj
 0001:00025ee6       __alloca_probe_8           10026ee6     LIBCMT:alloca16.obj
 0001:00025efc       ??3@YAXPAX@Z               10026efc f   LIBCMT:delete_scalar.obj
 0001:00025f01       ??_V@YAXPAX@Z              10026f01 f   LIBCMT:delete_array.obj
 0001:00025f10       __alloca_probe             10026f10 f   LIBCMT:chkstk.obj
 0001:00025f10       __chkstk                   10026f10 f   LIBCMT:chkstk.obj
 0001:00025f40       __ftoui3                   10026f40 f   LIBCMT:ftol3.obj
 0001:00025f86       __ftoul3                   10026f86 f   LIBCMT:ftol3.obj
 0001:00025ff8       __ftol3                    10026ff8 f   LIBCMT:ftol3.obj
 0001:00026065       __dtoui3                   10027065 f   LIBCMT:ftol3.obj
 0001:000260d9       __dtoul3                   100270d9 f   LIBCMT:ftol3.obj
 0001:0002617b       __dtol3                    1002717b f   LIBCMT:ftol3.obj
 0001:00026230       __ultod3                   10027230 f   LIBCMT:ftol3.obj
 0001:00026290       __ltod3                    10027290 f   LIBCMT:ftol3.obj
 0001:000262e0       ___vdecl_sinf4             100272e0 f   LIBCMT:svml_ssinf4_dispatch.obj
 0001:000262f2       ___libm_sse2_sincosf_      100272f2 f   LIBCMT:svml_ssinf4_dispatch.obj
 0001:00026335       ___libm_sse2_sincosf4_     10027335 f   LIBCMT:svml_ssinf4_dispatch.obj
 0001:00026682       __CRT_INIT@12              10027682 f   LIBCMT:dll_dllmain.obj
 0001:0002668b       __DllMainCRTStartup@12     1002768b f   LIBCMT:dll_dllmain.obj
 0001:000266ae       @_guard_check_icall_nop@4  100276ae f i LIBCMT:guard_support.obj
 0001:000266b1       _ReadNoFence               100276b1 f i LIBCMT:guard_support.obj
 0001:000266bb       _ReadPointerNoFence        100276bb f i LIBCMT:guard_support.obj
 0001:000266c5       __guard_icall_checks_enforced 100276c5 f i LIBCMT:guard_support.obj
 0001:000266d7       ___isa_available_init      100276d7 f   LIBCMT:cpu_disp.obj
 0001:000268b0       ___sse2_sinf4@@16          100278b0 f   LIBCMT:svml_ssinf4_sse2.obj
 0001:00026a80       ___sse4_sinf4@@16          10027a80 f   LIBCMT:svml_ssinf4_sse4.obj
 0001:00027148       ___security_init_cookie    10028148 f   LIBCMT:gs_support.obj
 0001:00027193       _DllMain@12                10028193 f   LIBCMT:dll_dllmain_stub.obj
 0001:00027199       ___local_stdio_printf_options 10028199 f i LIBCMT:default_local_stdio_options.obj
 0001:0002719f       ___local_stdio_scanf_options 1002819f f i LIBCMT:default_local_stdio_options.obj
 0001:000271a5       ___scrt_initialize_default_local_stdio_options 100281a5 f   LIBCMT:default_local_stdio_options.obj
 0001:000271c2       ?configure_argv@__scrt_narrow_argv_policy@@SAHXZ 100281c2 f i LIBCMT:utility.obj
 0001:00027213       ?initialize_environment@__scrt_narrow_environment_policy@@SAHXZ 10028213 f i LIBCMT:utility.obj
 0001:0002724c       _NtCurrentTeb              1002824c f i LIBCMT:utility.obj
 0001:00027253       ___scrt_acquire_startup_lock 10028253 f   LIBCMT:utility.obj
 0001:00027285       ___scrt_dllmain_after_initialize_c 10028285 f   LIBCMT:utility.obj
 0001:000272b0       ___scrt_dllmain_before_initialize_c 100282b0 f   LIBCMT:utility.obj
 0001:000272be       ___scrt_dllmain_crt_thread_attach 100282be f   LIBCMT:utility.obj
 0001:000272dd       ___scrt_dllmain_crt_thread_detach 100282dd f   LIBCMT:utility.obj
 0001:000272ea       ___scrt_dllmain_exception_filter 100282ea f   LIBCMT:utility.obj
 0001:0002731e       ___scrt_dllmain_uninitialize_c 1002831e f   LIBCMT:utility.obj
 0001:00027341       ___scrt_dllmain_uninitialize_critical 10028341 f   LIBCMT:utility.obj
 0001:0002734e       ___scrt_initialize_crt     1002834e f   LIBCMT:utility.obj
 0001:00027387       ___scrt_initialize_onexit_tables 10028387 f   LIBCMT:utility.obj
 0001:0002740e       ___scrt_is_nonwritable_in_current_image 1002840e f   LIBCMT:utility.obj
 0001:000274a2       ___scrt_release_startup_lock 100284a2 f   LIBCMT:utility.obj
 0001:000274bf       ___scrt_uninitialize_crt   100284bf f   LIBCMT:utility.obj
 0001:000274e7       __onexit                   100284e7 f   LIBCMT:utility.obj
 0001:00027514       _at_quick_exit             10028514 f   LIBCMT:utility.obj
 0001:00027537       _atexit                    10028537 f   LIBCMT:utility.obj
 0001:0002754c       ___scrt_get_dyn_tls_init_callback 1002854c f   LIBCMT:dyn_tls_init.obj
 0001:00027552       ___scrt_fastfail           10028552 f   LIBCMT:utility_desktop.obj
 0001:0002766c       ___scrt_get_show_window_mode 1002866c f   LIBCMT:utility_desktop.obj
 0001:0002769d       ___scrt_initialize_mta     1002869d f   LIBCMT:utility_desktop.obj
 0001:000276a2       ___scrt_initialize_winrt   100286a2 f   LIBCMT:utility_desktop.obj
 0001:000276a5       ___scrt_is_managed_app     100286a5 f   LIBCMT:utility_desktop.obj
 0001:000276e8       ___scrt_set_unhandled_exception_filter 100286e8 f   LIBCMT:utility_desktop.obj
 0001:000276f4       ___scrt_exe_initialize_mta 100286f4 f   LIBCMT:utility_desktop.obj
 0001:000276f4       ___scrt_stub_for_initialize_mta 100286f4 f   LIBCMT:utility_desktop.obj
 0001:000276f7       ___scrt_unhandled_exception_filter@4 100286f7 f   LIBCMT:utility_desktop.obj
 0001:0002774d       __crt_debugger_hook        1002874d f   LIBCMT:utility_desktop.obj
 0001:00027755       __RTC_Initialize           10028755 f   LIBCMT:initsect.obj
 0001:00027781       __RTC_Terminate            10028781 f   LIBCMT:initsect.obj
 0001:000277b0       __SEH_prolog4              100287b0 f   LIBCMT:sehprolg4.obj
 0001:000277f4       __SEH_epilog4              100287f4 f   LIBCMT:sehprolg4.obj
 0001:00027810       ___common_sin_reduction_LA 10028810 f   LIBCMT:svml_dtrig.obj
 0001:00027b70       ___common_cos_reduction_LA 10028b70 f   LIBCMT:svml_dtrig.obj
 0001:00027e70       ___common_pi04_reduction_LA 10028e70 f   LIBCMT:svml_dtrig.obj
 0001:000281a0       ___common_ssin_cout_rare   100291a0 f   LIBCMT:svml_s_sin_cout.obj
 0001:00028211       __get_startup_argv_mode    10029211 f   LIBCMT:argv_mode.obj
 0001:00028215       ___scrt_is_ucrt_dll_in_use 10029215 f   LIBCMT:ucrt_detection.obj
 0001:00028221       @__security_check_cookie@4 10029221 f   LIBCMT:secchk.obj
 0001:00028232       ___raise_securityfailure   10029232 f   LIBCMT:gs_report.obj
 0001:0002825a       ___report_gsfailure        1002925a f   LIBCMT:gs_report.obj
 0001:00028353       ___report_rangecheckfailure 10029353 f   LIBCMT:gs_report.obj
 0001:0002835f       ___report_securityfailure  1002935f f   LIBCMT:gs_report.obj
 0001:0002842d       ___report_securityfailureEx 1002942d f   LIBCMT:gs_report.obj
 0001:00028541       ??$__crt_interlocked_exchange_pointer@$$A6AXXZP6AXXZ@@YAP6AXXZPDS6AXXZQ6AXXZ@Z 10029541 f i libvcruntime:purevirt.obj
 0001:0002854e       ??$__crt_interlocked_read_pointer@$$A6AXXZ@@YAP6AXXZPDS6AXXZ@Z 1002954e f i libvcruntime:purevirt.obj
 0001:00028558       ?__crt_interlocked_read_32@@YAHPDH@Z 10029558 f i libvcruntime:purevirt.obj
 0001:00028562       __get_purecall_handler     10029562 f   libvcruntime:purevirt.obj
 0001:00028568       __purecall                 10029568 f   libvcruntime:purevirt.obj
 0001:00028584       __set_purecall_handler     10029584 f   libvcruntime:purevirt.obj
 0001:000285a1       ??$?RD@__crt_internal_free_policy@@QBEXQBD@Z 100295a1 f i libvcruntime:std_type_info.obj
 0001:000285b1       ??$?RX@__crt_internal_free_policy@@QBEXQBX@Z 100295b1 f i libvcruntime:std_type_info.obj
 0001:000285c1       ??$__crt_interlocked_compare_exchange_pointer@$$CBDPAD$$T@@YAPBDPDSBDQAD$$T@Z 100295c1 f i libvcruntime:std_type_info.obj
 0001:000285d3       ??$__crt_interlocked_read_pointer@$$CBD@@YAPBDPDSBD@Z 100295d3 f i libvcruntime:std_type_info.obj
 0001:000285dd       ??0?$__crt_unique_heap_ptr@DU__crt_internal_free_policy@@@@QAE@QAD@Z 100295dd f i libvcruntime:std_type_info.obj
 0001:000285eb       ??0?$__crt_unique_heap_ptr@XU__crt_internal_free_policy@@@@QAE@QAX@Z 100295eb f i libvcruntime:std_type_info.obj
 0001:000285f9       ??1?$__crt_unique_heap_ptr@DU__crt_internal_free_policy@@@@QAE@XZ 100295f9 f i libvcruntime:std_type_info.obj
 0001:00028609       ??1?$__crt_unique_heap_ptr@XU__crt_internal_free_policy@@@@QAE@XZ 10029609 f i libvcruntime:std_type_info.obj
 0001:00028619       ??B?$__crt_unique_heap_ptr@DU__crt_internal_free_policy@@@@QBE_NXZ 10029619 f i libvcruntime:std_type_info.obj
 0001:00028620       ??B?$__crt_unique_heap_ptr@XU__crt_internal_free_policy@@@@QBE_NXZ 10029620 f i libvcruntime:std_type_info.obj
 0001:00028653       ?detach@?$__crt_unique_heap_ptr@XU__crt_internal_free_policy@@@@QAEPAXXZ 10029653 f i libvcruntime:std_type_info.obj
 0001:00028659       ?get@?$__crt_unique_heap_ptr@DU__crt_internal_free_policy@@@@QBEPADXZ 10029659 f i libvcruntime:std_type_info.obj
 0001:0002865c       ?get@?$__crt_unique_heap_ptr@XU__crt_internal_free_policy@@@@QBEPAXXZ 1002965c f i libvcruntime:std_type_info.obj
 0001:0002865f       ?is_valid@?$__crt_unique_heap_ptr@DU__crt_internal_free_policy@@@@QBE_NXZ 1002965f f i libvcruntime:std_type_info.obj
 0001:00028666       ?is_valid@?$__crt_unique_heap_ptr@XU__crt_internal_free_policy@@@@QBE_NXZ 10029666 f i libvcruntime:std_type_info.obj
 0001:0002866d       ?release@?$__crt_unique_heap_ptr@DU__crt_internal_free_policy@@@@QAEXXZ 1002966d f i libvcruntime:std_type_info.obj
 0001:0002867d       ?release@?$__crt_unique_heap_ptr@XU__crt_internal_free_policy@@@@QAEXXZ 1002967d f i libvcruntime:std_type_info.obj
 0001:0002868d       ___std_type_info_compare   1002968d f   libvcruntime:std_type_info.obj
 0001:000286c9       ___std_type_info_destroy_list 100296c9 f   libvcruntime:std_type_info.obj
 0001:000286ec       ___std_type_info_hash      100296ec f   libvcruntime:std_type_info.obj
 0001:00028712       ___std_type_info_name      10029712 f   libvcruntime:std_type_info.obj
 0001:000287e0       _memset                    100297e0 f   libvcruntime:memset.obj
 0001:00028940       _memcpy                    10029940 f   libvcruntime:memcpy.obj
 0001:00028ec0       _strstr                    10029ec0 f   libvcruntime:strstr.obj
 0001:00029170       __except_handler4          1002a170 f   libvcruntime:chandler4.obj
 0001:000292ce       ___vcrt_initialize         1002a2ce f   libvcruntime:initialization.obj
 0001:000292ed       ___vcrt_thread_attach      1002a2ed f   libvcruntime:initialization.obj
 0001:000292f8       ___vcrt_thread_detach      1002a2f8 f   libvcruntime:initialization.obj
 0001:00029303       ___vcrt_uninitialize       1002a303 f   libvcruntime:initialization.obj
 0001:0002931a       ___vcrt_uninitialize_critical 1002a31a f   libvcruntime:initialization.obj
 0001:00029325       ___DestructExceptionObject 1002a325 f   libvcruntime:ehhelpers.obj
 0001:000293c6       ?_CallMemberFunction0@@YGXQAX0@Z 1002a3c6 f i libvcruntime:ehhelpers.obj
 0001:0002942b       ?raw_name@type_info@@QBEPBDXZ 1002a42b f i libvcruntime:ehhelpers.obj
 0001:0002942f       __IsExceptionObjectToBeDestroyed 1002a42f f   libvcruntime:ehhelpers.obj
 0001:00029455       __SetWinRTOutOfMemoryExceptionCallback 1002a455 f   libvcruntime:ehhelpers.obj
 0001:00029462       ___AdjustPointer           1002a462 f   libvcruntime:ehhelpers.obj
 0001:00029487       ___FrameUnwindFilter       1002a487 f   libvcruntime:ehhelpers.obj
 0001:000294dd       ___GetPlatformExceptionInfo 1002a4dd f   libvcruntime:ehhelpers.obj
 0001:00029529       ___current_exception       1002a529 f   libvcruntime:ehhelpers.obj
 0001:00029532       ___current_exception_context 1002a532 f   libvcruntime:ehhelpers.obj
 0001:0002953b       ___processing_throw        1002a53b f   libvcruntime:ehhelpers.obj
 0001:00029544       ___std_terminate           1002a544 f   libvcruntime:ehhelpers.obj
 0001:00029549       __is_exception_typeof      1002a549 f   libvcruntime:ehhelpers.obj
 0001:000295ed       ??$?0$00@DName@@QAE@PBDU?$StringLifeSelector@$00@@@Z 1002a5ed f i libvcruntime:undname.obj
 0001:00029620       ??$?0$00@pcharNode@@QAE@PBDHU?$StringLifeSelector@$00@@@Z 1002a620 f i libvcruntime:undname.obj
 0001:0002963b       ??$?0$01@DName@@QAE@PBDU?$StringLifeSelector@$01@@@Z 1002a63b f i libvcruntime:undname.obj
 0001:0002966e       ??$?0$01@pcharNode@@QAE@PBDHU?$StringLifeSelector@$01@@@Z 1002a66e f i libvcruntime:undname.obj
 0001:000296ae       ??$?0$0A@@DName@@QAE@PBDU?$StringLifeSelector@$0A@@@@Z 1002a6ae f i libvcruntime:undname.obj
 0001:000296e1       ??$?0$0A@@pcharNode@@QAE@PBDHU?$StringLifeSelector@$0A@@@@Z 1002a6e1 f i libvcruntime:undname.obj
 0001:00029721       ??$?0_K$0A@@?$optional@_K@std@@QAE@$$QA_K@Z 1002a721 f i libvcruntime:undname.obj
 0001:0002973b       ??$?0_K@?$_Optional_construct_base@_K@std@@QAE@Uin_place_t@1@$$QA_K@Z 1002a73b f i libvcruntime:undname.obj
 0001:00029755       ??$?0_K@?$_Optional_destruct_base@_K$00@std@@QAE@Uin_place_t@1@$$QA_K@Z 1002a755 f i libvcruntime:undname.obj
 0001:0002976f       ??$append@VDNameNode@@@DName@@AAEXPBVDNameNode@@@Z 1002a76f f i libvcruntime:undname.obj
 0001:000297b0       ??$append@VDNameStatusNode@@@DName@@AAEXPBVDNameStatusNode@@@Z 1002a7b0 f i libvcruntime:undname.obj
 0001:000297f1       ??$append@VcharNode@@@DName@@AAEXPBVcharNode@@@Z 1002a7f1 f i libvcruntime:undname.obj
 0001:00029832       ??$append@VpDNameNode@@@DName@@AAEXPBVpDNameNode@@@Z 1002a832 f i libvcruntime:undname.obj
 0001:00029873       ??$append@VpcharNode@@@DName@@AAEXPBVpcharNode@@@Z 1002a873 f i libvcruntime:undname.obj
 0001:000298b4       ??$doPchar@$00@DName@@AAEXPBDH@Z 1002a8b4 f i libvcruntime:undname.obj
 0001:0002991f       ??$doPchar@$01@DName@@AAEXPBDH@Z 1002a91f f i libvcruntime:undname.obj
 0001:00029990       ??$doPchar@$0A@@DName@@AAEXPBDH@Z 1002a990 f i libvcruntime:undname.obj
 0001:00029a01       ??$forward@_K@std@@YA$$QA_KAA_K@Z 1002aa01 f i libvcruntime:undname.obj
 0001:00029a09       ??$size@D$04@std@@YAIAAY04$$CBD@Z 1002aa09 f i libvcruntime:undname.obj
 0001:00029a0d       ??$size@D$0EB@@std@@YAIAAY0EB@$$CBD@Z 1002aa0d f i libvcruntime:undname.obj
 0001:00029a11       ??0?$_Optional_construct_base@_K@std@@QAE@XZ 1002aa11 f i libvcruntime:undname.obj
 0001:00029a1b       ??0?$_Optional_destruct_base@_K$00@std@@QAE@XZ 1002aa1b f i libvcruntime:undname.obj
 0001:00029a25       ??0?$optional@_K@std@@QAE@XZ 1002aa25 f i libvcruntime:undname.obj
 0001:00029a32       ??0Block@_HeapManager@@QAE@XZ 1002aa32 f i libvcruntime:undname.obj
 0001:00029a38       ??0DName@@QAE@AAPBDD@Z     1002aa38 f   libvcruntime:undname.obj
 0001:00029ab8       ??0DName@@QAE@ABUStringLiteral@@@Z 1002aab8 f   libvcruntime:undname.obj
 0001:00029adf       ??0DName@@QAE@ABV0@@Z      1002aadf f i libvcruntime:undname.obj
 0001:00029af5       ??0DName@@QAE@D@Z          1002aaf5 f   libvcruntime:undname.obj
 0001:00029b11       ??0DName@@QAE@PAV0@@Z      1002ab11 f   libvcruntime:undname.obj
 0001:00029b58       ??0DName@@QAE@W4DNameStatus@@@Z 1002ab58 f   libvcruntime:undname.obj
 0001:00029b98       ??0DName@@QAE@XZ           1002ab98 f i libvcruntime:undname.obj
 0001:00029ba2       ??0DName@@QAE@_J@Z         1002aba2 f   libvcruntime:undname.obj
 0001:00029c2e       ??0DName@@QAE@_K@Z         1002ac2e f   libvcruntime:undname.obj
 0001:00029c94       ??0DNameNode@@IAE@XZ       1002ac94 f i libvcruntime:undname.obj
 0001:00029c9d       ??0Replicator@@QAE@XZ      1002ac9d f i libvcruntime:undname.obj
 0001:00029cac       ??0UnDecorator@@QAE@PBDP6APADJ@ZK@Z 1002acac f i libvcruntime:undname.obj
 0001:00029cf8       ??0charNode@@QAE@D@Z       1002acf8 f i libvcruntime:undname.obj
 0001:00029d0d       ??0pDNameNode@@QAE@PAVDName@@@Z 1002ad0d f   libvcruntime:undname.obj
 0001:00029d35       ??0pairNode@@QAE@PBVDNameNode@@0@Z 1002ad35 f i libvcruntime:undname.obj
 0001:00029d5b       ??2@YAPAXIAAV_HeapManager@@H@Z 1002ad5b f   libvcruntime:undname.obj
 0001:00029d7a       ??4DName@@QAEAAV0@ABUStringLiteral@@@Z 1002ad7a f   libvcruntime:undname.obj
 0001:00029d9b       ??4DName@@QAEAAV0@ABV0@@Z  1002ad9b f   libvcruntime:undname.obj
 0001:00029db1       ??4DName@@QAEAAV0@D@Z      1002adb1 f i libvcruntime:undname.obj
 0001:00029dcd       ??4DName@@QAEAAV0@PAV0@@Z  1002adcd f   libvcruntime:undname.obj
 0001:00029e10       ??4DName@@QAEAAV0@W4DNameStatus@@@Z 1002ae10 f   libvcruntime:undname.obj
 0001:00029e42       ??AReplicator@@QBE?AVDName@@H@Z 1002ae42 f   libvcruntime:undname.obj
 0001:00029e88       ??B?$optional@_K@std@@QBE_NXZ 1002ae88 f i libvcruntime:undname.obj
 0001:00029e8c       ??D?$optional@_K@std@@QGAEAA_KXZ 1002ae8c f i libvcruntime:undname.obj
 0001:00029e8f       ??H@YA?AVDName@@ABUStringLiteral@@ABV0@@Z 1002ae8f f i libvcruntime:undname.obj
 0001:00029eb1       ??H@YA?AVDName@@DABV0@@Z   1002aeb1 f i libvcruntime:undname.obj
 0001:00029edc       ??H@YA?AVDName@@W4DNameStatus@@ABV0@@Z 1002aedc f i libvcruntime:undname.obj
 0001:00029efe       ??HDName@@QBE?AV0@ABUStringLiteral@@@Z 1002aefe f   libvcruntime:undname.obj
 0001:00029f20       ??HDName@@QBE?AV0@ABV0@@Z  1002af20 f   libvcruntime:undname.obj
 0001:00029f42       ??HDName@@QBE?AV0@D@Z      1002af42 f   libvcruntime:undname.obj
 0001:00029f64       ??HDName@@QBE?AV0@PAV0@@Z  1002af64 f   libvcruntime:undname.obj
 0001:00029f86       ??HDName@@QBE?AV0@W4DNameStatus@@@Z 1002af86 f   libvcruntime:undname.obj
 0001:00029fa8       ??HStringLiteral@@QBE?AU0@H@Z 1002afa8 f i libvcruntime:undname.obj
 0001:00029fc2       ??YDName@@QAEAAV0@ABUStringLiteral@@@Z 1002afc2 f   libvcruntime:undname.obj
 0001:0002a01a       ??YDName@@QAEAAV0@ABV0@@Z  1002b01a f   libvcruntime:undname.obj
 0001:0002a071       ??YDName@@QAEAAV0@D@Z      1002b071 f   libvcruntime:undname.obj
 0001:0002a0c6       ??YDName@@QAEAAV0@PAV0@@Z  1002b0c6 f   libvcruntime:undname.obj
 0001:0002a12a       ??YDName@@QAEAAV0@W4DNameStatus@@@Z 1002b12a f   libvcruntime:undname.obj
 0001:0002a16a       ??YReplicator@@QAEAAV0@ABVDName@@@Z 1002b16a f   libvcruntime:undname.obj
 0001:0002a1a8       ??_5DName@@QAEAAV0@ABV0@@Z 1002b1a8 f   libvcruntime:undname.obj
 0001:0002a1c4       ??__K_l@@YA?AUStringLiteral@@PBDI@Z 1002b1c4 f i libvcruntime:undname.obj
 0001:0002a1cf       ?Constructor@_HeapManager@@QAEXP6APAXI@ZP6AXPAX@Z@Z 1002b1cf f i libvcruntime:undname.obj
 0001:0002a1ec       ?Destructor@_HeapManager@@QAEXXZ 1002b1ec f i libvcruntime:undname.obj
 0001:0002a233       ?UScore@UnDecorator@@SA?AUStringLiteral@@W4Tokens@@@Z 1002b233 f   libvcruntime:undname.obj
 0001:0002a25a       ?composeDeclaration@UnDecorator@@CA?AVDName@@ABV2@@Z 1002b25a f i libvcruntime:undname.obj
 0001:0002af8d       ?doAccessSpecifiers@UnDecorator@@SAHXZ 1002bf8d f i libvcruntime:undname.obj
 0001:0002af9b       ?doAllocationLanguage@UnDecorator@@SAHXZ 1002bf9b f i libvcruntime:undname.obj
 0001:0002afa9       ?doAllocationModel@UnDecorator@@SAHXZ 1002bfa9 f i libvcruntime:undname.obj
 0001:0002afb7       ?doEcsu@UnDecorator@@SAHXZ 1002bfb7 f i libvcruntime:undname.obj
 0001:0002afc5       ?doEllipsis@UnDecorator@@SAHXZ 1002bfc5 f i libvcruntime:undname.obj
 0001:0002afd3       ?doFunctionReturns@UnDecorator@@SAHXZ 1002bfd3 f i libvcruntime:undname.obj
 0001:0002afe1       ?doMSKeywords@UnDecorator@@SAHXZ 1002bfe1 f i libvcruntime:undname.obj
 0001:0002afee       ?doMemberTypes@UnDecorator@@SAHXZ 1002bfee f i libvcruntime:undname.obj
 0001:0002afff       ?doNameOnly@UnDecorator@@SAHXZ 1002bfff f i libvcruntime:undname.obj
 0001:0002b00a       ?doNoIdentCharCheck@UnDecorator@@SAHXZ 1002c00a f i libvcruntime:undname.obj
 0001:0002b015       ?doPchar@DName@@AAEXD@Z    1002c015 f   libvcruntime:undname.obj
 0001:0002b04d       ?doPtr64@UnDecorator@@SAHXZ 1002c04d f i libvcruntime:undname.obj
 0001:0002b05b       ?doRestrictionSpec@UnDecorator@@SAHXZ 1002c05b f i libvcruntime:undname.obj
 0001:0002b069       ?doThisTypes@UnDecorator@@SAHXZ 1002c069 f i libvcruntime:undname.obj
 0001:0002b07b       ?doThrowTypes@UnDecorator@@SAHXZ 1002c07b f i libvcruntime:undname.obj
 0001:0002b089       ?doTypeOnly@UnDecorator@@SAHXZ 1002c089 f i libvcruntime:undname.obj
 0001:0002b094       ?doUnderScore@UnDecorator@@SAHXZ 1002c094 f i libvcruntime:undname.obj
 0001:0002b09f       ?getArgumentList@UnDecorator@@CA?AVDName@@XZ 1002c09f f   libvcruntime:undname.obj
 0001:0002b1ac       ?getArgumentTypes@UnDecorator@@CA?AVDName@@XZ 1002c1ac f   libvcruntime:undname.obj
 0001:0002b2c5       ?getArrayObject@UnDecorator@@CA?AVDName@@XZ 1002c2c5 f   libvcruntime:undname.obj
 0001:0002b367       ?getArrayType@UnDecorator@@CA?AVDName@@ABV2@@Z 1002c367 f i libvcruntime:undname.obj
 0001:0002b504       ?getBasedType@UnDecorator@@CA?AVDName@@XZ 1002c504 f   libvcruntime:undname.obj
 0001:0002b5bf       ?getBasicDataType@UnDecorator@@CA?AVDName@@ABV2@@Z 1002c5bf f   libvcruntime:undname.obj
 0001:0002bab2       ?getCHPEName@UnDecorator@@QAEPADPADH@Z 1002cab2 f i libvcruntime:undname.obj
 0001:0002bb8f       ?getCallIndex@UnDecorator@@CA?AVDName@@XZ 1002cb8f f i libvcruntime:undname.obj
 0001:0002bba3       ?getCallingConvention@UnDecorator@@CA?AVDName@@XZ 1002cba3 f   libvcruntime:undname.obj
 0001:0002bc80       ?getDataIndirectType@UnDecorator@@CA?AVDName@@ABV2@W4IndirectionKind@@0H@Z 1002cc80 f   libvcruntime:undname.obj
 0001:0002c316       ?getDataIndirectType@UnDecorator@@CA?AVDName@@XZ 1002d316 f i libvcruntime:undname.obj
 0001:0002c344       ?getDataType@UnDecorator@@CA?AVDName@@PAV2@@Z 1002d344 f   libvcruntime:undname.obj
 0001:0002c41b       ?getDecoratedName@UnDecorator@@CA?AVDName@@XZ 1002d41b f   libvcruntime:undname.obj
 0001:0002c685       ?getDimension@UnDecorator@@CA?AVDName@@_N@Z 1002d685 f   libvcruntime:undname.obj
 0001:0002c79c       ?getDispatchTarget@UnDecorator@@CA?AVDName@@XZ 1002d79c f   libvcruntime:undname.obj
 0001:0002c7f0       ?getDisplacement@UnDecorator@@CA?AVDName@@XZ 1002d7f0 f i libvcruntime:undname.obj
 0001:0002c804       ?getECSUDataType@UnDecorator@@CA?AVDName@@XZ 1002d804 f   libvcruntime:undname.obj
 0001:0002c994       ?getECSUName@UnDecorator@@CA?AVDName@@XZ 1002d994 f i libvcruntime:undname.obj
 0001:0002c9a5       ?getEnumType@UnDecorator@@CA?AVDName@@XZ 1002d9a5 f i libvcruntime:undname.obj
 0001:0002cac5       ?getExtendedDataIndirectType@UnDecorator@@CA?AVDName@@AAW4IndirectionKind@@AA_NH@Z 1002dac5 f   libvcruntime:undname.obj
 0001:0002cc78       ?getExternalDataType@UnDecorator@@CA?AVDName@@ABV2@@Z 1002dc78 f i libvcruntime:undname.obj
 0001:0002ccdd       ?getFloatingPoint@UnDecorator@@CA?AVDName@@H@Z 1002dcdd f   libvcruntime:undname.obj
 0001:0002cdc9       ?getFunctionIndirectType@UnDecorator@@CA?AVDName@@ABV2@@Z 1002ddc9 f   libvcruntime:undname.obj
 0001:0002d182       ?getGuardNumber@UnDecorator@@CA?AVDName@@XZ 1002e182 f i libvcruntime:undname.obj
 0001:0002d196       ?getLastChar@DName@@QBEDXZ 1002e196 f i libvcruntime:undname.obj
 0001:0002d1b6       ?getLastChar@DNameStatusNode@@UBEDXZ 1002e1b6 f i libvcruntime:undname.obj
 0001:0002d1c2       ?getLastChar@charNode@@UBEDXZ 1002e1c2 f i libvcruntime:undname.obj
 0001:0002d1c6       ?getLastChar@pDNameNode@@UBEDXZ 1002e1c6 f i libvcruntime:undname.obj
 0001:0002d1d4       ?getLastChar@pairNode@@UBEDXZ 1002e1d4 f i libvcruntime:undname.obj
 0001:0002d209       ?getLastChar@pcharNode@@UBEDXZ 1002e209 f i libvcruntime:undname.obj
 0001:0002d21b       ?getLexicalFrame@UnDecorator@@CA?AVDName@@XZ 1002e21b f i libvcruntime:undname.obj
 0001:0002d24c       ?getMemoryWithBuffer@_HeapManager@@QAEPAXI@Z 1002e24c f   libvcruntime:undname.obj
 0001:0002d2b6       ?getMemoryWithoutBuffer@_HeapManager@@QAEPAXI@Z 1002e2b6 f   libvcruntime:undname.obj
 0001:0002d2d6       ?getNoexcept@UnDecorator@@CA?AVDName@@XZ 1002e2d6 f   libvcruntime:undname.obj
 0001:0002d32a       ?getNumberOfDimensions@UnDecorator@@CAHXZ 1002e32a f   libvcruntime:undname.obj
 0001:0002d38b       ?getOperatorName@UnDecorator@@CA?AVDName@@_NPA_N@Z 1002e38b f i libvcruntime:undname.obj
 0001:0002da31       ?getPointerType@UnDecorator@@CA?AVDName@@ABV2@0@Z 1002ea31 f i libvcruntime:undname.obj
 0001:0002da4c       ?getPointerTypeArray@UnDecorator@@CA?AVDName@@ABV2@0@Z 1002ea4c f i libvcruntime:undname.obj
 0001:0002da67       ?getPrimaryDataType@UnDecorator@@CA?AVDName@@ABV2@@Z 1002ea67 f   libvcruntime:undname.obj
 0001:0002dc86       ?getPtrRefDataType@UnDecorator@@CA?AVDName@@ABV2@H@Z 1002ec86 f   libvcruntime:undname.obj
 0001:0002ddf3       ?getPtrRefType@UnDecorator@@CA?AVDName@@ABV2@0W4IndirectionKind@@@Z 1002edf3 f   libvcruntime:undname.obj
 0001:0002df04       ?getReferenceType@UnDecorator@@CA?AVDName@@ABV2@0W4IndirectionKind@@@Z 1002ef04 f i libvcruntime:undname.obj
 0001:0002df20       ?getRestrictionSpec@UnDecorator@@CA?AVDName@@XZ 1002ef20 f   libvcruntime:undname.obj
 0001:0002e049       ?getReturnType@UnDecorator@@CA?AVDName@@PAV2@@Z 1002f049 f   libvcruntime:undname.obj
 0001:0002e078       ?getScope@UnDecorator@@CA?AVDName@@XZ 1002f078 f   libvcruntime:undname.obj
 0001:0002e42a       ?getScopedName@UnDecorator@@CA?AVDName@@XZ 1002f42a f   libvcruntime:undname.obj
 0001:0002e515       ?getSignedDimension@UnDecorator@@CA?AVDName@@XZ 1002f515 f   libvcruntime:undname.obj
 0001:0002e566       ?getStorageConvention@UnDecorator@@CA?AVDName@@XZ 1002f566 f i libvcruntime:undname.obj
 0001:0002e577       ?getString@DName@@QBEPADPAD0@Z 1002f577 f i libvcruntime:undname.obj
 0001:0002e5a4       ?getString@DName@@QBEPADPADH@Z 1002f5a4 f i libvcruntime:undname.obj
 0001:0002e5f9       ?getString@DNameStatusNode@@UBEPADPAD0@Z 1002f5f9 f i libvcruntime:undname.obj
 0001:0002e63f       ?getString@charNode@@UBEPADPAD0@Z 1002f63f f i libvcruntime:undname.obj
 0001:0002e654       ?getString@pDNameNode@@UBEPADPAD0@Z 1002f654 f i libvcruntime:undname.obj
 0001:0002e66b       ?getString@pairNode@@UBEPADPAD0@Z 1002f66b f i libvcruntime:undname.obj
 0001:0002e6b1       ?getString@pcharNode@@UBEPADPAD0@Z 1002f6b1 f i libvcruntime:undname.obj
 0001:0002e6cc       ?getStringEncoding@UnDecorator@@CA?AVDName@@W4PrefixKind@@H@Z 1002f6cc f   libvcruntime:undname.obj
 0001:0002e784       ?getStringHelper@@YAPADPADPBD1H@Z 1002f784 f i libvcruntime:undname.obj
 0001:0002e7ae       ?getStringObject@UnDecorator@@CA?AVDName@@XZ 1002f7ae f   libvcruntime:undname.obj
 0001:0002e805       ?getSymbolName@UnDecorator@@CA?AVDName@@XZ 1002f805 f i libvcruntime:undname.obj
 0001:0002e84d       ?getTemplateArgumentList@UnDecorator@@CA?AVDName@@XZ 1002f84d f   libvcruntime:undname.obj
 0001:0002ea09       ?getTemplateName@UnDecorator@@CA?AVDName@@_N@Z 1002fa09 f   libvcruntime:undname.obj
 0001:0002eb6a       ?getTemplateNonTypeArgument@UnDecorator@@CA?AVDName@@XZ 1002fb6a f   libvcruntime:undname.obj
 0001:0002ee70       ?getTemplateTypeArgument@UnDecorator@@CA?AVDName@@XZ 1002fe70 f   libvcruntime:undname.obj
 0001:0002ef76       ?getThisType@UnDecorator@@CA?AVDName@@XZ 1002ff76 f i libvcruntime:undname.obj
 0001:0002efa5       ?getThrowTypes@UnDecorator@@CA?AVDName@@XZ 1002ffa5 f   libvcruntime:undname.obj
 0001:0002efc8       ?getTypeEncoding@UnDecorator@@CAHXZ 1002ffc8 f i libvcruntime:undname.obj
 0001:0002f2f8       ?getUndecoratedName@UnDecorator@@QAEPADPADH@Z 100302f8 f i libvcruntime:undname.obj
 0001:0002f417       ?getVCallThunkType@UnDecorator@@CA?AVDName@@XZ 10030417 f i libvcruntime:undname.obj
 0001:0002f46d       ?getValue@UnDecorator@@CA?AV?$optional@_K@std@@XZ 1003046d f   libvcruntime:undname.obj
 0001:0002f4e2       ?getValueObject@UnDecorator@@CA?AVDName@@XZ 100304e2 f   libvcruntime:undname.obj
 0001:0002f5d5       ?getVbTableType@UnDecorator@@CA?AVDName@@ABV2@@Z 100305d5 f i libvcruntime:undname.obj
 0001:0002f5ea       ?getVdispMapType@UnDecorator@@CA?AVDName@@ABV2@@Z 100305ea f i libvcruntime:undname.obj
 0001:0002f64b       ?getVfTableType@UnDecorator@@CA?AVDName@@ABV2@@Z 1003064b f i libvcruntime:undname.obj
 0001:0002f7a1       ?getZName@UnDecorator@@CA?AVDName@@_N0@Z 100307a1 f   libvcruntime:undname.obj
 0001:0002f9b6       ?haveTemplateParameters@UnDecorator@@SAHXZ 100309b6 f i libvcruntime:undname.obj
 0001:0002f9c1       ?isArray@DName@@QBEHXZ     100309c1 f i libvcruntime:undname.obj
 0001:0002f9cb       ?isComArray@DName@@QBEHXZ  100309cb f i libvcruntime:undname.obj
 0001:0002f9d5       ?isEmpty@DName@@QBEHXZ     100309d5 f i libvcruntime:undname.obj
 0001:0002f9dd       ?isFull@Replicator@@QBEHXZ 100309dd f i libvcruntime:undname.obj
 0001:0002f9e6       ?isNoTE@DName@@QBEHXZ      100309e6 f i libvcruntime:undname.obj
 0001:0002f9f0       ?isPinPtr@DName@@QBEHXZ    100309f0 f i libvcruntime:undname.obj
 0001:0002f9fa       ?isPtrRef@DName@@QBEHXZ    100309fa f i libvcruntime:undname.obj
 0001:0002fa04       ?isUDC@DName@@QBEHXZ       10030a04 f i libvcruntime:undname.obj
 0001:0002fa15       ?isUDTThunk@DName@@QBEHXZ  10030a15 f i libvcruntime:undname.obj
 0001:0002fa26       ?isVCallThunk@DName@@QBEHXZ 10030a26 f i libvcruntime:undname.obj
 0001:0002fa30       ?isValid@DName@@QBEHXZ     10030a30 f i libvcruntime:undname.obj
 0001:0002fa3a       ?length@DName@@QBEHXZ      10030a3a f i libvcruntime:undname.obj
 0001:0002fa59       ?length@DNameStatusNode@@UBEHXZ 10030a59 f i libvcruntime:undname.obj
 0001:0002fa5d       ?length@charNode@@UBEHXZ   10030a5d f i libvcruntime:undname.obj
 0001:0002fa61       ?length@pDNameNode@@UBEHXZ 10030a61 f i libvcruntime:undname.obj
 0001:0002fa6f       ?length@pairNode@@UBEHXZ   10030a6f f i libvcruntime:undname.obj
 0001:0002fab8       ?length@pcharNode@@UBEHXZ  10030ab8 f i libvcruntime:undname.obj
 0001:0002fabc       ?make@DNameStatusNode@@SAPBV1@W4DNameStatus@@@Z 10030abc f i libvcruntime:undname.obj
 0001:0002fad8       ?parseDecoratedName@UnDecorator@@CA?AVDName@@XZ 10030ad8 f   libvcruntime:undname.obj
 0001:0002fbd2       ?raw_length@DNameStatusNode@@UBEHXZ 10030bd2 f i libvcruntime:undname.obj
 0001:0002fbd6       ?raw_length@charNode@@UBEHXZ 10030bd6 f i libvcruntime:undname.obj
 0001:0002fbda       ?raw_length@pDNameNode@@UBEHXZ 10030bda f i libvcruntime:undname.obj
 0001:0002fbde       ?raw_length@pairNode@@UBEHXZ 10030bde f i libvcruntime:undname.obj
 0001:0002fbe2       ?raw_length@pcharNode@@UBEHXZ 10030be2 f i libvcruntime:undname.obj
 0001:0002fbe6       ?setIsArray@DName@@QAEXXZ  10030be6 f i libvcruntime:undname.obj
 0001:0002fbee       ?setIsComArray@DName@@QAEXXZ 10030bee f i libvcruntime:undname.obj
 0001:0002fbf6       ?setIsNoTE@DName@@QAEXXZ   10030bf6 f i libvcruntime:undname.obj
 0001:0002fbfe       ?setIsPinPtr@DName@@QAEXXZ 10030bfe f i libvcruntime:undname.obj
 0001:0002fc06       ?setIsUDC@DName@@QAEXXZ    10030c06 f i libvcruntime:undname.obj
 0001:0002fc13       ?setIsVCallThunk@DName@@QAEXXZ 10030c13 f i libvcruntime:undname.obj
 0001:0002fc1b       ?setPtrRef@DName@@QAEAAV1@XZ 10030c1b f i libvcruntime:undname.obj
 0001:0002fc25       ?status@DName@@QBE?AW4DNameStatus@@XZ 10030c25 f i libvcruntime:undname.obj
 0001:0002fc91       ___unDName                 10030c91 f   libvcruntime:undname.obj
 0001:0002fcb4       ___unDNameEx               10030cb4 f   libvcruntime:undname.obj
 0001:0002fd53       __vsprintf_s_l             10030d53 f i libvcruntime:undname.obj
 0001:0002fd80       _sprintf_s                 10030d80 f i libvcruntime:undname.obj
 0001:0002fd9c       _unDNameGenerateCHPE       10030d9c f   libvcruntime:undname.obj
 0001:0002fe40       _strchr                    10030e40 f   libvcruntime:strchr.obj
 0001:0002feae       ___from_strstr_to_strchr   10030eae     libvcruntime:strchr.obj
 0001:0002ff70       __local_unwind4            10030f70 f   libvcruntime:exsup4.obj
 0001:00030044       __seh_longjmp_unwind4@4    10031044 f   libvcruntime:exsup4.obj
 0001:0003006c       @_EH4_CallFilterFunc@8     1003106c f   libvcruntime:exsup4.obj
 0001:00030084       @_EH4_TransferToHandler@8  10031084 f   libvcruntime:exsup4.obj
 0001:000300a0       @_EH4_GlobalUnwind2@8      100310a0 f   libvcruntime:exsup4.obj
 0001:000300bc       @_EH4_LocalUnwind@16       100310bc f   libvcruntime:exsup4.obj
 0001:000300de       ___except_validate_context_record 100310de f   libvcruntime:jbcxrval.obj
 0001:0003010e       ___except_validate_jump_buffer 1003110e f   libvcruntime:jbcxrval.obj
 0001:0003013b       ___except_validate_jump_buffer_common 1003113b f i libvcruntime:jbcxrval.obj
 0001:00030174       ??$?RU__vcrt_ptd@@@__crt_internal_free_policy@@QBEXQBU__vcrt_ptd@@@Z 10031174 f i libvcruntime:per_thread_data.obj
 0001:00030184       ??0?$__crt_unique_heap_ptr@U__vcrt_ptd@@U__crt_internal_free_policy@@@@QAE@QAU__vcrt_ptd@@@Z 10031184 f i libvcruntime:per_thread_data.obj
 0001:000301a1       ??1?$__crt_unique_heap_ptr@U__vcrt_ptd@@U__crt_internal_free_policy@@@@QAE@XZ 100311a1 f i libvcruntime:per_thread_data.obj
 0001:000301ba       ??B?$__crt_unique_heap_ptr@U__vcrt_ptd@@U__crt_internal_free_policy@@@@QBE_NXZ 100311ba f i libvcruntime:per_thread_data.obj
 0001:000301c1       ?detach@?$__crt_unique_heap_ptr@U__vcrt_ptd@@U__crt_internal_free_policy@@@@QAEPAU__vcrt_ptd@@XZ 100311c1 f i libvcruntime:per_thread_data.obj
 0001:000301c7       ?get@?$__crt_unique_heap_ptr@U__vcrt_ptd@@U__crt_internal_free_policy@@@@QBEPAU__vcrt_ptd@@XZ 100311c7 f i libvcruntime:per_thread_data.obj
 0001:000301ca       ?is_valid@?$__crt_unique_heap_ptr@U__vcrt_ptd@@U__crt_internal_free_policy@@@@QBE_NXZ 100311ca f i libvcruntime:per_thread_data.obj
 0001:000301d1       ?release@?$__crt_unique_heap_ptr@U__vcrt_ptd@@U__crt_internal_free_policy@@@@QAEXXZ 100311d1 f i libvcruntime:per_thread_data.obj
 0001:000301fb       ___vcrt_freefls@4          100311fb f   libvcruntime:per_thread_data.obj
 0001:00030217       ___vcrt_freeptd            10031217 f   libvcruntime:per_thread_data.obj
 0001:0003024d       ___vcrt_getptd             1003124d f   libvcruntime:per_thread_data.obj
 0001:0003025b       ___vcrt_getptd_noexit      1003125b f   libvcruntime:per_thread_data.obj
 0001:000302ed       ___vcrt_getptd_noinit      100312ed f   libvcruntime:per_thread_data.obj
 0001:00030324       ___vcrt_initialize_ptd     10031324 f   libvcruntime:per_thread_data.obj
 0001:00030357       ___vcrt_uninitialize_ptd   10031357 f   libvcruntime:per_thread_data.obj
 0001:00030372       ___vcrt_initialize_locks   10031372 f   libvcruntime:locks.obj
 0001:000303ae       ___vcrt_lock               100313ae f   libvcruntime:locks.obj
 0001:000303c3       ___vcrt_uninitialize_locks 100313c3 f   libvcruntime:locks.obj
 0001:000303f2       ___vcrt_unlock             100313f2 f   libvcruntime:locks.obj
 0001:00030407       ??$?0AAViterator@TryBlockMap@__FrameHandler3@@AAV012@$0A@@?$pair@Viterator@TryBlockMap@__FrameHandler3@@V123@@std@@QAE@AAViterator@TryBlockMap@__FrameHandler3@@0@Z 10031407 f i libvcruntime:trnsctrl.obj
 0001:0003042b       ??$forward@AAViterator@TryBlockMap@__FrameHandler3@@@std@@YAAAViterator@TryBlockMap@__FrameHandler3@@AAV123@@Z 1003142b f i libvcruntime:trnsctrl.obj
 0001:00030433       ??0iterator@TryBlockMap@__FrameHandler3@@QAE@AAV12@I@Z 10031433 f i libvcruntime:trnsctrl.obj
 0001:00030447       ?GetRangeOfTrysToCheck@__FrameHandler3@@SA?AU?$pair@Viterator@TryBlockMap@__FrameHandler3@@V123@@std@@AAVTryBlockMap@1@HPAXPBU_s_FuncInfo@@H@Z 10031447 f   libvcruntime:trnsctrl.obj
 0001:000304b7       ?_CallCatchBlock2@@YAPAXPAUEHRegistrationNode@@PBU_s_FuncInfo@@PAXHK@Z 100314b7 f   libvcruntime:trnsctrl.obj
 0001:00030515       ?_CallSETranslator@@YAHPAUEHExceptionRecord@@PAUEHRegistrationNode@@PAX2PBU_s_FuncInfo@@H1@Z 10031515 f   libvcruntime:trnsctrl.obj
 0001:000305fb       ?_JumpToContinuation@@YGXPAXPAUEHRegistrationNode@@@Z 100315fb f   libvcruntime:trnsctrl.obj
 0001:0003062b       ?_UnwindNestedFrames@@YGXPAUEHRegistrationNode@@PAUEHExceptionRecord@@@Z 1003162b f   libvcruntime:trnsctrl.obj
 0001:0003067e       __CatchGuardHandler        1003167e f   libvcruntime:trnsctrl.obj
 0001:000306af       __CreateFrameInfo          100316af f   libvcruntime:trnsctrl.obj
 0001:000306d3       __FindAndUnlinkFrame       100316d3 f   libvcruntime:trnsctrl.obj
 0001:0003071b       __TranslatorGuardHandler   1003171b f   libvcruntime:trnsctrl.obj
 0001:000307b8       ___CxxFrameHandler         100317b8 f   libvcruntime:trnsctrl.obj
 0001:000307ee       ___CxxFrameHandler2        100317ee f   libvcruntime:trnsctrl.obj
 0001:00030824       ___CxxFrameHandler3        10031824 f   libvcruntime:trnsctrl.obj
 0001:0003085a       ___CxxLongjmpUnwind@4      1003185a f   libvcruntime:trnsctrl.obj
 0001:00030880       __global_unwind2           10031880 f   libvcruntime:exsup.obj
 0001:000308e6       __local_unwind2            100318e6 f   libvcruntime:exsup.obj
 0001:0003096a       __abnormal_termination     1003196a f   libvcruntime:exsup.obj
 0001:00030990       __NLG_Notify1              10031990 f   libvcruntime:exsup.obj
 0001:0003099c       __NLG_Notify               1003199c f   libvcruntime:exsup.obj
 0001:000309b3       __NLG_Dispatch             100319b3     libvcruntime:exsup.obj
 0001:000309b3       __NLG_Dispatch2            100319b3     libvcruntime:exsup.obj
 0001:000309bb       __NLG_Call                 100319bb f   libvcruntime:exsup.obj
 0001:000309bd       __NLG_Return2              100319bd     libvcruntime:exsup.obj
 0001:000309be       ??$__crt_interlocked_exchange_pointer@UHINSTANCE__@@PAU1@@@YAPAUHINSTANCE__@@PDSAU0@QAU0@@Z 100319be f i libvcruntime:winapi_downlevel.obj
 0001:000309cb       ??$__crt_interlocked_exchange_pointer@UHINSTANCE__@@PAX@@YAPAUHINSTANCE__@@PDSAU0@QAX@Z 100319cb f i libvcruntime:winapi_downlevel.obj
 0001:000309d8       ??$__crt_interlocked_exchange_pointer@XPAX@@YAPAXPDSAXQAX@Z 100319d8 f i libvcruntime:winapi_downlevel.obj
 0001:000309e5       ??$__crt_interlocked_read_pointer@UHINSTANCE__@@@@YAPAUHINSTANCE__@@PDSAU0@@Z 100319e5 f i libvcruntime:winapi_downlevel.obj
 0001:000309ef       ??$__crt_interlocked_read_pointer@X@@YAPAXPDSAX@Z 100319ef f i libvcruntime:winapi_downlevel.obj
 0001:00030c1e       ___vcrt_FlsAlloc           10031c1e f   libvcruntime:winapi_downlevel.obj
 0001:00030c59       ___vcrt_FlsFree            10031c59 f   libvcruntime:winapi_downlevel.obj
 0001:00030c94       ___vcrt_FlsGetValue        10031c94 f   libvcruntime:winapi_downlevel.obj
 0001:00030ccf       ___vcrt_FlsSetValue        10031ccf f   libvcruntime:winapi_downlevel.obj
 0001:00030d0d       ___vcrt_InitializeCriticalSectionEx 10031d0d f   libvcruntime:winapi_downlevel.obj
 0001:00031497       ??$TypeMatchHelper@V__FrameHandler3@@@@YAHPBU_s_HandlerType@@PBU_s_CatchableType@@PBU_s_ThrowInfo@@@Z 10032497 f i libvcruntime:frame.obj
 0001:00031525       ??$__InternalCxxFrameHandler@V__FrameHandler3@@@@YA?AW4_EXCEPTION_DISPOSITION@@PAUEHExceptionRecord@@PAUEHRegistrationNode@@PAU_CONTEXT@@PAXPBU_s_FuncInfo@@H1E@Z 10032525 f i libvcruntime:frame.obj
 0001:00031627       ??0HandlerMap@__FrameHandler3@@QAE@PBU_s_TryBlockMapEntry@@II@Z 10032627 f i libvcruntime:frame.obj
 0001:0003163e       ??0TryBlockMap@__FrameHandler3@@QAE@PBU_s_FuncInfo@@I@Z 1003263e f i libvcruntime:frame.obj
 0001:00031652       ??0bad_exception@std@@QAE@ABV01@@Z 10032652 f i libvcruntime:frame.obj
 0001:0003166d       ??0bad_exception@std@@QAE@XZ 1003266d f i libvcruntime:frame.obj
 0001:00031685       ??0exception@std@@QAE@ABV01@@Z 10032685 f i libvcruntime:frame.obj
 0001:000316b1       ??0exception@std@@QAE@QBDH@Z 100326b1 f i libvcruntime:frame.obj
 0001:000316ce       ??0iterator@HandlerMap@__FrameHandler3@@QAE@AAV12@I@Z 100326ce f i libvcruntime:frame.obj
 0001:000316e2       ??1bad_exception@std@@UAE@XZ 100326e2 f i libvcruntime:frame.obj
 0001:000316f3       ??1exception@std@@UAE@XZ   100326f3 f i libvcruntime:frame.obj
 0001:00031704       ??8iterator@HandlerMap@__FrameHandler3@@QBE_NABV012@@Z 10032704 f i libvcruntime:frame.obj
 0001:00031717       ??8type_info@@QBE_NABV0@@Z 10032717 f i libvcruntime:frame.obj
 0001:00031736       ??9iterator@HandlerMap@__FrameHandler3@@QBE_NABV012@@Z 10032736 f i libvcruntime:frame.obj
 0001:00031749       ??Diterator@HandlerMap@__FrameHandler3@@QAE?BU_s_HandlerType@@XZ 10032749 f i libvcruntime:frame.obj
 0001:00031768       ??Diterator@TryBlockMap@__FrameHandler3@@QAE?BU_s_TryBlockMapEntry@@XZ 10032768 f i libvcruntime:frame.obj
 0001:0003178a       ??Eiterator@HandlerMap@__FrameHandler3@@QAEAAV012@XZ 1003278a f i libvcruntime:frame.obj
 0001:00031790       ??Eiterator@TryBlockMap@__FrameHandler3@@QAEAAV012@XZ 10032790 f i libvcruntime:frame.obj
 0001:00031796       ??Miterator@TryBlockMap@__FrameHandler3@@QBE_NABV012@@Z 10032796 f i libvcruntime:frame.obj
 0001:000317a9       ??_Gbad_exception@std@@UAEPAXI@Z 100327a9 f i libvcruntime:frame.obj
 0001:000317a9       ??_Ebad_exception@std@@UAEPAXI@Z 100327a9 f i libvcruntime:frame.obj
 0001:000317d6       ??_Eexception@std@@UAEPAXI@Z 100327d6 f i libvcruntime:frame.obj
 0001:000317d6       ??_Gexception@std@@UAEPAXI@Z 100327d6 f i libvcruntime:frame.obj
 0001:00031803       ?BuildCatchObject@__FrameHandler3@@SAXPAUEHExceptionRecord@@PAXPBU_s_HandlerType@@PBU_s_CatchableType@@@Z 10032803 f   libvcruntime:frame.obj
 0001:00031808       ?BuildCatchObjectHelper@__FrameHandler3@@SAHPAUEHExceptionRecord@@PAXPBU_s_HandlerType@@PBU_s_CatchableType@@@Z 10032808 f   libvcruntime:frame.obj
 0001:00031a5e       ?FrameUnwindToEmptyState@__FrameHandler3@@SAXPAUEHRegistrationNode@@PAXPBU_s_FuncInfo@@@Z 10032a5e f   libvcruntime:frame.obj
 0001:00031a76       ?FrameUnwindToState@__FrameHandler3@@SAXPAUEHRegistrationNode@@PAXPBU_s_FuncInfo@@H@Z 10032a76 f   libvcruntime:frame.obj
 0001:00031b5e       ?GetMaxState@__FrameHandler3@@SAHPAXPBU_s_FuncInfo@@@Z 10032b5e f i libvcruntime:frame.obj
 0001:00031c3c       ?TypeMatch@__FrameHandler3@@SAHPBU_s_HandlerType@@PBU_s_CatchableType@@PBU_s_ThrowInfo@@@Z 10032c3c f   libvcruntime:frame.obj
 0001:00031c45       ?_CallMemberFunction1@@YGXQAX00@Z 10032c45 f i libvcruntime:frame.obj
 0001:00031c55       ?_CallMemberFunction2@@YGXQAX00H@Z 10032c55 f i libvcruntime:frame.obj
 0001:00031c68       ?begin@HandlerMap@__FrameHandler3@@QAE?AViterator@12@XZ 10032c68 f i libvcruntime:frame.obj
 0001:00031c78       ?end@HandlerMap@__FrameHandler3@@QAE?AViterator@12@XZ 10032c78 f i libvcruntime:frame.obj
 0001:00031c89       ?getESTypes@__FrameHandler3@@SAPBU_s_ESTypeList@@PBU_s_FuncInfo@@@Z 10032c89 f i libvcruntime:frame.obj
 0001:00031c94       ?getLastEntry@HandlerMap@__FrameHandler3@@QAEPBU_s_HandlerType@@XZ 10032c94 f i libvcruntime:frame.obj
 0001:00031ca2       ?getMagicNum@__FrameHandler3@@SAIPBU_s_FuncInfo@@@Z 10032ca2 f i libvcruntime:frame.obj
 0001:00031cb1       ?getNumTryBlocks@TryBlockMap@__FrameHandler3@@QAEIXZ 10032cb1 f i libvcruntime:frame.obj
 0001:00031cb7       ?isEHs@__FrameHandler3@@SA_NPBU_s_FuncInfo@@@Z 10032cb7 f i libvcruntime:frame.obj
 0001:00031cc4       ?isNoExcept@__FrameHandler3@@SA_NPBU_s_FuncInfo@@@Z 10032cc4 f i libvcruntime:frame.obj
 0001:00031cd4       ?what@exception@std@@UBEPBDXZ 10032cd4 f i libvcruntime:frame.obj
 0001:00031ce1       ___BuildCatchObject        10032ce1 f   libvcruntime:frame.obj
 0001:00031ce6       ___BuildCatchObjectHelper  10032ce6 f   libvcruntime:frame.obj
 0001:00031cef       ___TypeMatch               10032cef f   libvcruntime:frame.obj
 0001:00031cf8       ___vcrt_EncodePointer      10032cf8 f i libvcruntime:frame.obj
 0001:00031d10       __CallSettingFrame@12      10032d10 f   libvcruntime:lowhelpr.obj
 0001:00031d37       __NLG_Return               10032d37     libvcruntime:lowhelpr.obj
 0001:00031d70       __get_unexpected           10032d70 f   libvcruntime:unexpected.obj
 0001:00031d82       _set_unexpected            10032d82 f   libvcruntime:unexpected.obj
 0001:00031da0       _unexpected                10032da0 f   libvcruntime:unexpected.obj
 0001:00031dbd       ?GetCurrentState@__FrameHandler3@@SAHPAUEHRegistrationNode@@PAXPBU_s_FuncInfo@@@Z 10032dbd f   libvcruntime:ehstate.obj
 0001:00031dda       ?SetState@__FrameHandler3@@SAXPAUEHRegistrationNode@@PBU_s_FuncInfo@@H@Z 10032dda f   libvcruntime:ehstate.obj
 0001:00031de8       ??$?RD@__crt_public_free_policy@@QBEXQBD@Z 10032de8 f i libvcruntime:std_exception.obj
 0001:00031df8       ??0?$__crt_unique_heap_ptr@DU__crt_public_free_policy@@@@QAE@QAD@Z 10032df8 f i libvcruntime:std_exception.obj
 0001:00031e06       ??1?$__crt_unique_heap_ptr@DU__crt_public_free_policy@@@@QAE@XZ 10032e06 f i libvcruntime:std_exception.obj
 0001:00031e16       ??B?$__crt_unique_heap_ptr@DU__crt_public_free_policy@@@@QBE_NXZ 10032e16 f i libvcruntime:std_exception.obj
 0001:00031e1d       ?detach@?$__crt_unique_heap_ptr@DU__crt_public_free_policy@@@@QAEPADXZ 10032e1d f i libvcruntime:std_exception.obj
 0001:00031e23       ?get@?$__crt_unique_heap_ptr@DU__crt_public_free_policy@@@@QBEPADXZ 10032e23 f i libvcruntime:std_exception.obj
 0001:00031e26       ?is_valid@?$__crt_unique_heap_ptr@DU__crt_public_free_policy@@@@QBE_NXZ 10032e26 f i libvcruntime:std_exception.obj
 0001:00031e2d       ?release@?$__crt_unique_heap_ptr@DU__crt_public_free_policy@@@@QAEXXZ 10032e2d f i libvcruntime:std_exception.obj
 0001:00031e3d       ___std_exception_copy      10032e3d f   libvcruntime:std_exception.obj
 0001:00031ea0       ___std_exception_destroy   10032ea0 f   libvcruntime:std_exception.obj
 0001:00031ebf       __CxxThrowException@8      10032ebf f   libvcruntime:throw.obj
 0001:00031f30       _memmove                   10032f30 f   libvcruntime:memmove.obj
 0001:000324a4       ___libm_sse2_powf          100334a4 f   libucrt:powf_sse2.obj
 0001:00032b57       __chgsign                  10033b57 f   libucrt:ieeemisc.obj
 0001:00032b7f       __chgsignf                 10033b7f f   libucrt:ieeemisc.obj
 0001:00032ba0       __copysign                 10033ba0 f   libucrt:ieeemisc.obj
 0001:00032bc3       __copysignf                10033bc3 f   libucrt:ieeemisc.obj
 0001:00032bdf       __finite                   10033bdf f   libucrt:ieeemisc.obj
 0001:00032bf9       __fpclass                  10033bf9 f   libucrt:ieeemisc.obj
 0001:00032c9d       __isnan                    10033c9d f   libucrt:ieeemisc.obj
 0001:00032cd3       __logb                     10033cd3 f   libucrt:ieeemisc.obj
 0001:00032da2       __nextafter                10033da2 f   libucrt:ieeemisc.obj
 0001:00032dc1       __scalb                    10033dc1 f   libucrt:ieeemisc.obj
 0001:00032ddb       ___libm_sse2_cosf          10033ddb f   libucrt:cosf_sse2.obj
 0001:00032f2a       ___libm_sse2_sinf          10033f2a f   libucrt:sinf_sse2.obj
 0001:0003306f       _free                      1003406f f   libucrt:free.obj
 0001:0003308a       __errcode                  1003408a f   libucrt:fpexcept.obj
 0001:000330be       __except1                  100340be f   libucrt:fpexcept.obj
 0001:0003318c       __except2                  1003418c f   libucrt:fpexcept.obj
 0001:00033294       __handle_exc               10034294 f   libucrt:fpexcept.obj
 0001:0003347f       __handle_qnan2             1003447f f   libucrt:fpexcept.obj
 0001:0003348c       __raise_exc                1003448c f   libucrt:fpexcept.obj
 0001:000334af       __raise_exc_ex             100344af f   libucrt:fpexcept.obj
 0001:000337a5       __raise_excf               100347a5 f   libucrt:fpexcept.obj
 0001:000337c8       __set_errno_from_matherr   100347c8 f   libucrt:fpexcept.obj
 0001:000337f7       __umatherr                 100347f7 f   libucrt:fpexcept.obj
 0001:00033897       __initterm                 10034897 f   libucrt:initterm.obj
 0001:000338dc       __initterm_e               100348dc f   libucrt:initterm.obj
 0001:0003392e       __seh_filter_dll           1003492e f   libucrt:exception_filter.obj
 0001:0003394e       __seh_filter_exe           1003494e f   libucrt:exception_filter.obj
 0001:00033aa6       ??$?B$$A6GXPAXK0@Z@__crt_fast_encoded_nullptr_t@@QBEP6GXPAXK0@ZXZ 10034aa6 f i libucrt:exit.obj
 0001:00033b1f       ??$__crt_fast_decode_pointer@P6GXPAXK0@Z@@YAP6GXPAXK0@ZQ6GX0K0@Z@Z 10034b1f f i libucrt:exit.obj
 0001:00033b35       ??$__crt_fast_encode_pointer@P6GXPAXK0@Z@@YAP6GXPAXK0@ZQ6GX0K0@Z@Z 10034b35 f i libucrt:exit.obj
 0001:00033b54       ??$__crt_get_proc_address@P6GXI@Z@@YAP6GXI@ZQAUHINSTANCE__@@QBD@Z 10034b54 f i libucrt:exit.obj
 0001:00033b67       ??$__crt_interlocked_read@J@@YAJPDJ@Z 10034b67 f i libucrt:exit.obj
 0001:00033bb4       ??0?$__crt_unique_handle_t@U__crt_hmodule_traits@@@@QAE@QAUHINSTANCE__@@@Z 10034bb4 f i libucrt:exit.obj
 0001:00033bc4       ??1?$__crt_unique_handle_t@U__crt_hmodule_traits@@@@QAE@XZ 10034bc4 f i libucrt:exit.obj
 0001:00033cc7       ?__acrt_select_exit_lock@@YA?AW4__acrt_lock_id@@XZ 10034cc7 f i libucrt:exit.obj
 0001:00033ccb       ?__crt_fast_encode_pointer@@YA?AU__crt_fast_encoded_nullptr_t@@$$T@Z 10034ccb f i libucrt:exit.obj
 0001:00033cd6       ?__crt_rotate_pointer_value@@YAIIH@Z 10034cd6 f i libucrt:exit.obj
 0001:00033cf8       ?close@?$__crt_unique_handle_t@U__crt_hmodule_traits@@@@QAEXXZ 10034cf8 f i libucrt:exit.obj
 0001:00033d0f       ?close@__crt_hmodule_traits@@SA_NPAUHINSTANCE__@@@Z 10034d0f f i libucrt:exit.obj
 0001:00033dca       ?get@?$__crt_unique_handle_t@U__crt_hmodule_traits@@@@QBEPAUHINSTANCE__@@XZ 10034dca f i libucrt:exit.obj
 0001:00033dcd       ?get_address_of@?$__crt_unique_handle_t@U__crt_hmodule_traits@@@@QAEPAPAUHINSTANCE__@@XZ 10034dcd f i libucrt:exit.obj
 0001:00033dd0       ?get_invalid_value@__crt_hmodule_traits@@SAPAUHINSTANCE__@@XZ 10034dd0 f i libucrt:exit.obj
 0001:00033e8b       __Exit                     10034e8b f   libucrt:exit.obj
 0001:00033ea1       ___acrt_initialize_thread_local_exit_callback 10034ea1 f   libucrt:exit.obj
 0001:00033eb0       __c_exit                   10034eb0 f   libucrt:exit.obj
 0001:00033ebf       __cexit                    10034ebf f   libucrt:exit.obj
 0001:00033ece       __exit                     10034ece f   libucrt:exit.obj
 0001:00033ee4       __is_c_termination_complete 10034ee4 f   libucrt:exit.obj
 0001:00033eeb       __register_thread_local_exe_atexit_callback 10034eeb f   libucrt:exit.obj
 0001:00033f11       _exit                      10034f11 f   libucrt:exit.obj
 0001:00033f27       _quick_exit                10034f27 f   libucrt:exit.obj
 0001:00033f3d       ??$?RE@__crt_internal_free_policy@@QBEXQBE@Z 10034f3d f i libucrt:argv_parsing.obj
 0001:00033f4f       ??$?RPAD@__crt_internal_free_policy@@QBEXQBQAD@Z 10034f4f f i libucrt:argv_parsing.obj
 0001:00033f61       ??$?RPA_W@__crt_internal_free_policy@@QBEXQBQA_W@Z 10034f61 f i libucrt:argv_parsing.obj
 0001:000341d8       ??$get_module_file_name@$$TAAY0BAF@DH@?$__crt_char_traits@D@@SAK$$QA$$TAAY0BAF@D$$QAH@Z 100351d8 f i libucrt:argv_parsing.obj
 0001:000341f4       ??$get_module_file_name@$$TAAY0BAF@_WH@?$__crt_char_traits@_W@@SAK$$QA$$TAAY0BAF@_W$$QAH@Z 100351f4 f i libucrt:argv_parsing.obj
 0001:0003451a       ??$set_program_name@PAD@?$__crt_char_traits@D@@SAX$$QAPAD@Z 1003551a f i libucrt:argv_parsing.obj
 0001:0003452b       ??$set_program_name@PA_W@?$__crt_char_traits@_W@@SAX$$QAPA_W@Z 1003552b f i libucrt:argv_parsing.obj
 0001:0003455c       ??0?$__crt_unique_heap_ptr@EU__crt_internal_free_policy@@@@QAE@QAE@Z 1003555c f i libucrt:argv_parsing.obj
 0001:0003456c       ??0?$__crt_unique_heap_ptr@PADU__crt_internal_free_policy@@@@QAE@QAPAD@Z 1003556c f i libucrt:argv_parsing.obj
 0001:0003457c       ??0?$__crt_unique_heap_ptr@PA_WU__crt_internal_free_policy@@@@QAE@QAPA_W@Z 1003557c f i libucrt:argv_parsing.obj
 0001:0003458c       ??1?$__crt_unique_heap_ptr@EU__crt_internal_free_policy@@@@QAE@XZ 1003558c f i libucrt:argv_parsing.obj
 0001:0003459e       ??1?$__crt_unique_heap_ptr@PADU__crt_internal_free_policy@@@@QAE@XZ 1003559e f i libucrt:argv_parsing.obj
 0001:000345b0       ??1?$__crt_unique_heap_ptr@PA_WU__crt_internal_free_policy@@@@QAE@XZ 100355b0 f i libucrt:argv_parsing.obj
 0001:000345c2       ??B?$__crt_unique_heap_ptr@EU__crt_internal_free_policy@@@@QBE_NXZ 100355c2 f i libucrt:argv_parsing.obj
 0001:000345f5       ?detach@?$__crt_unique_heap_ptr@EU__crt_internal_free_policy@@@@QAEPAEXZ 100355f5 f i libucrt:argv_parsing.obj
 0001:000345fb       ?detach@?$__crt_unique_heap_ptr@PADU__crt_internal_free_policy@@@@QAEPAPADXZ 100355fb f i libucrt:argv_parsing.obj
 0001:00034601       ?detach@?$__crt_unique_heap_ptr@PA_WU__crt_internal_free_policy@@@@QAEPAPA_WXZ 10035601 f i libucrt:argv_parsing.obj
 0001:00034625       ?get@?$__crt_unique_heap_ptr@EU__crt_internal_free_policy@@@@QBEPAEXZ 10035625 f i libucrt:argv_parsing.obj
 0001:00034628       ?get@?$__crt_unique_heap_ptr@PADU__crt_internal_free_policy@@@@QBEPAPADXZ 10035628 f i libucrt:argv_parsing.obj
 0001:0003462b       ?get@?$__crt_unique_heap_ptr@PA_WU__crt_internal_free_policy@@@@QBEPAPA_WXZ 1003562b f i libucrt:argv_parsing.obj
 0001:0003462e       ?get_address_of@?$__crt_unique_heap_ptr@PADU__crt_internal_free_policy@@@@QAEPAPAPADXZ 1003562e f i libucrt:argv_parsing.obj
 0001:00034631       ?get_address_of@?$__crt_unique_heap_ptr@PA_WU__crt_internal_free_policy@@@@QAEPAPAPA_WXZ 10035631 f i libucrt:argv_parsing.obj
 0001:0003464c       ?is_valid@?$__crt_unique_heap_ptr@EU__crt_internal_free_policy@@@@QBE_NXZ 1003564c f i libucrt:argv_parsing.obj
 0001:00034653       ?release@?$__crt_unique_heap_ptr@EU__crt_internal_free_policy@@@@QAEXXZ 10035653 f i libucrt:argv_parsing.obj
 0001:00034665       ?release@?$__crt_unique_heap_ptr@PADU__crt_internal_free_policy@@@@QAEXXZ 10035665 f i libucrt:argv_parsing.obj
 0001:00034677       ?release@?$__crt_unique_heap_ptr@PA_WU__crt_internal_free_policy@@@@QAEXXZ 10035677 f i libucrt:argv_parsing.obj
 0001:000346a3       ___acrt_allocate_buffer_for_argv 100356a3 f   libucrt:argv_parsing.obj
 0001:000346f2       __configure_narrow_argv    100356f2 f   libucrt:argv_parsing.obj
 0001:000346fd       __configure_wide_argv      100356fd f   libucrt:argv_parsing.obj
 0001:00034708       __set_pgmptr               10035708 f i libucrt:argv_parsing.obj
 0001:00034717       __set_wpgmptr              10035717 f i libucrt:argv_parsing.obj
 0001:00034726       ??$?R_W@__crt_internal_free_policy@@QBEXQB_W@Z 10035726 f i libucrt:environment_initialization.obj
 0001:00034b11       ??$get_environment_from_os@$$V@?$__crt_char_traits@D@@SAPADXZ 10035b11 f i libucrt:environment_initialization.obj
 0001:00034b16       ??$get_environment_from_os@$$V@?$__crt_char_traits@_W@@SAPA_WXZ 10035b16 f i libucrt:environment_initialization.obj
 0001:00034c1b       ??$set_variable_in_environment_nolock@PADH@?$__crt_char_traits@D@@SAH$$QAPAD$$QAH@Z 10035c1b f i libucrt:environment_initialization.obj
 0001:00034c33       ??$set_variable_in_environment_nolock@PA_WH@?$__crt_char_traits@_W@@SAH$$QAPA_W$$QAH@Z 10035c33 f i libucrt:environment_initialization.obj
 0001:00034c4b       ??$tcscpy_s@PADABIAAPAD@?$__crt_char_traits@D@@SAH$$QAPADABIAAPAD@Z 10035c4b f i libucrt:environment_initialization.obj
 0001:00034c69       ??$tcscpy_s@PA_WABIAAPA_W@?$__crt_char_traits@_W@@SAH$$QAPA_WABIAAPA_W@Z 10035c69 f i libucrt:environment_initialization.obj
 0001:00034c87       ??$tcslen@AAPAD@?$__crt_char_traits@D@@SAIAAPAD@Z 10035c87 f i libucrt:environment_initialization.obj
 0001:00034c9f       ??$tcslen@AAPA_W@?$__crt_char_traits@_W@@SAIAAPA_W@Z 10035c9f f i libucrt:environment_initialization.obj
 0001:00034cbd       ??$uninitialize@A6AXAAPAPAD@Z@?$dual_state_global@PAPAD@__crt_state_management@@QAEXA6AXAAPAPAD@Z@Z 10035cbd f i libucrt:environment_initialization.obj
 0001:00034ce6       ??$uninitialize@A6AXAAPAPA_W@Z@?$dual_state_global@PAPA_W@__crt_state_management@@QAEXA6AXAAPAPA_W@Z@Z 10035ce6 f i libucrt:environment_initialization.obj
 0001:00034d45       ??0?$__crt_unique_heap_ptr@_WU__crt_internal_free_policy@@@@QAE@QA_W@Z 10035d45 f i libucrt:environment_initialization.obj
 0001:00034d55       ??1?$__crt_unique_heap_ptr@_WU__crt_internal_free_policy@@@@QAE@XZ 10035d55 f i libucrt:environment_initialization.obj
 0001:00034d67       ??B?$__crt_unique_heap_ptr@PADU__crt_internal_free_policy@@@@QBE_NXZ 10035d67 f i libucrt:environment_initialization.obj
 0001:00034d6e       ??B?$__crt_unique_heap_ptr@PA_WU__crt_internal_free_policy@@@@QBE_NXZ 10035d6e f i libucrt:environment_initialization.obj
 0001:00034d75       ??B?$__crt_unique_heap_ptr@_WU__crt_internal_free_policy@@@@QBE_NXZ 10035d75 f i libucrt:environment_initialization.obj
 0001:00034d7c       ?__crt_compute_required_transform_buffer_count@@YAIIQBD@Z 10035d7c f i libucrt:environment_initialization.obj
 0001:00034d98       ?__crt_compute_required_transform_buffer_count@@YAIIQB_W@Z 10035d98 f i libucrt:environment_initialization.obj
 0001:00034db6       ?__crt_transform_string@@YAIIQBDQA_WI@Z 10035db6 f i libucrt:environment_initialization.obj
 0001:00034dd5       ?__crt_transform_string@@YAIIQB_WQADI@Z 10035dd5 f i libucrt:environment_initialization.obj
 0001:00034df7       ?detach@?$__crt_unique_heap_ptr@DU__crt_internal_free_policy@@@@QAEPADXZ 10035df7 f i libucrt:environment_initialization.obj
 0001:00034dfd       ?detach@?$__crt_unique_heap_ptr@_WU__crt_internal_free_policy@@@@QAEPA_WXZ 10035dfd f i libucrt:environment_initialization.obj
 0001:00034e03       ?get@?$__crt_unique_heap_ptr@_WU__crt_internal_free_policy@@@@QBEPA_WXZ 10035e03 f i libucrt:environment_initialization.obj
 0001:00034e06       ?get_current_state_index@__crt_state_management@@YAIXZ 10035e06 f i libucrt:environment_initialization.obj
 0001:00034e2d       ?initialize@?$dual_state_global@PAPAD@__crt_state_management@@QAEXQAPAD@Z 10035e2d f i libucrt:environment_initialization.obj
 0001:00034e53       ?initialize@?$dual_state_global@PAPA_W@__crt_state_management@@QAEXQAPA_W@Z 10035e53 f i libucrt:environment_initialization.obj
 0001:00034e79       ?is_valid@?$__crt_unique_heap_ptr@PADU__crt_internal_free_policy@@@@QBE_NXZ 10035e79 f i libucrt:environment_initialization.obj
 0001:00034e80       ?is_valid@?$__crt_unique_heap_ptr@PA_WU__crt_internal_free_policy@@@@QBE_NXZ 10035e80 f i libucrt:environment_initialization.obj
 0001:00034e87       ?is_valid@?$__crt_unique_heap_ptr@_WU__crt_internal_free_policy@@@@QBE_NXZ 10035e87 f i libucrt:environment_initialization.obj
 0001:00034e96       ?release@?$__crt_unique_heap_ptr@_WU__crt_internal_free_policy@@@@QAEXXZ 10035e96 f i libucrt:environment_initialization.obj
 0001:00034ea8       ?value@?$dual_state_global@PAPAD@__crt_state_management@@QAEAAPAPADXZ 10035ea8 f i libucrt:environment_initialization.obj
 0001:00034eab       ?value@?$dual_state_global@PAPA_W@__crt_state_management@@QAEAAPAPA_WXZ 10035eab f i libucrt:environment_initialization.obj
 0001:00034eae       ___dcrt_get_or_create_narrow_environment_nolock 10035eae f   libucrt:environment_initialization.obj
 0001:00034eb3       ___dcrt_get_or_create_wide_environment_nolock 10035eb3 f   libucrt:environment_initialization.obj
 0001:00034eb8       ___dcrt_uninitialize_environments_nolock 10035eb8 f   libucrt:environment_initialization.obj
 0001:00034eef       ___p__environ              10035eef f   libucrt:environment_initialization.obj
 0001:00034ef5       ___p__wenviron             10035ef5 f   libucrt:environment_initialization.obj
 0001:00034efb       __get_initial_narrow_environment 10035efb f   libucrt:environment_initialization.obj
 0001:00034f0f       __get_initial_wide_environment 10035f0f f   libucrt:environment_initialization.obj
 0001:00034f23       __initialize_narrow_environment 10035f23 f   libucrt:environment_initialization.obj
 0001:00034f28       __initialize_wide_environment 10035f28 f   libucrt:environment_initialization.obj
 0001:00034f2d       __invoke_watson_if_error   10035f2d f i libucrt:environment_initialization.obj
 0001:00034f4f       ??$?B$$A6AXXZ@__crt_fast_encoded_nullptr_t@@QBEP6AXXZXZ 10035f4f f i libucrt:onexit.obj
 0001:00034f55       ??$?BP6AXXZ@__crt_fast_encoded_nullptr_t@@QBEPAP6AXXZXZ 10035f55 f i libucrt:onexit.obj
 0001:00034f5b       ??$?RP6AXXZ@__crt_internal_free_policy@@QBEXQBQ6AXXZ@Z 10035f5b f i libucrt:onexit.obj
 0001:0003506f       ??$__crt_fast_decode_pointer@P6AXXZ@@YAP6AXXZQ6AXXZ@Z 1003606f f i libucrt:onexit.obj
 0001:00035085       ??$__crt_fast_decode_pointer@PAP6AXXZ@@YAPAP6AXXZQAP6AXXZ@Z 10036085 f i libucrt:onexit.obj
 0001:0003509b       ??$__crt_fast_encode_pointer@P6AHXZ@@YAP6AHXZQ6AHXZ@Z 1003609b f i libucrt:onexit.obj
 0001:000350ba       ??$__crt_fast_encode_pointer@P6AXXZ@@YAP6AXXZQ6AXXZ@Z 100360ba f i libucrt:onexit.obj
 0001:000350d9       ??$__crt_fast_encode_pointer@PAP6AXXZ@@YAPAP6AXXZQAP6AXXZ@Z 100360d9 f i libucrt:onexit.obj
 0001:00035166       ??0?$__crt_unique_heap_ptr@P6AXXZU__crt_internal_free_policy@@@@QAE@QAP6AXXZ@Z 10036166 f i libucrt:onexit.obj
 0001:00035176       ??1?$__crt_unique_heap_ptr@P6AXXZU__crt_internal_free_policy@@@@QAE@XZ 10036176 f i libucrt:onexit.obj
 0001:00035188       ??1scoped_global_state_reset@__crt_state_management@@QAE@XZ 10036188 f i libucrt:onexit.obj
 0001:000353b2       ?detach@?$__crt_unique_heap_ptr@P6AXXZU__crt_internal_free_policy@@@@QAEPAP6AXXZXZ 100363b2 f i libucrt:onexit.obj
 0001:000353b8       ?release@?$__crt_unique_heap_ptr@P6AXXZU__crt_internal_free_policy@@@@QAEXXZ 100363b8 f i libucrt:onexit.obj
 0001:000353ca       __crt_at_quick_exit        100363ca f   libucrt:onexit.obj
 0001:000353e0       __crt_atexit               100363e0 f   libucrt:onexit.obj
 0001:000353f6       __execute_onexit_table     100363f6 f   libucrt:onexit.obj
 0001:00035423       __initialize_onexit_table  10036423 f   libucrt:onexit.obj
 0001:0003544c       __register_onexit_function 1003644c f   libucrt:onexit.obj
 0001:0003555b       ??$?BX@__crt_fast_encoded_nullptr_t@@QBEPAXXZ 1003655b f i libucrt:initialization.obj
 0001:00035561       ??$__crt_fast_encode_pointer@PAX@@YAPAXQAX@Z 10036561 f i libucrt:initialization.obj
 0001:000355d2       ?__acrt_stdio_is_initialized@@YA_NXZ 100365d2 f i libucrt:initialization.obj
 0001:000355dd       ?initialize@?$dual_state_global@PAU__crt_locale_data@@@__crt_state_management@@QAEXQAU__crt_locale_data@@@Z 100365dd f i libucrt:initialization.obj
 0001:00035603       ___acrt_initialize         10036603 f   libucrt:initialization.obj
 0001:00035615       ___acrt_thread_attach      10036615 f   libucrt:initialization.obj
 0001:00035620       ___acrt_thread_detach      10036620 f   libucrt:initialization.obj
 0001:00035628       ___acrt_uninitialize       10036628 f   libucrt:initialization.obj
 0001:00035658       ___acrt_uninitialize_critical 10036658 f   libucrt:initialization.obj
 0001:00035680       __get_terminate            10036680 f   libucrt:terminate.obj
 0001:00035692       _set_terminate             10036692 f   libucrt:terminate.obj
 0001:000356b2       _terminate                 100366b2 f   libucrt:terminate.obj
 0001:000356ee       __set_abort_behavior       100366ee f   libucrt:abort.obj
 0001:0003570f       _abort                     1003670f f   libucrt:abort.obj
 0001:00035753       _malloc                    10036753 f   libucrt:malloc.obj
 0001:000357b8       _strcpy_s                  100367b8 f   libucrt:strcpy_s.obj
 0001:00035812       ??$?0ABV?$stream_output_adapter@D@__crt_stdio_output@@AB_KABQBDABQAU__crt_locale_pointers@@ABQAD@?$format_validation_base@DV?$stream_output_adapter@D@__crt_stdio_output@@@__crt_stdio_output@@IAE@ABV?$stream_output_adapter@D@1@AB_KABQBDABQAU__crt_locale_pointers@@ABQAD@Z 10036812 f i libucrt:output.obj
 0001:00035835       ??$?0ABV?$stream_output_adapter@D@__crt_stdio_output@@AB_KABQBDABQAU__crt_locale_pointers@@ABQAD@?$positional_parameter_base@DV?$stream_output_adapter@D@__crt_stdio_output@@@__crt_stdio_output@@IAE@ABV?$stream_output_adapter@D@1@AB_KABQBDABQAU__crt_locale_pointers@@ABQAD@Z 10036835 f i libucrt:output.obj
 0001:0003587d       ??$?0ABV?$stream_output_adapter@D@__crt_stdio_output@@AB_KABQBDABQAU__crt_locale_pointers@@ABQAD@?$standard_base@DV?$stream_output_adapter@D@__crt_stdio_output@@@__crt_stdio_output@@IAE@ABV?$stream_output_adapter@D@1@AB_KABQBDABQAU__crt_locale_pointers@@ABQAD@Z 1003687d f i libucrt:output.obj
 0001:000358b2       ??$?0ABV?$stream_output_adapter@_W@__crt_stdio_output@@AB_KABQB_WABQAU__crt_locale_pointers@@ABQAD@?$format_validation_base@_WV?$stream_output_adapter@_W@__crt_stdio_output@@@__crt_stdio_output@@IAE@ABV?$stream_output_adapter@_W@1@AB_KABQB_WABQAU__crt_locale_pointers@@ABQAD@Z 100368b2 f i libucrt:output.obj
 0001:000358d5       ??$?0ABV?$stream_output_adapter@_W@__crt_stdio_output@@AB_KABQB_WABQAU__crt_locale_pointers@@ABQAD@?$positional_parameter_base@_WV?$stream_output_adapter@_W@__crt_stdio_output@@@__crt_stdio_output@@IAE@ABV?$stream_output_adapter@_W@1@AB_KABQB_WABQAU__crt_locale_pointers@@ABQAD@Z 100368d5 f i libucrt:output.obj
 0001:0003591d       ??$?0ABV?$stream_output_adapter@_W@__crt_stdio_output@@AB_KABQB_WABQAU__crt_locale_pointers@@ABQAD@?$standard_base@_WV?$stream_output_adapter@_W@__crt_stdio_output@@@__crt_stdio_output@@IAE@ABV?$stream_output_adapter@_W@1@AB_KABQB_WABQAU__crt_locale_pointers@@ABQAD@Z 1003691d f i libucrt:output.obj
 0001:00035952       ??$?0ABV?$string_output_adapter@D@__crt_stdio_output@@AB_KABQBDABQAU__crt_locale_pointers@@ABQAD@?$format_validation_base@DV?$string_output_adapter@D@__crt_stdio_output@@@__crt_stdio_output@@IAE@ABV?$string_output_adapter@D@1@AB_KABQBDABQAU__crt_locale_pointers@@ABQAD@Z 10036952 f i libucrt:output.obj
 0001:00035975       ??$?0ABV?$string_output_adapter@D@__crt_stdio_output@@AB_KABQBDABQAU__crt_locale_pointers@@ABQAD@?$positional_parameter_base@DV?$string_output_adapter@D@__crt_stdio_output@@@__crt_stdio_output@@IAE@ABV?$string_output_adapter@D@1@AB_KABQBDABQAU__crt_locale_pointers@@ABQAD@Z 10036975 f i libucrt:output.obj
 0001:000359bd       ??$?0ABV?$string_output_adapter@D@__crt_stdio_output@@AB_KABQBDABQAU__crt_locale_pointers@@ABQAD@?$standard_base@DV?$string_output_adapter@D@__crt_stdio_output@@@__crt_stdio_output@@IAE@ABV?$string_output_adapter@D@1@AB_KABQBDABQAU__crt_locale_pointers@@ABQAD@Z 100369bd f i libucrt:output.obj
 0001:000359f2       ??$?0ABV?$string_output_adapter@_W@__crt_stdio_output@@AB_KABQB_WABQAU__crt_locale_pointers@@ABQAD@?$format_validation_base@_WV?$string_output_adapter@_W@__crt_stdio_output@@@__crt_stdio_output@@IAE@ABV?$string_output_adapter@_W@1@AB_KABQB_WABQAU__crt_locale_pointers@@ABQAD@Z 100369f2 f i libucrt:output.obj
 0001:00035a15       ??$?0ABV?$string_output_adapter@_W@__crt_stdio_output@@AB_KABQB_WABQAU__crt_locale_pointers@@ABQAD@?$positional_parameter_base@_WV?$string_output_adapter@_W@__crt_stdio_output@@@__crt_stdio_output@@IAE@ABV?$string_output_adapter@_W@1@AB_KABQB_WABQAU__crt_locale_pointers@@ABQAD@Z 10036a15 f i libucrt:output.obj
 0001:00035a5d       ??$?0ABV?$string_output_adapter@_W@__crt_stdio_output@@AB_KABQB_WABQAU__crt_locale_pointers@@ABQAD@?$standard_base@_WV?$string_output_adapter@_W@__crt_stdio_output@@@__crt_stdio_output@@IAE@ABV?$string_output_adapter@_W@1@AB_KABQB_WABQAU__crt_locale_pointers@@ABQAD@Z 10036a5d f i libucrt:output.obj
 0001:00036c29       ??$count@D@formatting_buffer@__crt_stdio_output@@QBEIXZ 10037c29 f i libucrt:output.obj
 0001:00036c41       ??$count@_W@formatting_buffer@__crt_stdio_output@@QBEIXZ 10037c41 f i libucrt:output.obj
 0001:00036c5a       ??$data@D@formatting_buffer@__crt_stdio_output@@QAEPADXZ 10037c5a f i libucrt:output.obj
 0001:00036c67       ??$data@_W@formatting_buffer@__crt_stdio_output@@QAEPA_WXZ 10037c67 f i libucrt:output.obj
 0001:00036c74       ??$ensure_buffer_is_big_enough@D@formatting_buffer@__crt_stdio_output@@QAE_NI@Z 10037c74 f i libucrt:output.obj
 0001:00036cf1       ??$ensure_buffer_is_big_enough@_W@formatting_buffer@__crt_stdio_output@@QAE_NI@Z 10037cf1 f i libucrt:output.obj
 0001:00036d6f       ??$extract_argument_from_va_list@C_J@?$positional_parameter_base@DV?$stream_output_adapter@D@__crt_stdio_output@@@__crt_stdio_output@@IAE_NAA_J@Z 10037d6f f i libucrt:output.obj
 0001:00036de8       ??$extract_argument_from_va_list@C_J@?$positional_parameter_base@DV?$string_output_adapter@D@__crt_stdio_output@@@__crt_stdio_output@@IAE_NAA_J@Z 10037de8 f i libucrt:output.obj
 0001:00036e61       ??$extract_argument_from_va_list@C_J@?$positional_parameter_base@_WV?$stream_output_adapter@_W@__crt_stdio_output@@@__crt_stdio_output@@IAE_NAA_J@Z 10037e61 f i libucrt:output.obj
 0001:00036eda       ??$extract_argument_from_va_list@C_J@?$positional_parameter_base@_WV?$string_output_adapter@_W@__crt_stdio_output@@@__crt_stdio_output@@IAE_NAA_J@Z 10037eda f i libucrt:output.obj
 0001:00036f53       ??$extract_argument_from_va_list@C_J@?$standard_base@DV?$stream_output_adapter@D@__crt_stdio_output@@@__crt_stdio_output@@IAE_NAA_J@Z 10037f53 f i libucrt:output.obj
 0001:00036f72       ??$extract_argument_from_va_list@C_J@?$standard_base@DV?$string_output_adapter@D@__crt_stdio_output@@@__crt_stdio_output@@IAE_NAA_J@Z 10037f72 f i libucrt:output.obj
 0001:00036f91       ??$extract_argument_from_va_list@C_J@?$standard_base@_WV?$stream_output_adapter@_W@__crt_stdio_output@@@__crt_stdio_output@@IAE_NAA_J@Z 10037f91 f i libucrt:output.obj
 0001:00036fb0       ??$extract_argument_from_va_list@C_J@?$standard_base@_WV?$string_output_adapter@_W@__crt_stdio_output@@@__crt_stdio_output@@IAE_NAA_J@Z 10037fb0 f i libucrt:output.obj
 0001:00036fcf       ??$extract_argument_from_va_list@E_J@?$positional_parameter_base@DV?$stream_output_adapter@D@__crt_stdio_output@@@__crt_stdio_output@@IAE_NAA_J@Z 10037fcf f i libucrt:output.obj
 0001:00037048       ??$extract_argument_from_va_list@E_J@?$positional_parameter_base@DV?$string_output_adapter@D@__crt_stdio_output@@@__crt_stdio_output@@IAE_NAA_J@Z 10038048 f i libucrt:output.obj
 0001:000370c1       ??$extract_argument_from_va_list@E_J@?$positional_parameter_base@_WV?$stream_output_adapter@_W@__crt_stdio_output@@@__crt_stdio_output@@IAE_NAA_J@Z 100380c1 f i libucrt:output.obj
 0001:0003713a       ??$extract_argument_from_va_list@E_J@?$positional_parameter_base@_WV?$string_output_adapter@_W@__crt_stdio_output@@@__crt_stdio_output@@IAE_NAA_J@Z 1003813a f i libucrt:output.obj
 0001:000371b3       ??$extract_argument_from_va_list@E_J@?$standard_base@DV?$stream_output_adapter@D@__crt_stdio_output@@@__crt_stdio_output@@IAE_NAA_J@Z 100381b3 f i libucrt:output.obj
 0001:000371d2       ??$extract_argument_from_va_list@E_J@?$standard_base@DV?$string_output_adapter@D@__crt_stdio_output@@@__crt_stdio_output@@IAE_NAA_J@Z 100381d2 f i libucrt:output.obj
 0001:000371f1       ??$extract_argument_from_va_list@E_J@?$standard_base@_WV?$stream_output_adapter@_W@__crt_stdio_output@@@__crt_stdio_output@@IAE_NAA_J@Z 100381f1 f i libucrt:output.obj
 0001:00037210       ??$extract_argument_from_va_list@E_J@?$standard_base@_WV?$string_output_adapter@_W@__crt_stdio_output@@@__crt_stdio_output@@IAE_NAA_J@Z 10038210 f i libucrt:output.obj
 0001:0003722f       ??$extract_argument_from_va_list@F_J@?$positional_parameter_base@DV?$stream_output_adapter@D@__crt_stdio_output@@@__crt_stdio_output@@IAE_NAA_J@Z 1003822f f i libucrt:output.obj
 0001:000372a8       ??$extract_argument_from_va_list@F_J@?$positional_parameter_base@DV?$string_output_adapter@D@__crt_stdio_output@@@__crt_stdio_output@@IAE_NAA_J@Z 100382a8 f i libucrt:output.obj
 0001:00037321       ??$extract_argument_from_va_list@F_J@?$positional_parameter_base@_WV?$stream_output_adapter@_W@__crt_stdio_output@@@__crt_stdio_output@@IAE_NAA_J@Z 10038321 f i libucrt:output.obj
 0001:0003739a       ??$extract_argument_from_va_list@F_J@?$positional_parameter_base@_WV?$string_output_adapter@_W@__crt_stdio_output@@@__crt_stdio_output@@IAE_NAA_J@Z 1003839a f i libucrt:output.obj
 0001:00037413       ??$extract_argument_from_va_list@F_J@?$standard_base@DV?$stream_output_adapter@D@__crt_stdio_output@@@__crt_stdio_output@@IAE_NAA_J@Z 10038413 f i libucrt:output.obj
 0001:00037432       ??$extract_argument_from_va_list@F_J@?$standard_base@DV?$string_output_adapter@D@__crt_stdio_output@@@__crt_stdio_output@@IAE_NAA_J@Z 10038432 f i libucrt:output.obj
 0001:00037451       ??$extract_argument_from_va_list@F_J@?$standard_base@_WV?$stream_output_adapter@_W@__crt_stdio_output@@@__crt_stdio_output@@IAE_NAA_J@Z 10038451 f i libucrt:output.obj
 0001:00037470       ??$extract_argument_from_va_list@F_J@?$standard_base@_WV?$string_output_adapter@_W@__crt_stdio_output@@@__crt_stdio_output@@IAE_NAA_J@Z 10038470 f i libucrt:output.obj
 0001:0003748f       ??$extract_argument_from_va_list@GD@?$positional_parameter_base@DV?$stream_output_adapter@D@__crt_stdio_output@@@__crt_stdio_output@@IAE_NAAD@Z 1003848f f i libucrt:output.obj
 0001:00037507       ??$extract_argument_from_va_list@GD@?$positional_parameter_base@DV?$string_output_adapter@D@__crt_stdio_output@@@__crt_stdio_output@@IAE_NAAD@Z 10038507 f i libucrt:output.obj
 0001:0003757f       ??$extract_argument_from_va_list@GD@?$standard_base@DV?$stream_output_adapter@D@__crt_stdio_output@@@__crt_stdio_output@@IAE_NAAD@Z 1003857f f i libucrt:output.obj
 0001:00037599       ??$extract_argument_from_va_list@GD@?$standard_base@DV?$string_output_adapter@D@__crt_stdio_output@@@__crt_stdio_output@@IAE_NAAD@Z 10038599 f i libucrt:output.obj
 0001:000375b3       ??$extract_argument_from_va_list@G_J@?$positional_parameter_base@DV?$stream_output_adapter@D@__crt_stdio_output@@@__crt_stdio_output@@IAE_NAA_J@Z 100385b3 f i libucrt:output.obj
 0001:0003762c       ??$extract_argument_from_va_list@G_J@?$positional_parameter_base@DV?$string_output_adapter@D@__crt_stdio_output@@@__crt_stdio_output@@IAE_NAA_J@Z 1003862c f i libucrt:output.obj
 0001:000376a5       ??$extract_argument_from_va_list@G_J@?$positional_parameter_base@_WV?$stream_output_adapter@_W@__crt_stdio_output@@@__crt_stdio_output@@IAE_NAA_J@Z 100386a5 f i libucrt:output.obj
 0001:0003771e       ??$extract_argument_from_va_list@G_J@?$positional_parameter_base@_WV?$string_output_adapter@_W@__crt_stdio_output@@@__crt_stdio_output@@IAE_NAA_J@Z 1003871e f i libucrt:output.obj
 0001:00037797       ??$extract_argument_from_va_list@G_J@?$standard_base@DV?$stream_output_adapter@D@__crt_stdio_output@@@__crt_stdio_output@@IAE_NAA_J@Z 10038797 f i libucrt:output.obj
 0001:000377b6       ??$extract_argument_from_va_list@G_J@?$standard_base@DV?$string_output_adapter@D@__crt_stdio_output@@@__crt_stdio_output@@IAE_NAA_J@Z 100387b6 f i libucrt:output.obj
 0001:000377d5       ??$extract_argument_from_va_list@G_J@?$standard_base@_WV?$stream_output_adapter@_W@__crt_stdio_output@@@__crt_stdio_output@@IAE_NAA_J@Z 100387d5 f i libucrt:output.obj
 0001:000377f4       ??$extract_argument_from_va_list@G_J@?$standard_base@_WV?$string_output_adapter@_W@__crt_stdio_output@@@__crt_stdio_output@@IAE_NAA_J@Z 100387f4 f i libucrt:output.obj
 0001:00037813       ??$extract_argument_from_va_list@H_J@?$positional_parameter_base@DV?$stream_output_adapter@D@__crt_stdio_output@@@__crt_stdio_output@@IAE_NAA_J@Z 10038813 f i libucrt:output.obj
 0001:0003788a       ??$extract_argument_from_va_list@H_J@?$positional_parameter_base@DV?$string_output_adapter@D@__crt_stdio_output@@@__crt_stdio_output@@IAE_NAA_J@Z 1003888a f i libucrt:output.obj
 0001:00037901       ??$extract_argument_from_va_list@H_J@?$positional_parameter_base@_WV?$stream_output_adapter@_W@__crt_stdio_output@@@__crt_stdio_output@@IAE_NAA_J@Z 10038901 f i libucrt:output.obj
 0001:00037978       ??$extract_argument_from_va_list@H_J@?$positional_parameter_base@_WV?$string_output_adapter@_W@__crt_stdio_output@@@__crt_stdio_output@@IAE_NAA_J@Z 10038978 f i libucrt:output.obj
 0001:000379ef       ??$extract_argument_from_va_list@H_J@?$standard_base@DV?$stream_output_adapter@D@__crt_stdio_output@@@__crt_stdio_output@@IAE_NAA_J@Z 100389ef f i libucrt:output.obj
 0001:00037a0d       ??$extract_argument_from_va_list@H_J@?$standard_base@DV?$string_output_adapter@D@__crt_stdio_output@@@__crt_stdio_output@@IAE_NAA_J@Z 10038a0d f i libucrt:output.obj
 0001:00037a2b       ??$extract_argument_from_va_list@H_J@?$standard_base@_WV?$stream_output_adapter@_W@__crt_stdio_output@@@__crt_stdio_output@@IAE_NAA_J@Z 10038a2b f i libucrt:output.obj
 0001:00037a49       ??$extract_argument_from_va_list@H_J@?$standard_base@_WV?$string_output_adapter@_W@__crt_stdio_output@@@__crt_stdio_output@@IAE_NAA_J@Z 10038a49 f i libucrt:output.obj
 0001:00037a67       ??$extract_argument_from_va_list@I_J@?$positional_parameter_base@DV?$stream_output_adapter@D@__crt_stdio_output@@@__crt_stdio_output@@IAE_NAA_J@Z 10038a67 f i libucrt:output.obj
 0001:00037ae7       ??$extract_argument_from_va_list@I_J@?$positional_parameter_base@DV?$string_output_adapter@D@__crt_stdio_output@@@__crt_stdio_output@@IAE_NAA_J@Z 10038ae7 f i libucrt:output.obj
 0001:00037b67       ??$extract_argument_from_va_list@I_J@?$positional_parameter_base@_WV?$stream_output_adapter@_W@__crt_stdio_output@@@__crt_stdio_output@@IAE_NAA_J@Z 10038b67 f i libucrt:output.obj
 0001:00037be7       ??$extract_argument_from_va_list@I_J@?$positional_parameter_base@_WV?$string_output_adapter@_W@__crt_stdio_output@@@__crt_stdio_output@@IAE_NAA_J@Z 10038be7 f i libucrt:output.obj
 0001:00037c67       ??$extract_argument_from_va_list@I_J@?$standard_base@DV?$stream_output_adapter@D@__crt_stdio_output@@@__crt_stdio_output@@IAE_NAA_J@Z 10038c67 f i libucrt:output.obj
 0001:00037c85       ??$extract_argument_from_va_list@I_J@?$standard_base@DV?$string_output_adapter@D@__crt_stdio_output@@@__crt_stdio_output@@IAE_NAA_J@Z 10038c85 f i libucrt:output.obj
 0001:00037ca3       ??$extract_argument_from_va_list@I_J@?$standard_base@_WV?$stream_output_adapter@_W@__crt_stdio_output@@@__crt_stdio_output@@IAE_NAA_J@Z 10038ca3 f i libucrt:output.obj
 0001:00037cc1       ??$extract_argument_from_va_list@I_J@?$standard_base@_WV?$string_output_adapter@_W@__crt_stdio_output@@@__crt_stdio_output@@IAE_NAA_J@Z 10038cc1 f i libucrt:output.obj
 0001:00037cdf       ??$extract_argument_from_va_list@PADPAD@?$positional_parameter_base@DV?$stream_output_adapter@D@__crt_stdio_output@@@__crt_stdio_output@@IAE_NAAPAD@Z 10038cdf f i libucrt:output.obj
 0001:00037d57       ??$extract_argument_from_va_list@PADPAD@?$positional_parameter_base@DV?$string_output_adapter@D@__crt_stdio_output@@@__crt_stdio_output@@IAE_NAAPAD@Z 10038d57 f i libucrt:output.obj
 0001:00037dcf       ??$extract_argument_from_va_list@PADPAD@?$positional_parameter_base@_WV?$stream_output_adapter@_W@__crt_stdio_output@@@__crt_stdio_output@@IAE_NAAPAD@Z 10038dcf f i libucrt:output.obj
 0001:00037e47       ??$extract_argument_from_va_list@PADPAD@?$positional_parameter_base@_WV?$string_output_adapter@_W@__crt_stdio_output@@@__crt_stdio_output@@IAE_NAAPAD@Z 10038e47 f i libucrt:output.obj
 0001:00037ebf       ??$extract_argument_from_va_list@PADPAD@?$standard_base@DV?$stream_output_adapter@D@__crt_stdio_output@@@__crt_stdio_output@@IAE_NAAPAD@Z 10038ebf f i libucrt:output.obj
 0001:00037ed9       ??$extract_argument_from_va_list@PADPAD@?$standard_base@DV?$string_output_adapter@D@__crt_stdio_output@@@__crt_stdio_output@@IAE_NAAPAD@Z 10038ed9 f i libucrt:output.obj
 0001:00037ef3       ??$extract_argument_from_va_list@PADPAD@?$standard_base@_WV?$stream_output_adapter@_W@__crt_stdio_output@@@__crt_stdio_output@@IAE_NAAPAD@Z 10038ef3 f i libucrt:output.obj
 0001:00037f0d       ??$extract_argument_from_va_list@PADPAD@?$standard_base@_WV?$string_output_adapter@_W@__crt_stdio_output@@@__crt_stdio_output@@IAE_NAAPAD@Z 10038f0d f i libucrt:output.obj
 0001:0003823f       ??$extract_argument_from_va_list@PAXPAX@?$positional_parameter_base@DV?$stream_output_adapter@D@__crt_stdio_output@@@__crt_stdio_output@@IAE_NAAPAX@Z 1003923f f i libucrt:output.obj
 0001:000382b7       ??$extract_argument_from_va_list@PAXPAX@?$positional_parameter_base@DV?$string_output_adapter@D@__crt_stdio_output@@@__crt_stdio_output@@IAE_NAAPAX@Z 100392b7 f i libucrt:output.obj
 0001:0003832f       ??$extract_argument_from_va_list@PAXPAX@?$positional_parameter_base@_WV?$stream_output_adapter@_W@__crt_stdio_output@@@__crt_stdio_output@@IAE_NAAPAX@Z 1003932f f i libucrt:output.obj
 0001:000383a7       ??$extract_argument_from_va_list@PAXPAX@?$positional_parameter_base@_WV?$string_output_adapter@_W@__crt_stdio_output@@@__crt_stdio_output@@IAE_NAAPAX@Z 100393a7 f i libucrt:output.obj
 0001:0003841f       ??$extract_argument_from_va_list@PAXPAX@?$standard_base@DV?$stream_output_adapter@D@__crt_stdio_output@@@__crt_stdio_output@@IAE_NAAPAX@Z 1003941f f i libucrt:output.obj
 0001:00038439       ??$extract_argument_from_va_list@PAXPAX@?$standard_base@DV?$string_output_adapter@D@__crt_stdio_output@@@__crt_stdio_output@@IAE_NAAPAX@Z 10039439 f i libucrt:output.obj
 0001:00038453       ??$extract_argument_from_va_list@PAXPAX@?$standard_base@_WV?$stream_output_adapter@_W@__crt_stdio_output@@@__crt_stdio_output@@IAE_NAAPAX@Z 10039453 f i libucrt:output.obj
 0001:0003846d       ??$extract_argument_from_va_list@PAXPAX@?$standard_base@_WV?$string_output_adapter@_W@__crt_stdio_output@@@__crt_stdio_output@@IAE_NAAPAX@Z 1003946d f i libucrt:output.obj
 0001:00038487       ??$extract_argument_from_va_list@U_CRT_DOUBLE@@U1@@?$positional_parameter_base@DV?$stream_output_adapter@D@__crt_stdio_output@@@__crt_stdio_output@@IAE_NAAU_CRT_DOUBLE@@@Z 10039487 f i libucrt:output.obj
 0001:0003850d       ??$extract_argument_from_va_list@U_CRT_DOUBLE@@U1@@?$positional_parameter_base@DV?$string_output_adapter@D@__crt_stdio_output@@@__crt_stdio_output@@IAE_NAAU_CRT_DOUBLE@@@Z 1003950d f i libucrt:output.obj
 0001:00038593       ??$extract_argument_from_va_list@U_CRT_DOUBLE@@U1@@?$positional_parameter_base@_WV?$stream_output_adapter@_W@__crt_stdio_output@@@__crt_stdio_output@@IAE_NAAU_CRT_DOUBLE@@@Z 10039593 f i libucrt:output.obj
 0001:00038619       ??$extract_argument_from_va_list@U_CRT_DOUBLE@@U1@@?$positional_parameter_base@_WV?$string_output_adapter@_W@__crt_stdio_output@@@__crt_stdio_output@@IAE_NAAU_CRT_DOUBLE@@@Z 10039619 f i libucrt:output.obj
 0001:0003869f       ??$extract_argument_from_va_list@U_CRT_DOUBLE@@U1@@?$standard_base@DV?$stream_output_adapter@D@__crt_stdio_output@@@__crt_stdio_output@@IAE_NAAU_CRT_DOUBLE@@@Z 1003969f f i libucrt:output.obj
 0001:000386bf       ??$extract_argument_from_va_list@U_CRT_DOUBLE@@U1@@?$standard_base@DV?$string_output_adapter@D@__crt_stdio_output@@@__crt_stdio_output@@IAE_NAAU_CRT_DOUBLE@@@Z 100396bf f i libucrt:output.obj
 0001:000386df       ??$extract_argument_from_va_list@U_CRT_DOUBLE@@U1@@?$standard_base@_WV?$stream_output_adapter@_W@__crt_stdio_output@@@__crt_stdio_output@@IAE_NAAU_CRT_DOUBLE@@@Z 100396df f i libucrt:output.obj
 0001:000386ff       ??$extract_argument_from_va_list@U_CRT_DOUBLE@@U1@@?$standard_base@_WV?$string_output_adapter@_W@__crt_stdio_output@@@__crt_stdio_output@@IAE_NAAU_CRT_DOUBLE@@@Z 100396ff f i libucrt:output.obj
 0001:0003871f       ??$extract_argument_from_va_list@_J_J@?$positional_parameter_base@DV?$stream_output_adapter@D@__crt_stdio_output@@@__crt_stdio_output@@IAE_NAA_J@Z 1003971f f i libucrt:output.obj
 0001:000387a5       ??$extract_argument_from_va_list@_J_J@?$positional_parameter_base@DV?$string_output_adapter@D@__crt_stdio_output@@@__crt_stdio_output@@IAE_NAA_J@Z 100397a5 f i libucrt:output.obj
 0001:0003882b       ??$extract_argument_from_va_list@_J_J@?$positional_parameter_base@_WV?$stream_output_adapter@_W@__crt_stdio_output@@@__crt_stdio_output@@IAE_NAA_J@Z 1003982b f i libucrt:output.obj
 0001:000388b1       ??$extract_argument_from_va_list@_J_J@?$positional_parameter_base@_WV?$string_output_adapter@_W@__crt_stdio_output@@@__crt_stdio_output@@IAE_NAA_J@Z 100398b1 f i libucrt:output.obj
 0001:00038937       ??$extract_argument_from_va_list@_J_J@?$standard_base@DV?$stream_output_adapter@D@__crt_stdio_output@@@__crt_stdio_output@@IAE_NAA_J@Z 10039937 f i libucrt:output.obj
 0001:00038957       ??$extract_argument_from_va_list@_J_J@?$standard_base@DV?$string_output_adapter@D@__crt_stdio_output@@@__crt_stdio_output@@IAE_NAA_J@Z 10039957 f i libucrt:output.obj
 0001:00038977       ??$extract_argument_from_va_list@_J_J@?$standard_base@_WV?$stream_output_adapter@_W@__crt_stdio_output@@@__crt_stdio_output@@IAE_NAA_J@Z 10039977 f i libucrt:output.obj
 0001:00038997       ??$extract_argument_from_va_list@_J_J@?$standard_base@_WV?$string_output_adapter@_W@__crt_stdio_output@@@__crt_stdio_output@@IAE_NAA_J@Z 10039997 f i libucrt:output.obj
 0001:000389b7       ??$extract_argument_from_va_list@_K_J@?$positional_parameter_base@DV?$stream_output_adapter@D@__crt_stdio_output@@@__crt_stdio_output@@IAE_NAA_J@Z 100399b7 f i libucrt:output.obj
 0001:00038a3d       ??$extract_argument_from_va_list@_K_J@?$positional_parameter_base@DV?$string_output_adapter@D@__crt_stdio_output@@@__crt_stdio_output@@IAE_NAA_J@Z 10039a3d f i libucrt:output.obj
 0001:00038ac3       ??$extract_argument_from_va_list@_K_J@?$positional_parameter_base@_WV?$stream_output_adapter@_W@__crt_stdio_output@@@__crt_stdio_output@@IAE_NAA_J@Z 10039ac3 f i libucrt:output.obj
 0001:00038b49       ??$extract_argument_from_va_list@_K_J@?$positional_parameter_base@_WV?$string_output_adapter@_W@__crt_stdio_output@@@__crt_stdio_output@@IAE_NAA_J@Z 10039b49 f i libucrt:output.obj
 0001:00038bcf       ??$extract_argument_from_va_list@_K_J@?$standard_base@DV?$stream_output_adapter@D@__crt_stdio_output@@@__crt_stdio_output@@IAE_NAA_J@Z 10039bcf f i libucrt:output.obj
 0001:00038bef       ??$extract_argument_from_va_list@_K_J@?$standard_base@DV?$string_output_adapter@D@__crt_stdio_output@@@__crt_stdio_output@@IAE_NAA_J@Z 10039bef f i libucrt:output.obj
 0001:00038c0f       ??$extract_argument_from_va_list@_K_J@?$standard_base@_WV?$stream_output_adapter@_W@__crt_stdio_output@@@__crt_stdio_output@@IAE_NAA_J@Z 10039c0f f i libucrt:output.obj
 0001:00038c2f       ??$extract_argument_from_va_list@_K_J@?$standard_base@_WV?$string_output_adapter@_W@__crt_stdio_output@@@__crt_stdio_output@@IAE_NAA_J@Z 10039c2f f i libucrt:output.obj
 0001:00038c4f       ??$extract_argument_from_va_list@_W_W@?$positional_parameter_base@DV?$stream_output_adapter@D@__crt_stdio_output@@@__crt_stdio_output@@IAE_NAA_W@Z 10039c4f f i libucrt:output.obj
 0001:00038ccb       ??$extract_argument_from_va_list@_W_W@?$positional_parameter_base@DV?$string_output_adapter@D@__crt_stdio_output@@@__crt_stdio_output@@IAE_NAA_W@Z 10039ccb f i libucrt:output.obj
 0001:00038d47       ??$extract_argument_from_va_list@_W_W@?$positional_parameter_base@_WV?$stream_output_adapter@_W@__crt_stdio_output@@@__crt_stdio_output@@IAE_NAA_W@Z 10039d47 f i libucrt:output.obj
 0001:00038dc3       ??$extract_argument_from_va_list@_W_W@?$positional_parameter_base@_WV?$string_output_adapter@_W@__crt_stdio_output@@@__crt_stdio_output@@IAE_NAA_W@Z 10039dc3 f i libucrt:output.obj
 0001:00038e3f       ??$extract_argument_from_va_list@_W_W@?$standard_base@DV?$stream_output_adapter@D@__crt_stdio_output@@@__crt_stdio_output@@IAE_NAA_W@Z 10039e3f f i libucrt:output.obj
 0001:00038e5b       ??$extract_argument_from_va_list@_W_W@?$standard_base@DV?$string_output_adapter@D@__crt_stdio_output@@@__crt_stdio_output@@IAE_NAA_W@Z 10039e5b f i libucrt:output.obj
 0001:00038e77       ??$extract_argument_from_va_list@_W_W@?$standard_base@_WV?$stream_output_adapter@_W@__crt_stdio_output@@@__crt_stdio_output@@IAE_NAA_W@Z 10039e77 f i libucrt:output.obj
 0001:00038e93       ??$extract_argument_from_va_list@_W_W@?$standard_base@_WV?$string_output_adapter@_W@__crt_stdio_output@@@__crt_stdio_output@@IAE_NAA_W@Z 10039e93 f i libucrt:output.obj
 0001:00038eaf       ??$get_parameter_type@D@?$positional_parameter_base@DV?$stream_output_adapter@D@__crt_stdio_output@@@__crt_stdio_output@@CA?AW4parameter_type@01@PAD@Z 10039eaf f i libucrt:output.obj
 0001:00038eb3       ??$get_parameter_type@D@?$positional_parameter_base@DV?$string_output_adapter@D@__crt_stdio_output@@@__crt_stdio_output@@CA?AW4parameter_type@01@PAD@Z 10039eb3 f i libucrt:output.obj
 0001:00038eb7       ??$get_parameter_type@D@?$positional_parameter_base@_WV?$stream_output_adapter@_W@__crt_stdio_output@@@__crt_stdio_output@@CA?AW4parameter_type@01@PAD@Z 10039eb7 f i libucrt:output.obj
 0001:00038ebb       ??$get_parameter_type@D@?$positional_parameter_base@_WV?$string_output_adapter@_W@__crt_stdio_output@@@__crt_stdio_output@@CA?AW4parameter_type@01@PAD@Z 10039ebb f i libucrt:output.obj
 0001:00038ecf       ??$get_parameter_type@X@?$positional_parameter_base@DV?$stream_output_adapter@D@__crt_stdio_output@@@__crt_stdio_output@@CA?AW4parameter_type@01@PAX@Z 10039ecf f i libucrt:output.obj
 0001:00038ed3       ??$get_parameter_type@X@?$positional_parameter_base@DV?$string_output_adapter@D@__crt_stdio_output@@@__crt_stdio_output@@CA?AW4parameter_type@01@PAX@Z 10039ed3 f i libucrt:output.obj
 0001:00038ed7       ??$get_parameter_type@X@?$positional_parameter_base@_WV?$stream_output_adapter@_W@__crt_stdio_output@@@__crt_stdio_output@@CA?AW4parameter_type@01@PAX@Z 10039ed7 f i libucrt:output.obj
 0001:00038edb       ??$get_parameter_type@X@?$positional_parameter_base@_WV?$string_output_adapter@_W@__crt_stdio_output@@@__crt_stdio_output@@CA?AW4parameter_type@01@PAX@Z 10039edb f i libucrt:output.obj
 0001:00038edf       ??$is_character_specifier@D@?$positional_parameter_base@DV?$stream_output_adapter@D@__crt_stdio_output@@@__crt_stdio_output@@CA_ND@Z 10039edf f i libucrt:output.obj
 0001:00038ef7       ??$is_character_specifier@D@?$positional_parameter_base@DV?$string_output_adapter@D@__crt_stdio_output@@@__crt_stdio_output@@CA_ND@Z 10039ef7 f i libucrt:output.obj
 0001:00038f0f       ??$is_character_specifier@_W@?$positional_parameter_base@_WV?$stream_output_adapter@_W@__crt_stdio_output@@@__crt_stdio_output@@CA_N_W@Z 10039f0f f i libucrt:output.obj
 0001:00038f2a       ??$is_character_specifier@_W@?$positional_parameter_base@_WV?$string_output_adapter@_W@__crt_stdio_output@@@__crt_stdio_output@@CA_N_W@Z 10039f2a f i libucrt:output.obj
 0001:00038f45       ??$is_integral_specifier@D@?$positional_parameter_base@DV?$stream_output_adapter@D@__crt_stdio_output@@@__crt_stdio_output@@CA_ND@Z 10039f45 f i libucrt:output.obj
 0001:00038f71       ??$is_integral_specifier@D@?$positional_parameter_base@DV?$string_output_adapter@D@__crt_stdio_output@@@__crt_stdio_output@@CA_ND@Z 10039f71 f i libucrt:output.obj
 0001:00038f9d       ??$is_integral_specifier@_W@?$positional_parameter_base@_WV?$stream_output_adapter@_W@__crt_stdio_output@@@__crt_stdio_output@@CA_N_W@Z 10039f9d f i libucrt:output.obj
 0001:00038fd8       ??$is_integral_specifier@_W@?$positional_parameter_base@_WV?$string_output_adapter@_W@__crt_stdio_output@@@__crt_stdio_output@@CA_N_W@Z 10039fd8 f i libucrt:output.obj
 0001:00039013       ??$is_pointer_specifier@D@?$positional_parameter_base@DV?$stream_output_adapter@D@__crt_stdio_output@@@__crt_stdio_output@@CA_ND@Z 1003a013 f i libucrt:output.obj
 0001:00039021       ??$is_pointer_specifier@D@?$positional_parameter_base@DV?$string_output_adapter@D@__crt_stdio_output@@@__crt_stdio_output@@CA_ND@Z 1003a021 f i libucrt:output.obj
 0001:0003902f       ??$is_pointer_specifier@_W@?$positional_parameter_base@_WV?$stream_output_adapter@_W@__crt_stdio_output@@@__crt_stdio_output@@CA_N_W@Z 1003a02f f i libucrt:output.obj
 0001:0003903e       ??$is_pointer_specifier@_W@?$positional_parameter_base@_WV?$string_output_adapter@_W@__crt_stdio_output@@@__crt_stdio_output@@CA_N_W@Z 1003a03e f i libucrt:output.obj
 0001:0003904d       ??$is_string_specifier@D@?$positional_parameter_base@DV?$stream_output_adapter@D@__crt_stdio_output@@@__crt_stdio_output@@CA_ND@Z 1003a04d f i libucrt:output.obj
 0001:00039065       ??$is_string_specifier@D@?$positional_parameter_base@DV?$string_output_adapter@D@__crt_stdio_output@@@__crt_stdio_output@@CA_ND@Z 1003a065 f i libucrt:output.obj
 0001:0003907d       ??$is_string_specifier@_W@?$positional_parameter_base@_WV?$stream_output_adapter@_W@__crt_stdio_output@@@__crt_stdio_output@@CA_N_W@Z 1003a07d f i libucrt:output.obj
 0001:00039098       ??$is_string_specifier@_W@?$positional_parameter_base@_WV?$string_output_adapter@_W@__crt_stdio_output@@@__crt_stdio_output@@CA_N_W@Z 1003a098 f i libucrt:output.obj
 0001:000390b3       ??$is_wide_character_specifier@D@__crt_stdio_output@@YA_N_KDW4length_modifier@0@@Z 1003a0b3 f i libucrt:output.obj
 0001:000390e4       ??$is_wide_character_specifier@_W@__crt_stdio_output@@YA_N_K_WW4length_modifier@0@@Z 1003a0e4 f i libucrt:output.obj
 0001:00039132       ??$peek_va_arg@C@__crt_stdio_output@@YACPAD@Z 1003a132 f i libucrt:output.obj
 0001:0003913e       ??$peek_va_arg@E@__crt_stdio_output@@YAEPAD@Z 1003a13e f i libucrt:output.obj
 0001:0003914a       ??$peek_va_arg@F@__crt_stdio_output@@YAFPAD@Z 1003a14a f i libucrt:output.obj
 0001:00039157       ??$peek_va_arg@G@__crt_stdio_output@@YAGPAD@Z 1003a157 f i libucrt:output.obj
 0001:00039164       ??$peek_va_arg@H@__crt_stdio_output@@YAHPAD@Z 1003a164 f i libucrt:output.obj
 0001:00039170       ??$peek_va_arg@I@__crt_stdio_output@@YAIPAD@Z 1003a170 f i libucrt:output.obj
 0001:0003917c       ??$peek_va_arg@PAD@__crt_stdio_output@@YAPADPAD@Z 1003a17c f i libucrt:output.obj
 0001:000391b8       ??$peek_va_arg@PAX@__crt_stdio_output@@YAPAXPAD@Z 1003a1b8 f i libucrt:output.obj
 0001:000391c4       ??$peek_va_arg@U_CRT_DOUBLE@@@__crt_stdio_output@@YA?AU_CRT_DOUBLE@@PAD@Z 1003a1c4 f i libucrt:output.obj
 0001:000391d3       ??$peek_va_arg@_J@__crt_stdio_output@@YA_JPAD@Z 1003a1d3 f i libucrt:output.obj
 0001:000391e2       ??$peek_va_arg@_K@__crt_stdio_output@@YA_KPAD@Z 1003a1e2 f i libucrt:output.obj
 0001:000391f1       ??$peek_va_arg@_W@__crt_stdio_output@@YA_WPAD@Z 1003a1f1 f i libucrt:output.obj
 0001:000391fe       ??$puttc_nolock@ABDPAU_iobuf@@@?$__crt_char_traits@D@@SAHABD$$QAPAU_iobuf@@@Z 1003a1fe f i libucrt:output.obj
 0001:00039218       ??$puttc_nolock@AB_WPAU_iobuf@@@?$__crt_char_traits@_W@@SAGAB_W$$QAPAU_iobuf@@@Z 1003a218 f i libucrt:output.obj
 0001:00039232       ??$read_va_arg@C@__crt_stdio_output@@YACAAPAD@Z 1003a232 f i libucrt:output.obj
 0001:00039244       ??$read_va_arg@E@__crt_stdio_output@@YAEAAPAD@Z 1003a244 f i libucrt:output.obj
 0001:00039256       ??$read_va_arg@F@__crt_stdio_output@@YAFAAPAD@Z 1003a256 f i libucrt:output.obj
 0001:00039269       ??$read_va_arg@G@__crt_stdio_output@@YAGAAPAD@Z 1003a269 f i libucrt:output.obj
 0001:0003927c       ??$read_va_arg@H@__crt_stdio_output@@YAHAAPAD@Z 1003a27c f i libucrt:output.obj
 0001:0003928e       ??$read_va_arg@I@__crt_stdio_output@@YAIAAPAD@Z 1003a28e f i libucrt:output.obj
 0001:000392a0       ??$read_va_arg@PAD@__crt_stdio_output@@YAPADAAPAD@Z 1003a2a0 f i libucrt:output.obj
 0001:0003938a       ??$read_va_arg@PAX@__crt_stdio_output@@YAPAXAAPAD@Z 1003a38a f i libucrt:output.obj
 0001:0003939c       ??$read_va_arg@U_CRT_DOUBLE@@@__crt_stdio_output@@YA?AU_CRT_DOUBLE@@AAPAD@Z 1003a39c f i libucrt:output.obj
 0001:000393b2       ??$read_va_arg@_J@__crt_stdio_output@@YA_JAAPAD@Z 1003a3b2 f i libucrt:output.obj
 0001:000393c7       ??$read_va_arg@_K@__crt_stdio_output@@YA_KAAPAD@Z 1003a3c7 f i libucrt:output.obj
 0001:000393dc       ??$read_va_arg@_W@__crt_stdio_output@@YA_WAAPAD@Z 1003a3dc f i libucrt:output.obj
 0001:000393ef       ??$scratch_count@D@formatting_buffer@__crt_stdio_output@@QBEIXZ 1003a3ef f i libucrt:output.obj
 0001:000393f4       ??$scratch_data@D@formatting_buffer@__crt_stdio_output@@QAEPADXZ 1003a3f4 f i libucrt:output.obj
 0001:00039412       ??$tcstol@AAPBDPAPADH@?$__crt_char_traits@D@@SAJAAPBD$$QAPAPAD$$QAH@Z 1003a412 f i libucrt:output.obj
 0001:00039430       ??$tcstol@AAPB_WPAPA_WH@?$__crt_char_traits@_W@@SAJAAPB_W$$QAPAPA_W$$QAH@Z 1003a430 f i libucrt:output.obj
 0001:0003944e       ??$tcstol@PBDPAPADH@?$__crt_char_traits@D@@SAJ$$QAPBD$$QAPAPAD$$QAH@Z 1003a44e f i libucrt:output.obj
 0001:0003946c       ??$tcstol@PB_WPAPA_WH@?$__crt_char_traits@_W@@SAJ$$QAPB_W$$QAPAPA_W$$QAH@Z 1003a46c f i libucrt:output.obj
 0001:0003948a       ??$type_case_integer_parse_into_buffer@I@?$output_processor@DV?$stream_output_adapter@D@__crt_stdio_output@@V?$format_validation_base@DV?$stream_output_adapter@D@__crt_stdio_output@@@2@@__crt_stdio_output@@AAEXII_N@Z 1003a48a f i libucrt:output.obj
 0001:000394fd       ??$type_case_integer_parse_into_buffer@I@?$output_processor@DV?$stream_output_adapter@D@__crt_stdio_output@@V?$positional_parameter_base@DV?$stream_output_adapter@D@__crt_stdio_output@@@2@@__crt_stdio_output@@AAEXII_N@Z 1003a4fd f i libucrt:output.obj
 0001:00039570       ??$type_case_integer_parse_into_buffer@I@?$output_processor@DV?$stream_output_adapter@D@__crt_stdio_output@@V?$standard_base@DV?$stream_output_adapter@D@__crt_stdio_output@@@2@@__crt_stdio_output@@AAEXII_N@Z 1003a570 f i libucrt:output.obj
 0001:000395e3       ??$type_case_integer_parse_into_buffer@I@?$output_processor@DV?$string_output_adapter@D@__crt_stdio_output@@V?$format_validation_base@DV?$string_output_adapter@D@__crt_stdio_output@@@2@@__crt_stdio_output@@AAEXII_N@Z 1003a5e3 f i libucrt:output.obj
 0001:00039656       ??$type_case_integer_parse_into_buffer@I@?$output_processor@DV?$string_output_adapter@D@__crt_stdio_output@@V?$positional_parameter_base@DV?$string_output_adapter@D@__crt_stdio_output@@@2@@__crt_stdio_output@@AAEXII_N@Z 1003a656 f i libucrt:output.obj
 0001:000396c9       ??$type_case_integer_parse_into_buffer@I@?$output_processor@DV?$string_output_adapter@D@__crt_stdio_output@@V?$standard_base@DV?$string_output_adapter@D@__crt_stdio_output@@@2@@__crt_stdio_output@@AAEXII_N@Z 1003a6c9 f i libucrt:output.obj
 0001:0003973c       ??$type_case_integer_parse_into_buffer@I@?$output_processor@_WV?$stream_output_adapter@_W@__crt_stdio_output@@V?$format_validation_base@_WV?$stream_output_adapter@_W@__crt_stdio_output@@@2@@__crt_stdio_output@@AAEXII_N@Z 1003a73c f i libucrt:output.obj
 0001:000397c3       ??$type_case_integer_parse_into_buffer@I@?$output_processor@_WV?$stream_output_adapter@_W@__crt_stdio_output@@V?$positional_parameter_base@_WV?$stream_output_adapter@_W@__crt_stdio_output@@@2@@__crt_stdio_output@@AAEXII_N@Z 1003a7c3 f i libucrt:output.obj
 0001:0003984a       ??$type_case_integer_parse_into_buffer@I@?$output_processor@_WV?$stream_output_adapter@_W@__crt_stdio_output@@V?$standard_base@_WV?$stream_output_adapter@_W@__crt_stdio_output@@@2@@__crt_stdio_output@@AAEXII_N@Z 1003a84a f i libucrt:output.obj
 0001:000398d1       ??$type_case_integer_parse_into_buffer@I@?$output_processor@_WV?$string_output_adapter@_W@__crt_stdio_output@@V?$format_validation_base@_WV?$string_output_adapter@_W@__crt_stdio_output@@@2@@__crt_stdio_output@@AAEXII_N@Z 1003a8d1 f i libucrt:output.obj
 0001:00039958       ??$type_case_integer_parse_into_buffer@I@?$output_processor@_WV?$string_output_adapter@_W@__crt_stdio_output@@V?$positional_parameter_base@_WV?$string_output_adapter@_W@__crt_stdio_output@@@2@@__crt_stdio_output@@AAEXII_N@Z 1003a958 f i libucrt:output.obj
 0001:000399df       ??$type_case_integer_parse_into_buffer@I@?$output_processor@_WV?$string_output_adapter@_W@__crt_stdio_output@@V?$standard_base@_WV?$string_output_adapter@_W@__crt_stdio_output@@@2@@__crt_stdio_output@@AAEXII_N@Z 1003a9df f i libucrt:output.obj
 0001:00039a66       ??$type_case_integer_parse_into_buffer@_K@?$output_processor@DV?$stream_output_adapter@D@__crt_stdio_output@@V?$format_validation_base@DV?$stream_output_adapter@D@__crt_stdio_output@@@2@@__crt_stdio_output@@AAEX_KI_N@Z 1003aa66 f i libucrt:output.obj
 0001:00039af4       ??$type_case_integer_parse_into_buffer@_K@?$output_processor@DV?$stream_output_adapter@D@__crt_stdio_output@@V?$positional_parameter_base@DV?$stream_output_adapter@D@__crt_stdio_output@@@2@@__crt_stdio_output@@AAEX_KI_N@Z 1003aaf4 f i libucrt:output.obj
 0001:00039b82       ??$type_case_integer_parse_into_buffer@_K@?$output_processor@DV?$stream_output_adapter@D@__crt_stdio_output@@V?$standard_base@DV?$stream_output_adapter@D@__crt_stdio_output@@@2@@__crt_stdio_output@@AAEX_KI_N@Z 1003ab82 f i libucrt:output.obj
 0001:00039c10       ??$type_case_integer_parse_into_buffer@_K@?$output_processor@DV?$string_output_adapter@D@__crt_stdio_output@@V?$format_validation_base@DV?$string_output_adapter@D@__crt_stdio_output@@@2@@__crt_stdio_output@@AAEX_KI_N@Z 1003ac10 f i libucrt:output.obj
 0001:00039c9e       ??$type_case_integer_parse_into_buffer@_K@?$output_processor@DV?$string_output_adapter@D@__crt_stdio_output@@V?$positional_parameter_base@DV?$string_output_adapter@D@__crt_stdio_output@@@2@@__crt_stdio_output@@AAEX_KI_N@Z 1003ac9e f i libucrt:output.obj
 0001:00039d2c       ??$type_case_integer_parse_into_buffer@_K@?$output_processor@DV?$string_output_adapter@D@__crt_stdio_output@@V?$standard_base@DV?$string_output_adapter@D@__crt_stdio_output@@@2@@__crt_stdio_output@@AAEX_KI_N@Z 1003ad2c f i libucrt:output.obj
 0001:00039dba       ??$type_case_integer_parse_into_buffer@_K@?$output_processor@_WV?$stream_output_adapter@_W@__crt_stdio_output@@V?$format_validation_base@_WV?$stream_output_adapter@_W@__crt_stdio_output@@@2@@__crt_stdio_output@@AAEX_KI_N@Z 1003adba f i libucrt:output.obj
 0001:00039e5c       ??$type_case_integer_parse_into_buffer@_K@?$output_processor@_WV?$stream_output_adapter@_W@__crt_stdio_output@@V?$positional_parameter_base@_WV?$stream_output_adapter@_W@__crt_stdio_output@@@2@@__crt_stdio_output@@AAEX_KI_N@Z 1003ae5c f i libucrt:output.obj
 0001:00039efe       ??$type_case_integer_parse_into_buffer@_K@?$output_processor@_WV?$stream_output_adapter@_W@__crt_stdio_output@@V?$standard_base@_WV?$stream_output_adapter@_W@__crt_stdio_output@@@2@@__crt_stdio_output@@AAEX_KI_N@Z 1003aefe f i libucrt:output.obj
 0001:00039fa0       ??$type_case_integer_parse_into_buffer@_K@?$output_processor@_WV?$string_output_adapter@_W@__crt_stdio_output@@V?$format_validation_base@_WV?$string_output_adapter@_W@__crt_stdio_output@@@2@@__crt_stdio_output@@AAEX_KI_N@Z 1003afa0 f i libucrt:output.obj
 0001:0003a042       ??$type_case_integer_parse_into_buffer@_K@?$output_processor@_WV?$string_output_adapter@_W@__crt_stdio_output@@V?$positional_parameter_base@_WV?$string_output_adapter@_W@__crt_stdio_output@@@2@@__crt_stdio_output@@AAEX_KI_N@Z 1003b042 f i libucrt:output.obj
 0001:0003a0e4       ??$type_case_integer_parse_into_buffer@_K@?$output_processor@_WV?$string_output_adapter@_W@__crt_stdio_output@@V?$standard_base@_WV?$string_output_adapter@_W@__crt_stdio_output@@@2@@__crt_stdio_output@@AAEX_KI_N@Z 1003b0e4 f i libucrt:output.obj
 0001:0003a186       ??$write_multiple_characters@V?$stream_output_adapter@D@__crt_stdio_output@@D@__crt_stdio_output@@YAXABV?$stream_output_adapter@D@0@DHQAH@Z 1003b186 f i libucrt:output.obj
 0001:0003a1c1       ??$write_multiple_characters@V?$stream_output_adapter@_W@__crt_stdio_output@@D@__crt_stdio_output@@YAXABV?$stream_output_adapter@_W@0@DHQAH@Z 1003b1c1 f i libucrt:output.obj
 0001:0003a201       ??$write_multiple_characters@V?$string_output_adapter@D@__crt_stdio_output@@D@__crt_stdio_output@@YAXABV?$string_output_adapter@D@0@DHQAH@Z 1003b201 f i libucrt:output.obj
 0001:0003a22d       ??$write_multiple_characters@V?$string_output_adapter@_W@__crt_stdio_output@@D@__crt_stdio_output@@YAXABV?$string_output_adapter@_W@0@DHQAH@Z 1003b22d f i libucrt:output.obj
 0001:0003a426       ??0?$common_data@D@__crt_stdio_output@@IAE@XZ 1003b426 f i libucrt:output.obj
 0001:0003a46b       ??0?$common_data@_W@__crt_stdio_output@@IAE@XZ 1003b46b f i libucrt:output.obj
 0001:0003a4b5       ??0?$output_adapter_data@DV?$stream_output_adapter@D@__crt_stdio_output@@@__crt_stdio_output@@IAE@ABV?$stream_output_adapter@D@1@_KQBDQAU__crt_locale_pointers@@QAD@Z 1003b4b5 f i libucrt:output.obj
 0001:0003a4f1       ??0?$output_adapter_data@DV?$string_output_adapter@D@__crt_stdio_output@@@__crt_stdio_output@@IAE@ABV?$string_output_adapter@D@1@_KQBDQAU__crt_locale_pointers@@QAD@Z 1003b4f1 f i libucrt:output.obj
 0001:0003a52d       ??0?$output_adapter_data@_WV?$stream_output_adapter@_W@__crt_stdio_output@@@__crt_stdio_output@@IAE@ABV?$stream_output_adapter@_W@1@_KQB_WQAU__crt_locale_pointers@@QAD@Z 1003b52d f i libucrt:output.obj
 0001:0003a569       ??0?$output_adapter_data@_WV?$string_output_adapter@_W@__crt_stdio_output@@@__crt_stdio_output@@IAE@ABV?$string_output_adapter@_W@1@_KQB_WQAU__crt_locale_pointers@@QAD@Z 1003b569 f i libucrt:output.obj
 0001:0003a5a5       ??0?$output_processor@DV?$stream_output_adapter@D@__crt_stdio_output@@V?$format_validation_base@DV?$stream_output_adapter@D@__crt_stdio_output@@@2@@__crt_stdio_output@@QAE@ABV?$stream_output_adapter@D@1@_KQBDQAU__crt_locale_pointers@@QAD@Z 1003b5a5 f i libucrt:output.obj
 0001:0003a5d2       ??0?$output_processor@DV?$stream_output_adapter@D@__crt_stdio_output@@V?$positional_parameter_base@DV?$stream_output_adapter@D@__crt_stdio_output@@@2@@__crt_stdio_output@@QAE@ABV?$stream_output_adapter@D@1@_KQBDQAU__crt_locale_pointers@@QAD@Z 1003b5d2 f i libucrt:output.obj
 0001:0003a5f9       ??0?$output_processor@DV?$stream_output_adapter@D@__crt_stdio_output@@V?$standard_base@DV?$stream_output_adapter@D@__crt_stdio_output@@@2@@__crt_stdio_output@@QAE@ABV?$stream_output_adapter@D@1@_KQBDQAU__crt_locale_pointers@@QAD@Z 1003b5f9 f i libucrt:output.obj
 0001:0003a626       ??0?$output_processor@DV?$string_output_adapter@D@__crt_stdio_output@@V?$format_validation_base@DV?$string_output_adapter@D@__crt_stdio_output@@@2@@__crt_stdio_output@@QAE@ABV?$string_output_adapter@D@1@_KQBDQAU__crt_locale_pointers@@QAD@Z 1003b626 f i libucrt:output.obj
 0001:0003a653       ??0?$output_processor@DV?$string_output_adapter@D@__crt_stdio_output@@V?$positional_parameter_base@DV?$string_output_adapter@D@__crt_stdio_output@@@2@@__crt_stdio_output@@QAE@ABV?$string_output_adapter@D@1@_KQBDQAU__crt_locale_pointers@@QAD@Z 1003b653 f i libucrt:output.obj
 0001:0003a67a       ??0?$output_processor@DV?$string_output_adapter@D@__crt_stdio_output@@V?$standard_base@DV?$string_output_adapter@D@__crt_stdio_output@@@2@@__crt_stdio_output@@QAE@ABV?$string_output_adapter@D@1@_KQBDQAU__crt_locale_pointers@@QAD@Z 1003b67a f i libucrt:output.obj
 0001:0003a6a7       ??0?$output_processor@_WV?$stream_output_adapter@_W@__crt_stdio_output@@V?$format_validation_base@_WV?$stream_output_adapter@_W@__crt_stdio_output@@@2@@__crt_stdio_output@@QAE@ABV?$stream_output_adapter@_W@1@_KQB_WQAU__crt_locale_pointers@@QAD@Z 1003b6a7 f i libucrt:output.obj
 0001:0003a6d4       ??0?$output_processor@_WV?$stream_output_adapter@_W@__crt_stdio_output@@V?$positional_parameter_base@_WV?$stream_output_adapter@_W@__crt_stdio_output@@@2@@__crt_stdio_output@@QAE@ABV?$stream_output_adapter@_W@1@_KQB_WQAU__crt_locale_pointers@@QAD@Z 1003b6d4 f i libucrt:output.obj
 0001:0003a6fb       ??0?$output_processor@_WV?$stream_output_adapter@_W@__crt_stdio_output@@V?$standard_base@_WV?$stream_output_adapter@_W@__crt_stdio_output@@@2@@__crt_stdio_output@@QAE@ABV?$stream_output_adapter@_W@1@_KQB_WQAU__crt_locale_pointers@@QAD@Z 1003b6fb f i libucrt:output.obj
 0001:0003a728       ??0?$output_processor@_WV?$string_output_adapter@_W@__crt_stdio_output@@V?$format_validation_base@_WV?$string_output_adapter@_W@__crt_stdio_output@@@2@@__crt_stdio_output@@QAE@ABV?$string_output_adapter@_W@1@_KQB_WQAU__crt_locale_pointers@@QAD@Z 1003b728 f i libucrt:output.obj
 0001:0003a755       ??0?$output_processor@_WV?$string_output_adapter@_W@__crt_stdio_output@@V?$positional_parameter_base@_WV?$string_output_adapter@_W@__crt_stdio_output@@@2@@__crt_stdio_output@@QAE@ABV?$string_output_adapter@_W@1@_KQB_WQAU__crt_locale_pointers@@QAD@Z 1003b755 f i libucrt:output.obj
 0001:0003a77c       ??0?$output_processor@_WV?$string_output_adapter@_W@__crt_stdio_output@@V?$standard_base@_WV?$string_output_adapter@_W@__crt_stdio_output@@@2@@__crt_stdio_output@@QAE@ABV?$string_output_adapter@_W@1@_KQB_WQAU__crt_locale_pointers@@QAD@Z 1003b77c f i libucrt:output.obj
 0001:0003a7a9       ??0?$stream_output_adapter@D@__crt_stdio_output@@QAE@QAU_iobuf@@@Z 1003b7a9 f i libucrt:output.obj
 0001:0003a7b9       ??0?$stream_output_adapter@_W@__crt_stdio_output@@QAE@QAU_iobuf@@@Z 1003b7b9 f i libucrt:output.obj
 0001:0003a7c9       ??0?$string_output_adapter@D@__crt_stdio_output@@QAE@QAU?$string_output_adapter_context@D@1@@Z 1003b7c9 f i libucrt:output.obj
 0001:0003a7d9       ??0?$string_output_adapter@_W@__crt_stdio_output@@QAE@QAU?$string_output_adapter_context@_W@1@@Z 1003b7d9 f i libucrt:output.obj
 0001:0003a7e9       ??0_LocaleUpdate@@QAE@QAU__crt_locale_pointers@@@Z 1003b7e9 f i libucrt:output.obj
 0001:0003a86c       ??0__acrt_stdio_temporary_buffering_guard@@QAE@QAU_iobuf@@@Z 1003b86c f i libucrt:output.obj
 0001:0003a88a       ??0__crt_deferred_errno_cache@@QAE@XZ 1003b88a f i libucrt:output.obj
 0001:0003a890       ??0__crt_errno_guard@@QAE@QAH@Z 1003b890 f i libucrt:output.obj
 0001:0003a8a8       ??0__crt_stdio_stream@@QAE@QAU_iobuf@@@Z 1003b8a8 f i libucrt:output.obj
 0001:0003a8b8       ??0formatting_buffer@__crt_stdio_output@@QAE@XZ 1003b8b8 f i libucrt:output.obj
 0001:0003a8c9       ??1?$common_data@D@__crt_stdio_output@@QAE@XZ 1003b8c9 f i libucrt:output.obj
 0001:0003a8d1       ??1?$common_data@_W@__crt_stdio_output@@QAE@XZ 1003b8d1 f i libucrt:output.obj
 0001:0003a8d9       ??1?$format_validation_base@DV?$stream_output_adapter@D@__crt_stdio_output@@@__crt_stdio_output@@QAE@XZ 1003b8d9 f i libucrt:output.obj
 0001:0003a8e1       ??1?$format_validation_base@DV?$string_output_adapter@D@__crt_stdio_output@@@__crt_stdio_output@@QAE@XZ 1003b8e1 f i libucrt:output.obj
 0001:0003a8e9       ??1?$format_validation_base@_WV?$stream_output_adapter@_W@__crt_stdio_output@@@__crt_stdio_output@@QAE@XZ 1003b8e9 f i libucrt:output.obj
 0001:0003a8f1       ??1?$format_validation_base@_WV?$string_output_adapter@_W@__crt_stdio_output@@@__crt_stdio_output@@QAE@XZ 1003b8f1 f i libucrt:output.obj
 0001:0003a8f9       ??1?$output_adapter_data@DV?$stream_output_adapter@D@__crt_stdio_output@@@__crt_stdio_output@@QAE@XZ 1003b8f9 f i libucrt:output.obj
 0001:0003a901       ??1?$output_adapter_data@DV?$string_output_adapter@D@__crt_stdio_output@@@__crt_stdio_output@@QAE@XZ 1003b901 f i libucrt:output.obj
 0001:0003a909       ??1?$output_adapter_data@_WV?$stream_output_adapter@_W@__crt_stdio_output@@@__crt_stdio_output@@QAE@XZ 1003b909 f i libucrt:output.obj
 0001:0003a911       ??1?$output_adapter_data@_WV?$string_output_adapter@_W@__crt_stdio_output@@@__crt_stdio_output@@QAE@XZ 1003b911 f i libucrt:output.obj
 0001:0003a919       ??1?$output_processor@DV?$stream_output_adapter@D@__crt_stdio_output@@V?$format_validation_base@DV?$stream_output_adapter@D@__crt_stdio_output@@@2@@__crt_stdio_output@@QAE@XZ 1003b919 f i libucrt:output.obj
 0001:0003a921       ??1?$output_processor@DV?$stream_output_adapter@D@__crt_stdio_output@@V?$positional_parameter_base@DV?$stream_output_adapter@D@__crt_stdio_output@@@2@@__crt_stdio_output@@QAE@XZ 1003b921 f i libucrt:output.obj
 0001:0003a929       ??1?$output_processor@DV?$stream_output_adapter@D@__crt_stdio_output@@V?$standard_base@DV?$stream_output_adapter@D@__crt_stdio_output@@@2@@__crt_stdio_output@@QAE@XZ 1003b929 f i libucrt:output.obj
 0001:0003a931       ??1?$output_processor@DV?$string_output_adapter@D@__crt_stdio_output@@V?$format_validation_base@DV?$string_output_adapter@D@__crt_stdio_output@@@2@@__crt_stdio_output@@QAE@XZ 1003b931 f i libucrt:output.obj
 0001:0003a939       ??1?$output_processor@DV?$string_output_adapter@D@__crt_stdio_output@@V?$positional_parameter_base@DV?$string_output_adapter@D@__crt_stdio_output@@@2@@__crt_stdio_output@@QAE@XZ 1003b939 f i libucrt:output.obj
 0001:0003a941       ??1?$output_processor@DV?$string_output_adapter@D@__crt_stdio_output@@V?$standard_base@DV?$string_output_adapter@D@__crt_stdio_output@@@2@@__crt_stdio_output@@QAE@XZ 1003b941 f i libucrt:output.obj
 0001:0003a949       ??1?$output_processor@_WV?$stream_output_adapter@_W@__crt_stdio_output@@V?$format_validation_base@_WV?$stream_output_adapter@_W@__crt_stdio_output@@@2@@__crt_stdio_output@@QAE@XZ 1003b949 f i libucrt:output.obj
 0001:0003a951       ??1?$output_processor@_WV?$stream_output_adapter@_W@__crt_stdio_output@@V?$positional_parameter_base@_WV?$stream_output_adapter@_W@__crt_stdio_output@@@2@@__crt_stdio_output@@QAE@XZ 1003b951 f i libucrt:output.obj
 0001:0003a959       ??1?$output_processor@_WV?$stream_output_adapter@_W@__crt_stdio_output@@V?$standard_base@_WV?$stream_output_adapter@_W@__crt_stdio_output@@@2@@__crt_stdio_output@@QAE@XZ 1003b959 f i libucrt:output.obj
 0001:0003a961       ??1?$output_processor@_WV?$string_output_adapter@_W@__crt_stdio_output@@V?$format_validation_base@_WV?$string_output_adapter@_W@__crt_stdio_output@@@2@@__crt_stdio_output@@QAE@XZ 1003b961 f i libucrt:output.obj
 0001:0003a969       ??1?$output_processor@_WV?$string_output_adapter@_W@__crt_stdio_output@@V?$positional_parameter_base@_WV?$string_output_adapter@_W@__crt_stdio_output@@@2@@__crt_stdio_output@@QAE@XZ 1003b969 f i libucrt:output.obj
 0001:0003a971       ??1?$output_processor@_WV?$string_output_adapter@_W@__crt_stdio_output@@V?$standard_base@_WV?$string_output_adapter@_W@__crt_stdio_output@@@2@@__crt_stdio_output@@QAE@XZ 1003b971 f i libucrt:output.obj
 0001:0003a979       ??1?$positional_parameter_base@DV?$stream_output_adapter@D@__crt_stdio_output@@@__crt_stdio_output@@QAE@XZ 1003b979 f i libucrt:output.obj
 0001:0003a981       ??1?$positional_parameter_base@DV?$string_output_adapter@D@__crt_stdio_output@@@__crt_stdio_output@@QAE@XZ 1003b981 f i libucrt:output.obj
 0001:0003a989       ??1?$positional_parameter_base@_WV?$stream_output_adapter@_W@__crt_stdio_output@@@__crt_stdio_output@@QAE@XZ 1003b989 f i libucrt:output.obj
 0001:0003a991       ??1?$positional_parameter_base@_WV?$string_output_adapter@_W@__crt_stdio_output@@@__crt_stdio_output@@QAE@XZ 1003b991 f i libucrt:output.obj
 0001:0003a999       ??1?$standard_base@DV?$stream_output_adapter@D@__crt_stdio_output@@@__crt_stdio_output@@QAE@XZ 1003b999 f i libucrt:output.obj
 0001:0003a9a1       ??1?$standard_base@DV?$string_output_adapter@D@__crt_stdio_output@@@__crt_stdio_output@@QAE@XZ 1003b9a1 f i libucrt:output.obj
 0001:0003a9a9       ??1?$standard_base@_WV?$stream_output_adapter@_W@__crt_stdio_output@@@__crt_stdio_output@@QAE@XZ 1003b9a9 f i libucrt:output.obj
 0001:0003a9b1       ??1?$standard_base@_WV?$string_output_adapter@_W@__crt_stdio_output@@@__crt_stdio_output@@QAE@XZ 1003b9b1 f i libucrt:output.obj
 0001:0003a9b9       ??1_LocaleUpdate@@QAE@XZ   1003b9b9 f i libucrt:output.obj
 0001:0003a9c9       ??1__acrt_stdio_temporary_buffering_guard@@QAE@XZ 1003b9c9 f i libucrt:output.obj
 0001:0003a9d8       ??1__crt_errno_guard@@QAE@XZ 1003b9d8 f i libucrt:output.obj
 0001:0003a9e9       ??1formatting_buffer@__crt_stdio_output@@QAE@XZ 1003b9e9 f i libucrt:output.obj
 0001:0003aa03       ??4?$__crt_unique_heap_ptr@DU__crt_internal_free_policy@@@@QAEAAV0@$$QAV0@@Z 1003ba03 f i libucrt:output.obj
 0001:0003aa27       ??C__crt_stdio_stream@@QBEPAU__crt_stdio_stream_data@@XZ 1003ba27 f i libucrt:output.obj
 0001:0003af7a       ?GetLocaleT@_LocaleUpdate@@QAEPAU__crt_locale_pointers@@XZ 1003bf7a f i libucrt:output.obj
 0001:0003af7e       ?adjust_hexit@?$output_processor@DV?$stream_output_adapter@D@__crt_stdio_output@@V?$format_validation_base@DV?$stream_output_adapter@D@__crt_stdio_output@@@2@@__crt_stdio_output@@CADH_N@Z 1003bf7e f i libucrt:output.obj
 0001:0003af92       ?adjust_hexit@?$output_processor@DV?$stream_output_adapter@D@__crt_stdio_output@@V?$positional_parameter_base@DV?$stream_output_adapter@D@__crt_stdio_output@@@2@@__crt_stdio_output@@CADH_N@Z 1003bf92 f i libucrt:output.obj
 0001:0003afa6       ?adjust_hexit@?$output_processor@DV?$stream_output_adapter@D@__crt_stdio_output@@V?$standard_base@DV?$stream_output_adapter@D@__crt_stdio_output@@@2@@__crt_stdio_output@@CADH_N@Z 1003bfa6 f i libucrt:output.obj
 0001:0003afba       ?adjust_hexit@?$output_processor@DV?$string_output_adapter@D@__crt_stdio_output@@V?$format_validation_base@DV?$string_output_adapter@D@__crt_stdio_output@@@2@@__crt_stdio_output@@CADH_N@Z 1003bfba f i libucrt:output.obj
 0001:0003afce       ?adjust_hexit@?$output_processor@DV?$string_output_adapter@D@__crt_stdio_output@@V?$positional_parameter_base@DV?$string_output_adapter@D@__crt_stdio_output@@@2@@__crt_stdio_output@@CADH_N@Z 1003bfce f i libucrt:output.obj
 0001:0003afe2       ?adjust_hexit@?$output_processor@DV?$string_output_adapter@D@__crt_stdio_output@@V?$standard_base@DV?$string_output_adapter@D@__crt_stdio_output@@@2@@__crt_stdio_output@@CADH_N@Z 1003bfe2 f i libucrt:output.obj
 0001:0003aff6       ?adjust_hexit@?$output_processor@_WV?$stream_output_adapter@_W@__crt_stdio_output@@V?$format_validation_base@_WV?$stream_output_adapter@_W@__crt_stdio_output@@@2@@__crt_stdio_output@@CADH_N@Z 1003bff6 f i libucrt:output.obj
 0001:0003b00a       ?adjust_hexit@?$output_processor@_WV?$stream_output_adapter@_W@__crt_stdio_output@@V?$positional_parameter_base@_WV?$stream_output_adapter@_W@__crt_stdio_output@@@2@@__crt_stdio_output@@CADH_N@Z 1003c00a f i libucrt:output.obj
 0001:0003b01e       ?adjust_hexit@?$output_processor@_WV?$stream_output_adapter@_W@__crt_stdio_output@@V?$standard_base@_WV?$stream_output_adapter@_W@__crt_stdio_output@@@2@@__crt_stdio_output@@CADH_N@Z 1003c01e f i libucrt:output.obj
 0001:0003b032       ?adjust_hexit@?$output_processor@_WV?$string_output_adapter@_W@__crt_stdio_output@@V?$format_validation_base@_WV?$string_output_adapter@_W@__crt_stdio_output@@@2@@__crt_stdio_output@@CADH_N@Z 1003c032 f i libucrt:output.obj
 0001:0003b046       ?adjust_hexit@?$output_processor@_WV?$string_output_adapter@_W@__crt_stdio_output@@V?$positional_parameter_base@_WV?$string_output_adapter@_W@__crt_stdio_output@@@2@@__crt_stdio_output@@CADH_N@Z 1003c046 f i libucrt:output.obj
 0001:0003b05a       ?adjust_hexit@?$output_processor@_WV?$string_output_adapter@_W@__crt_stdio_output@@V?$standard_base@_WV?$string_output_adapter@_W@__crt_stdio_output@@@2@@__crt_stdio_output@@CADH_N@Z 1003c05a f i libucrt:output.obj
 0001:0003b06e       ?advance_to_next_pass@?$positional_parameter_base@DV?$stream_output_adapter@D@__crt_stdio_output@@@__crt_stdio_output@@IAE_NXZ 1003c06e f i libucrt:output.obj
 0001:0003b0ba       ?advance_to_next_pass@?$positional_parameter_base@DV?$string_output_adapter@D@__crt_stdio_output@@@__crt_stdio_output@@IAE_NXZ 1003c0ba f i libucrt:output.obj
 0001:0003b106       ?advance_to_next_pass@?$positional_parameter_base@_WV?$stream_output_adapter@_W@__crt_stdio_output@@@__crt_stdio_output@@IAE_NXZ 1003c106 f i libucrt:output.obj
 0001:0003b152       ?advance_to_next_pass@?$positional_parameter_base@_WV?$string_output_adapter@_W@__crt_stdio_output@@@__crt_stdio_output@@IAE_NXZ 1003c152 f i libucrt:output.obj
 0001:0003b19e       ?advance_to_next_pass@?$standard_base@DV?$stream_output_adapter@D@__crt_stdio_output@@@__crt_stdio_output@@IAE_NXZ 1003c19e f i libucrt:output.obj
 0001:0003b1af       ?advance_to_next_pass@?$standard_base@DV?$string_output_adapter@D@__crt_stdio_output@@@__crt_stdio_output@@IAE_NXZ 1003c1af f i libucrt:output.obj
 0001:0003b1c0       ?advance_to_next_pass@?$standard_base@_WV?$stream_output_adapter@_W@__crt_stdio_output@@@__crt_stdio_output@@IAE_NXZ 1003c1c0 f i libucrt:output.obj
 0001:0003b1d1       ?advance_to_next_pass@?$standard_base@_WV?$string_output_adapter@_W@__crt_stdio_output@@@__crt_stdio_output@@IAE_NXZ 1003c1d1 f i libucrt:output.obj
 0001:0003b1e2       ?crop_zeroes@__crt_stdio_output@@YAXPADQAU__crt_locale_pointers@@@Z 1003c1e2 f i libucrt:output.obj
 0001:0003b242       ?find_next_state@?$output_processor@DV?$stream_output_adapter@D@__crt_stdio_output@@V?$format_validation_base@DV?$stream_output_adapter@D@__crt_stdio_output@@@2@@__crt_stdio_output@@ABE?AW4state@2@DW432@@Z 1003c242 f i libucrt:output.obj
 0001:0003b282       ?find_next_state@?$output_processor@DV?$stream_output_adapter@D@__crt_stdio_output@@V?$positional_parameter_base@DV?$stream_output_adapter@D@__crt_stdio_output@@@2@@__crt_stdio_output@@ABE?AW4state@2@DW432@@Z 1003c282 f i libucrt:output.obj
 0001:0003b2c2       ?find_next_state@?$output_processor@DV?$stream_output_adapter@D@__crt_stdio_output@@V?$standard_base@DV?$stream_output_adapter@D@__crt_stdio_output@@@2@@__crt_stdio_output@@ABE?AW4state@2@DW432@@Z 1003c2c2 f i libucrt:output.obj
 0001:0003b2ff       ?find_next_state@?$output_processor@DV?$string_output_adapter@D@__crt_stdio_output@@V?$format_validation_base@DV?$string_output_adapter@D@__crt_stdio_output@@@2@@__crt_stdio_output@@ABE?AW4state@2@DW432@@Z 1003c2ff f i libucrt:output.obj
 0001:0003b33f       ?find_next_state@?$output_processor@DV?$string_output_adapter@D@__crt_stdio_output@@V?$positional_parameter_base@DV?$string_output_adapter@D@__crt_stdio_output@@@2@@__crt_stdio_output@@ABE?AW4state@2@DW432@@Z 1003c33f f i libucrt:output.obj
 0001:0003b37f       ?find_next_state@?$output_processor@DV?$string_output_adapter@D@__crt_stdio_output@@V?$standard_base@DV?$string_output_adapter@D@__crt_stdio_output@@@2@@__crt_stdio_output@@ABE?AW4state@2@DW432@@Z 1003c37f f i libucrt:output.obj
 0001:0003b3bc       ?find_next_state@?$output_processor@_WV?$stream_output_adapter@_W@__crt_stdio_output@@V?$format_validation_base@_WV?$stream_output_adapter@_W@__crt_stdio_output@@@2@@__crt_stdio_output@@ABE?AW4state@2@_WW432@@Z 1003c3bc f i libucrt:output.obj
 0001:0003b3fe       ?find_next_state@?$output_processor@_WV?$stream_output_adapter@_W@__crt_stdio_output@@V?$positional_parameter_base@_WV?$stream_output_adapter@_W@__crt_stdio_output@@@2@@__crt_stdio_output@@ABE?AW4state@2@_WW432@@Z 1003c3fe f i libucrt:output.obj
 0001:0003b440       ?find_next_state@?$output_processor@_WV?$stream_output_adapter@_W@__crt_stdio_output@@V?$standard_base@_WV?$stream_output_adapter@_W@__crt_stdio_output@@@2@@__crt_stdio_output@@ABE?AW4state@2@_WW432@@Z 1003c440 f i libucrt:output.obj
 0001:0003b47f       ?find_next_state@?$output_processor@_WV?$string_output_adapter@_W@__crt_stdio_output@@V?$format_validation_base@_WV?$string_output_adapter@_W@__crt_stdio_output@@@2@@__crt_stdio_output@@ABE?AW4state@2@_WW432@@Z 1003c47f f i libucrt:output.obj
 0001:0003b4c1       ?find_next_state@?$output_processor@_WV?$string_output_adapter@_W@__crt_stdio_output@@V?$positional_parameter_base@_WV?$string_output_adapter@_W@__crt_stdio_output@@@2@@__crt_stdio_output@@ABE?AW4state@2@_WW432@@Z 1003c4c1 f i libucrt:output.obj
 0001:0003b503       ?find_next_state@?$output_processor@_WV?$string_output_adapter@_W@__crt_stdio_output@@V?$standard_base@_WV?$string_output_adapter@_W@__crt_stdio_output@@@2@@__crt_stdio_output@@ABE?AW4state@2@_WW432@@Z 1003c503 f i libucrt:output.obj
 0001:0003b542       ?force_decimal_point@__crt_stdio_output@@YAXPADQAU__crt_locale_pointers@@@Z 1003c542 f i libucrt:output.obj
 0001:0003b59e       ?get@__crt_deferred_errno_cache@@QAEAAHXZ 1003c59e f i libucrt:output.obj
 0001:0003b5b2       ?get_flags@__crt_stdio_stream@@QBEJXZ 1003c5b2 f i libucrt:output.obj
 0001:0003b5b9       ?get_parameter_type@?$positional_parameter_base@DV?$stream_output_adapter@D@__crt_stdio_output@@@__crt_stdio_output@@CA?AW4parameter_type@12@F@Z 1003c5b9 f i libucrt:output.obj
 0001:0003b5bd       ?get_parameter_type@?$positional_parameter_base@DV?$stream_output_adapter@D@__crt_stdio_output@@@__crt_stdio_output@@CA?AW4parameter_type@12@G@Z 1003c5bd f i libucrt:output.obj
 0001:0003b5c1       ?get_parameter_type@?$positional_parameter_base@DV?$stream_output_adapter@D@__crt_stdio_output@@@__crt_stdio_output@@CA?AW4parameter_type@12@H@Z 1003c5c1 f i libucrt:output.obj
 0001:0003b5c5       ?get_parameter_type@?$positional_parameter_base@DV?$stream_output_adapter@D@__crt_stdio_output@@@__crt_stdio_output@@CA?AW4parameter_type@12@I@Z 1003c5c5 f i libucrt:output.obj
 0001:0003b5c9       ?get_parameter_type@?$positional_parameter_base@DV?$stream_output_adapter@D@__crt_stdio_output@@@__crt_stdio_output@@CA?AW4parameter_type@12@U_CRT_DOUBLE@@@Z 1003c5c9 f i libucrt:output.obj
 0001:0003b5cd       ?get_parameter_type@?$positional_parameter_base@DV?$stream_output_adapter@D@__crt_stdio_output@@@__crt_stdio_output@@CA?AW4parameter_type@12@_J@Z 1003c5cd f i libucrt:output.obj
 0001:0003b5d1       ?get_parameter_type@?$positional_parameter_base@DV?$stream_output_adapter@D@__crt_stdio_output@@@__crt_stdio_output@@CA?AW4parameter_type@12@_K@Z 1003c5d1 f i libucrt:output.obj
 0001:0003b5d5       ?get_parameter_type@?$positional_parameter_base@DV?$stream_output_adapter@D@__crt_stdio_output@@@__crt_stdio_output@@CA?AW4parameter_type@12@_W@Z 1003c5d5 f i libucrt:output.obj
 0001:0003b5d9       ?get_parameter_type@?$positional_parameter_base@DV?$string_output_adapter@D@__crt_stdio_output@@@__crt_stdio_output@@CA?AW4parameter_type@12@F@Z 1003c5d9 f i libucrt:output.obj
 0001:0003b5dd       ?get_parameter_type@?$positional_parameter_base@DV?$string_output_adapter@D@__crt_stdio_output@@@__crt_stdio_output@@CA?AW4parameter_type@12@G@Z 1003c5dd f i libucrt:output.obj
 0001:0003b5e1       ?get_parameter_type@?$positional_parameter_base@DV?$string_output_adapter@D@__crt_stdio_output@@@__crt_stdio_output@@CA?AW4parameter_type@12@H@Z 1003c5e1 f i libucrt:output.obj
 0001:0003b5e5       ?get_parameter_type@?$positional_parameter_base@DV?$string_output_adapter@D@__crt_stdio_output@@@__crt_stdio_output@@CA?AW4parameter_type@12@I@Z 1003c5e5 f i libucrt:output.obj
 0001:0003b5e9       ?get_parameter_type@?$positional_parameter_base@DV?$string_output_adapter@D@__crt_stdio_output@@@__crt_stdio_output@@CA?AW4parameter_type@12@U_CRT_DOUBLE@@@Z 1003c5e9 f i libucrt:output.obj
 0001:0003b5ed       ?get_parameter_type@?$positional_parameter_base@DV?$string_output_adapter@D@__crt_stdio_output@@@__crt_stdio_output@@CA?AW4parameter_type@12@_J@Z 1003c5ed f i libucrt:output.obj
 0001:0003b5f1       ?get_parameter_type@?$positional_parameter_base@DV?$string_output_adapter@D@__crt_stdio_output@@@__crt_stdio_output@@CA?AW4parameter_type@12@_K@Z 1003c5f1 f i libucrt:output.obj
 0001:0003b5f5       ?get_parameter_type@?$positional_parameter_base@DV?$string_output_adapter@D@__crt_stdio_output@@@__crt_stdio_output@@CA?AW4parameter_type@12@_W@Z 1003c5f5 f i libucrt:output.obj
 0001:0003b5f9       ?get_parameter_type@?$positional_parameter_base@_WV?$stream_output_adapter@_W@__crt_stdio_output@@@__crt_stdio_output@@CA?AW4parameter_type@12@F@Z 1003c5f9 f i libucrt:output.obj
 0001:0003b5fd       ?get_parameter_type@?$positional_parameter_base@_WV?$stream_output_adapter@_W@__crt_stdio_output@@@__crt_stdio_output@@CA?AW4parameter_type@12@G@Z 1003c5fd f i libucrt:output.obj
 0001:0003b601       ?get_parameter_type@?$positional_parameter_base@_WV?$stream_output_adapter@_W@__crt_stdio_output@@@__crt_stdio_output@@CA?AW4parameter_type@12@H@Z 1003c601 f i libucrt:output.obj
 0001:0003b605       ?get_parameter_type@?$positional_parameter_base@_WV?$stream_output_adapter@_W@__crt_stdio_output@@@__crt_stdio_output@@CA?AW4parameter_type@12@I@Z 1003c605 f i libucrt:output.obj
 0001:0003b609       ?get_parameter_type@?$positional_parameter_base@_WV?$stream_output_adapter@_W@__crt_stdio_output@@@__crt_stdio_output@@CA?AW4parameter_type@12@U_CRT_DOUBLE@@@Z 1003c609 f i libucrt:output.obj
 0001:0003b60d       ?get_parameter_type@?$positional_parameter_base@_WV?$stream_output_adapter@_W@__crt_stdio_output@@@__crt_stdio_output@@CA?AW4parameter_type@12@_J@Z 1003c60d f i libucrt:output.obj
 0001:0003b611       ?get_parameter_type@?$positional_parameter_base@_WV?$stream_output_adapter@_W@__crt_stdio_output@@@__crt_stdio_output@@CA?AW4parameter_type@12@_K@Z 1003c611 f i libucrt:output.obj
 0001:0003b615       ?get_parameter_type@?$positional_parameter_base@_WV?$stream_output_adapter@_W@__crt_stdio_output@@@__crt_stdio_output@@CA?AW4parameter_type@12@_W@Z 1003c615 f i libucrt:output.obj
 0001:0003b619       ?get_parameter_type@?$positional_parameter_base@_WV?$string_output_adapter@_W@__crt_stdio_output@@@__crt_stdio_output@@CA?AW4parameter_type@12@F@Z 1003c619 f i libucrt:output.obj
 0001:0003b61d       ?get_parameter_type@?$positional_parameter_base@_WV?$string_output_adapter@_W@__crt_stdio_output@@@__crt_stdio_output@@CA?AW4parameter_type@12@G@Z 1003c61d f i libucrt:output.obj
 0001:0003b621       ?get_parameter_type@?$positional_parameter_base@_WV?$string_output_adapter@_W@__crt_stdio_output@@@__crt_stdio_output@@CA?AW4parameter_type@12@H@Z 1003c621 f i libucrt:output.obj
 0001:0003b625       ?get_parameter_type@?$positional_parameter_base@_WV?$string_output_adapter@_W@__crt_stdio_output@@@__crt_stdio_output@@CA?AW4parameter_type@12@I@Z 1003c625 f i libucrt:output.obj
 0001:0003b629       ?get_parameter_type@?$positional_parameter_base@_WV?$string_output_adapter@_W@__crt_stdio_output@@@__crt_stdio_output@@CA?AW4parameter_type@12@U_CRT_DOUBLE@@@Z 1003c629 f i libucrt:output.obj
 0001:0003b62d       ?get_parameter_type@?$positional_parameter_base@_WV?$string_output_adapter@_W@__crt_stdio_output@@@__crt_stdio_output@@CA?AW4parameter_type@12@_J@Z 1003c62d f i libucrt:output.obj
 0001:0003b631       ?get_parameter_type@?$positional_parameter_base@_WV?$string_output_adapter@_W@__crt_stdio_output@@@__crt_stdio_output@@CA?AW4parameter_type@12@_K@Z 1003c631 f i libucrt:output.obj
 0001:0003b635       ?get_parameter_type@?$positional_parameter_base@_WV?$string_output_adapter@_W@__crt_stdio_output@@@__crt_stdio_output@@CA?AW4parameter_type@12@_W@Z 1003c635 f i libucrt:output.obj
 0001:0003b639       ?has_flag@?$output_processor@DV?$stream_output_adapter@D@__crt_stdio_output@@V?$format_validation_base@DV?$stream_output_adapter@D@__crt_stdio_output@@@2@@__crt_stdio_output@@ABE_NI@Z 1003c639 f i libucrt:output.obj
 0001:0003b64b       ?has_flag@?$output_processor@DV?$stream_output_adapter@D@__crt_stdio_output@@V?$positional_parameter_base@DV?$stream_output_adapter@D@__crt_stdio_output@@@2@@__crt_stdio_output@@ABE_NI@Z 1003c64b f i libucrt:output.obj
 0001:0003b65d       ?has_flag@?$output_processor@DV?$stream_output_adapter@D@__crt_stdio_output@@V?$standard_base@DV?$stream_output_adapter@D@__crt_stdio_output@@@2@@__crt_stdio_output@@ABE_NI@Z 1003c65d f i libucrt:output.obj
 0001:0003b66f       ?has_flag@?$output_processor@DV?$string_output_adapter@D@__crt_stdio_output@@V?$format_validation_base@DV?$string_output_adapter@D@__crt_stdio_output@@@2@@__crt_stdio_output@@ABE_NI@Z 1003c66f f i libucrt:output.obj
 0001:0003b681       ?has_flag@?$output_processor@DV?$string_output_adapter@D@__crt_stdio_output@@V?$positional_parameter_base@DV?$string_output_adapter@D@__crt_stdio_output@@@2@@__crt_stdio_output@@ABE_NI@Z 1003c681 f i libucrt:output.obj
 0001:0003b693       ?has_flag@?$output_processor@DV?$string_output_adapter@D@__crt_stdio_output@@V?$standard_base@DV?$string_output_adapter@D@__crt_stdio_output@@@2@@__crt_stdio_output@@ABE_NI@Z 1003c693 f i libucrt:output.obj
 0001:0003b6a5       ?has_flag@?$output_processor@_WV?$stream_output_adapter@_W@__crt_stdio_output@@V?$format_validation_base@_WV?$stream_output_adapter@_W@__crt_stdio_output@@@2@@__crt_stdio_output@@ABE_NI@Z 1003c6a5 f i libucrt:output.obj
 0001:0003b6b7       ?has_flag@?$output_processor@_WV?$stream_output_adapter@_W@__crt_stdio_output@@V?$positional_parameter_base@_WV?$stream_output_adapter@_W@__crt_stdio_output@@@2@@__crt_stdio_output@@ABE_NI@Z 1003c6b7 f i libucrt:output.obj
 0001:0003b6c9       ?has_flag@?$output_processor@_WV?$stream_output_adapter@_W@__crt_stdio_output@@V?$standard_base@_WV?$stream_output_adapter@_W@__crt_stdio_output@@@2@@__crt_stdio_output@@ABE_NI@Z 1003c6c9 f i libucrt:output.obj
 0001:0003b6db       ?has_flag@?$output_processor@_WV?$string_output_adapter@_W@__crt_stdio_output@@V?$format_validation_base@_WV?$string_output_adapter@_W@__crt_stdio_output@@@2@@__crt_stdio_output@@ABE_NI@Z 1003c6db f i libucrt:output.obj
 0001:0003b6ed       ?has_flag@?$output_processor@_WV?$string_output_adapter@_W@__crt_stdio_output@@V?$positional_parameter_base@_WV?$string_output_adapter@_W@__crt_stdio_output@@@2@@__crt_stdio_output@@ABE_NI@Z 1003c6ed f i libucrt:output.obj
 0001:0003b6ff       ?has_flag@?$output_processor@_WV?$string_output_adapter@_W@__crt_stdio_output@@V?$standard_base@_WV?$string_output_adapter@_W@__crt_stdio_output@@@2@@__crt_stdio_output@@ABE_NI@Z 1003c6ff f i libucrt:output.obj
 0001:0003b711       ?is_positional_parameter_reappearance_consistent@?$positional_parameter_base@DV?$stream_output_adapter@D@__crt_stdio_output@@@__crt_stdio_output@@AAE_NABUparameter_data@12@W4parameter_type@12@DW4length_modifier@2@@Z 1003c711 f i libucrt:output.obj
 0001:0003b829       ?is_positional_parameter_reappearance_consistent@?$positional_parameter_base@DV?$string_output_adapter@D@__crt_stdio_output@@@__crt_stdio_output@@AAE_NABUparameter_data@12@W4parameter_type@12@DW4length_modifier@2@@Z 1003c829 f i libucrt:output.obj
 0001:0003b941       ?is_positional_parameter_reappearance_consistent@?$positional_parameter_base@_WV?$stream_output_adapter@_W@__crt_stdio_output@@@__crt_stdio_output@@AAE_NABUparameter_data@12@W4parameter_type@12@_WW4length_modifier@2@@Z 1003c941 f i libucrt:output.obj
 0001:0003ba59       ?is_positional_parameter_reappearance_consistent@?$positional_parameter_base@_WV?$string_output_adapter@_W@__crt_stdio_output@@@__crt_stdio_output@@AAE_NABUparameter_data@12@W4parameter_type@12@_WW4length_modifier@2@@Z 1003ca59 f i libucrt:output.obj
 0001:0003bb71       ?is_string_backed@__crt_stdio_stream@@QBE_NXZ 1003cb71 f i libucrt:output.obj
 0001:0003bb7d       ?narrow_null_string@?$output_processor@DV?$stream_output_adapter@D@__crt_stdio_output@@V?$format_validation_base@DV?$stream_output_adapter@D@__crt_stdio_output@@@2@@__crt_stdio_output@@CAPADXZ 1003cb7d f i libucrt:output.obj
 0001:0003bb83       ?narrow_null_string@?$output_processor@DV?$stream_output_adapter@D@__crt_stdio_output@@V?$positional_parameter_base@DV?$stream_output_adapter@D@__crt_stdio_output@@@2@@__crt_stdio_output@@CAPADXZ 1003cb83 f i libucrt:output.obj
 0001:0003bb89       ?narrow_null_string@?$output_processor@DV?$stream_output_adapter@D@__crt_stdio_output@@V?$standard_base@DV?$stream_output_adapter@D@__crt_stdio_output@@@2@@__crt_stdio_output@@CAPADXZ 1003cb89 f i libucrt:output.obj
 0001:0003bb8f       ?narrow_null_string@?$output_processor@DV?$string_output_adapter@D@__crt_stdio_output@@V?$format_validation_base@DV?$string_output_adapter@D@__crt_stdio_output@@@2@@__crt_stdio_output@@CAPADXZ 1003cb8f f i libucrt:output.obj
 0001:0003bb95       ?narrow_null_string@?$output_processor@DV?$string_output_adapter@D@__crt_stdio_output@@V?$positional_parameter_base@DV?$string_output_adapter@D@__crt_stdio_output@@@2@@__crt_stdio_output@@CAPADXZ 1003cb95 f i libucrt:output.obj
 0001:0003bb9b       ?narrow_null_string@?$output_processor@DV?$string_output_adapter@D@__crt_stdio_output@@V?$standard_base@DV?$string_output_adapter@D@__crt_stdio_output@@@2@@__crt_stdio_output@@CAPADXZ 1003cb9b f i libucrt:output.obj
 0001:0003bba1       ?narrow_null_string@?$output_processor@_WV?$stream_output_adapter@_W@__crt_stdio_output@@V?$format_validation_base@_WV?$stream_output_adapter@_W@__crt_stdio_output@@@2@@__crt_stdio_output@@CAPADXZ 1003cba1 f i libucrt:output.obj
 0001:0003bba7       ?narrow_null_string@?$output_processor@_WV?$stream_output_adapter@_W@__crt_stdio_output@@V?$positional_parameter_base@_WV?$stream_output_adapter@_W@__crt_stdio_output@@@2@@__crt_stdio_output@@CAPADXZ 1003cba7 f i libucrt:output.obj
 0001:0003bbad       ?narrow_null_string@?$output_processor@_WV?$stream_output_adapter@_W@__crt_stdio_output@@V?$standard_base@_WV?$stream_output_adapter@_W@__crt_stdio_output@@@2@@__crt_stdio_output@@CAPADXZ 1003cbad f i libucrt:output.obj
 0001:0003bbb3       ?narrow_null_string@?$output_processor@_WV?$string_output_adapter@_W@__crt_stdio_output@@V?$format_validation_base@_WV?$string_output_adapter@_W@__crt_stdio_output@@@2@@__crt_stdio_output@@CAPADXZ 1003cbb3 f i libucrt:output.obj
 0001:0003bbb9       ?narrow_null_string@?$output_processor@_WV?$string_output_adapter@_W@__crt_stdio_output@@V?$positional_parameter_base@_WV?$string_output_adapter@_W@__crt_stdio_output@@@2@@__crt_stdio_output@@CAPADXZ 1003cbb9 f i libucrt:output.obj
 0001:0003bbbf       ?narrow_null_string@?$output_processor@_WV?$string_output_adapter@_W@__crt_stdio_output@@V?$standard_base@_WV?$string_output_adapter@_W@__crt_stdio_output@@@2@@__crt_stdio_output@@CAPADXZ 1003cbbf f i libucrt:output.obj
 0001:0003bbc5       ?parse_int_from_format_string@?$output_processor@DV?$stream_output_adapter@D@__crt_stdio_output@@V?$format_validation_base@DV?$stream_output_adapter@D@__crt_stdio_output@@@2@@__crt_stdio_output@@AAE_NQAH@Z 1003cbc5 f i libucrt:output.obj
 0001:0003bc39       ?parse_int_from_format_string@?$output_processor@DV?$stream_output_adapter@D@__crt_stdio_output@@V?$positional_parameter_base@DV?$stream_output_adapter@D@__crt_stdio_output@@@2@@__crt_stdio_output@@AAE_NQAH@Z 1003cc39 f i libucrt:output.obj
 0001:0003bcad       ?parse_int_from_format_string@?$output_processor@DV?$stream_output_adapter@D@__crt_stdio_output@@V?$standard_base@DV?$stream_output_adapter@D@__crt_stdio_output@@@2@@__crt_stdio_output@@AAE_NQAH@Z 1003ccad f i libucrt:output.obj
 0001:0003bd21       ?parse_int_from_format_string@?$output_processor@DV?$string_output_adapter@D@__crt_stdio_output@@V?$format_validation_base@DV?$string_output_adapter@D@__crt_stdio_output@@@2@@__crt_stdio_output@@AAE_NQAH@Z 1003cd21 f i libucrt:output.obj
 0001:0003bd95       ?parse_int_from_format_string@?$output_processor@DV?$string_output_adapter@D@__crt_stdio_output@@V?$positional_parameter_base@DV?$string_output_adapter@D@__crt_stdio_output@@@2@@__crt_stdio_output@@AAE_NQAH@Z 1003cd95 f i libucrt:output.obj
 0001:0003be09       ?parse_int_from_format_string@?$output_processor@DV?$string_output_adapter@D@__crt_stdio_output@@V?$standard_base@DV?$string_output_adapter@D@__crt_stdio_output@@@2@@__crt_stdio_output@@AAE_NQAH@Z 1003ce09 f i libucrt:output.obj
 0001:0003be7d       ?parse_int_from_format_string@?$output_processor@_WV?$stream_output_adapter@_W@__crt_stdio_output@@V?$format_validation_base@_WV?$stream_output_adapter@_W@__crt_stdio_output@@@2@@__crt_stdio_output@@AAE_NQAH@Z 1003ce7d f i libucrt:output.obj
 0001:0003bef3       ?parse_int_from_format_string@?$output_processor@_WV?$stream_output_adapter@_W@__crt_stdio_output@@V?$positional_parameter_base@_WV?$stream_output_adapter@_W@__crt_stdio_output@@@2@@__crt_stdio_output@@AAE_NQAH@Z 1003cef3 f i libucrt:output.obj
 0001:0003bf69       ?parse_int_from_format_string@?$output_processor@_WV?$stream_output_adapter@_W@__crt_stdio_output@@V?$standard_base@_WV?$stream_output_adapter@_W@__crt_stdio_output@@@2@@__crt_stdio_output@@AAE_NQAH@Z 1003cf69 f i libucrt:output.obj
 0001:0003bfdf       ?parse_int_from_format_string@?$output_processor@_WV?$string_output_adapter@_W@__crt_stdio_output@@V?$format_validation_base@_WV?$string_output_adapter@_W@__crt_stdio_output@@@2@@__crt_stdio_output@@AAE_NQAH@Z 1003cfdf f i libucrt:output.obj
 0001:0003c055       ?parse_int_from_format_string@?$output_processor@_WV?$string_output_adapter@_W@__crt_stdio_output@@V?$positional_parameter_base@_WV?$string_output_adapter@_W@__crt_stdio_output@@@2@@__crt_stdio_output@@AAE_NQAH@Z 1003d055 f i libucrt:output.obj
 0001:0003c0cb       ?parse_int_from_format_string@?$output_processor@_WV?$string_output_adapter@_W@__crt_stdio_output@@V?$standard_base@_WV?$string_output_adapter@_W@__crt_stdio_output@@@2@@__crt_stdio_output@@AAE_NQAH@Z 1003d0cb f i libucrt:output.obj
 0001:0003c141       ?process@?$output_processor@DV?$stream_output_adapter@D@__crt_stdio_output@@V?$format_validation_base@DV?$stream_output_adapter@D@__crt_stdio_output@@@2@@__crt_stdio_output@@QAEHXZ 1003d141 f i libucrt:output.obj
 0001:0003c265       ?process@?$output_processor@DV?$stream_output_adapter@D@__crt_stdio_output@@V?$positional_parameter_base@DV?$stream_output_adapter@D@__crt_stdio_output@@@2@@__crt_stdio_output@@QAEHXZ 1003d265 f i libucrt:output.obj
 0001:0003c395       ?process@?$output_processor@DV?$stream_output_adapter@D@__crt_stdio_output@@V?$standard_base@DV?$stream_output_adapter@D@__crt_stdio_output@@@2@@__crt_stdio_output@@QAEHXZ 1003d395 f i libucrt:output.obj
 0001:0003c4a9       ?process@?$output_processor@DV?$string_output_adapter@D@__crt_stdio_output@@V?$format_validation_base@DV?$string_output_adapter@D@__crt_stdio_output@@@2@@__crt_stdio_output@@QAEHXZ 1003d4a9 f i libucrt:output.obj
 0001:0003c5cd       ?process@?$output_processor@DV?$string_output_adapter@D@__crt_stdio_output@@V?$positional_parameter_base@DV?$string_output_adapter@D@__crt_stdio_output@@@2@@__crt_stdio_output@@QAEHXZ 1003d5cd f i libucrt:output.obj
 0001:0003c6fd       ?process@?$output_processor@DV?$string_output_adapter@D@__crt_stdio_output@@V?$standard_base@DV?$string_output_adapter@D@__crt_stdio_output@@@2@@__crt_stdio_output@@QAEHXZ 1003d6fd f i libucrt:output.obj
 0001:0003c811       ?process@?$output_processor@_WV?$stream_output_adapter@_W@__crt_stdio_output@@V?$format_validation_base@_WV?$stream_output_adapter@_W@__crt_stdio_output@@@2@@__crt_stdio_output@@QAEHXZ 1003d811 f i libucrt:output.obj
 0001:0003c939       ?process@?$output_processor@_WV?$stream_output_adapter@_W@__crt_stdio_output@@V?$positional_parameter_base@_WV?$stream_output_adapter@_W@__crt_stdio_output@@@2@@__crt_stdio_output@@QAEHXZ 1003d939 f i libucrt:output.obj
 0001:0003ca6d       ?process@?$output_processor@_WV?$stream_output_adapter@_W@__crt_stdio_output@@V?$standard_base@_WV?$stream_output_adapter@_W@__crt_stdio_output@@@2@@__crt_stdio_output@@QAEHXZ 1003da6d f i libucrt:output.obj
 0001:0003cb89       ?process@?$output_processor@_WV?$string_output_adapter@_W@__crt_stdio_output@@V?$format_validation_base@_WV?$string_output_adapter@_W@__crt_stdio_output@@@2@@__crt_stdio_output@@QAEHXZ 1003db89 f i libucrt:output.obj
 0001:0003ccb1       ?process@?$output_processor@_WV?$string_output_adapter@_W@__crt_stdio_output@@V?$positional_parameter_base@_WV?$string_output_adapter@_W@__crt_stdio_output@@@2@@__crt_stdio_output@@QAEHXZ 1003dcb1 f i libucrt:output.obj
 0001:0003cde5       ?process@?$output_processor@_WV?$string_output_adapter@_W@__crt_stdio_output@@V?$standard_base@_WV?$string_output_adapter@_W@__crt_stdio_output@@@2@@__crt_stdio_output@@QAEHXZ 1003dde5 f i libucrt:output.obj
 0001:0003cf01       ?public_stream@__crt_stdio_stream@@QBEPAU_iobuf@@XZ 1003df01 f i libucrt:output.obj
 0001:0003cf04       ?set_flag@?$output_processor@DV?$stream_output_adapter@D@__crt_stdio_output@@V?$format_validation_base@DV?$stream_output_adapter@D@__crt_stdio_output@@@2@@__crt_stdio_output@@AAEXI@Z 1003df04 f i libucrt:output.obj
 0001:0003cf13       ?set_flag@?$output_processor@DV?$stream_output_adapter@D@__crt_stdio_output@@V?$positional_parameter_base@DV?$stream_output_adapter@D@__crt_stdio_output@@@2@@__crt_stdio_output@@AAEXI@Z 1003df13 f i libucrt:output.obj
 0001:0003cf22       ?set_flag@?$output_processor@DV?$stream_output_adapter@D@__crt_stdio_output@@V?$standard_base@DV?$stream_output_adapter@D@__crt_stdio_output@@@2@@__crt_stdio_output@@AAEXI@Z 1003df22 f i libucrt:output.obj
 0001:0003cf31       ?set_flag@?$output_processor@DV?$string_output_adapter@D@__crt_stdio_output@@V?$format_validation_base@DV?$string_output_adapter@D@__crt_stdio_output@@@2@@__crt_stdio_output@@AAEXI@Z 1003df31 f i libucrt:output.obj
 0001:0003cf40       ?set_flag@?$output_processor@DV?$string_output_adapter@D@__crt_stdio_output@@V?$positional_parameter_base@DV?$string_output_adapter@D@__crt_stdio_output@@@2@@__crt_stdio_output@@AAEXI@Z 1003df40 f i libucrt:output.obj
 0001:0003cf4f       ?set_flag@?$output_processor@DV?$string_output_adapter@D@__crt_stdio_output@@V?$standard_base@DV?$string_output_adapter@D@__crt_stdio_output@@@2@@__crt_stdio_output@@AAEXI@Z 1003df4f f i libucrt:output.obj
 0001:0003cf5e       ?set_flag@?$output_processor@_WV?$stream_output_adapter@_W@__crt_stdio_output@@V?$format_validation_base@_WV?$stream_output_adapter@_W@__crt_stdio_output@@@2@@__crt_stdio_output@@AAEXI@Z 1003df5e f i libucrt:output.obj
 0001:0003cf6d       ?set_flag@?$output_processor@_WV?$stream_output_adapter@_W@__crt_stdio_output@@V?$positional_parameter_base@_WV?$stream_output_adapter@_W@__crt_stdio_output@@@2@@__crt_stdio_output@@AAEXI@Z 1003df6d f i libucrt:output.obj
 0001:0003cf7c       ?set_flag@?$output_processor@_WV?$stream_output_adapter@_W@__crt_stdio_output@@V?$standard_base@_WV?$stream_output_adapter@_W@__crt_stdio_output@@@2@@__crt_stdio_output@@AAEXI@Z 1003df7c f i libucrt:output.obj
 0001:0003cf8b       ?set_flag@?$output_processor@_WV?$string_output_adapter@_W@__crt_stdio_output@@V?$format_validation_base@_WV?$string_output_adapter@_W@__crt_stdio_output@@@2@@__crt_stdio_output@@AAEXI@Z 1003df8b f i libucrt:output.obj
 0001:0003cf9a       ?set_flag@?$output_processor@_WV?$string_output_adapter@_W@__crt_stdio_output@@V?$positional_parameter_base@_WV?$string_output_adapter@_W@__crt_stdio_output@@@2@@__crt_stdio_output@@AAEXI@Z 1003df9a f i libucrt:output.obj
 0001:0003cfa9       ?set_flag@?$output_processor@_WV?$string_output_adapter@_W@__crt_stdio_output@@V?$standard_base@_WV?$string_output_adapter@_W@__crt_stdio_output@@@2@@__crt_stdio_output@@AAEXI@Z 1003dfa9 f i libucrt:output.obj
 0001:0003cfb8       ?should_format@?$positional_parameter_base@DV?$stream_output_adapter@D@__crt_stdio_output@@@__crt_stdio_output@@IAE_NXZ 1003dfb8 f i libucrt:output.obj
 0001:0003cfce       ?should_format@?$positional_parameter_base@DV?$string_output_adapter@D@__crt_stdio_output@@@__crt_stdio_output@@IAE_NXZ 1003dfce f i libucrt:output.obj
 0001:0003cfe4       ?should_format@?$positional_parameter_base@_WV?$stream_output_adapter@_W@__crt_stdio_output@@@__crt_stdio_output@@IAE_NXZ 1003dfe4 f i libucrt:output.obj
 0001:0003cffa       ?should_format@?$positional_parameter_base@_WV?$string_output_adapter@_W@__crt_stdio_output@@@__crt_stdio_output@@IAE_NXZ 1003dffa f i libucrt:output.obj
 0001:0003d010       ?should_format@?$standard_base@DV?$stream_output_adapter@D@__crt_stdio_output@@@__crt_stdio_output@@IAE_NXZ 1003e010 f i libucrt:output.obj
 0001:0003d013       ?should_format@?$standard_base@DV?$string_output_adapter@D@__crt_stdio_output@@@__crt_stdio_output@@IAE_NXZ 1003e013 f i libucrt:output.obj
 0001:0003d016       ?should_format@?$standard_base@_WV?$stream_output_adapter@_W@__crt_stdio_output@@@__crt_stdio_output@@IAE_NXZ 1003e016 f i libucrt:output.obj
 0001:0003d019       ?should_format@?$standard_base@_WV?$string_output_adapter@_W@__crt_stdio_output@@@__crt_stdio_output@@IAE_NXZ 1003e019 f i libucrt:output.obj
 0001:0003d01c       ?should_skip_normal_state_processing@?$positional_parameter_base@DV?$stream_output_adapter@D@__crt_stdio_output@@@__crt_stdio_output@@IAE_NXZ 1003e01c f i libucrt:output.obj
 0001:0003d044       ?should_skip_normal_state_processing@?$positional_parameter_base@DV?$string_output_adapter@D@__crt_stdio_output@@@__crt_stdio_output@@IAE_NXZ 1003e044 f i libucrt:output.obj
 0001:0003d06c       ?should_skip_normal_state_processing@?$positional_parameter_base@_WV?$stream_output_adapter@_W@__crt_stdio_output@@@__crt_stdio_output@@IAE_NXZ 1003e06c f i libucrt:output.obj
 0001:0003d094       ?should_skip_normal_state_processing@?$positional_parameter_base@_WV?$string_output_adapter@_W@__crt_stdio_output@@@__crt_stdio_output@@IAE_NXZ 1003e094 f i libucrt:output.obj
 0001:0003d0bc       ?should_skip_normal_state_processing@?$standard_base@DV?$stream_output_adapter@D@__crt_stdio_output@@@__crt_stdio_output@@IAE_NXZ 1003e0bc f i libucrt:output.obj
 0001:0003d0bf       ?should_skip_normal_state_processing@?$standard_base@DV?$string_output_adapter@D@__crt_stdio_output@@@__crt_stdio_output@@IAE_NXZ 1003e0bf f i libucrt:output.obj
 0001:0003d0c2       ?should_skip_normal_state_processing@?$standard_base@_WV?$stream_output_adapter@_W@__crt_stdio_output@@@__crt_stdio_output@@IAE_NXZ 1003e0c2 f i libucrt:output.obj
 0001:0003d0c5       ?should_skip_normal_state_processing@?$standard_base@_WV?$string_output_adapter@_W@__crt_stdio_output@@@__crt_stdio_output@@IAE_NXZ 1003e0c5 f i libucrt:output.obj
 0001:0003d0c8       ?should_skip_type_state_output@?$positional_parameter_base@DV?$stream_output_adapter@D@__crt_stdio_output@@@__crt_stdio_output@@IBE_NXZ 1003e0c8 f i libucrt:output.obj
 0001:0003d0df       ?should_skip_type_state_output@?$positional_parameter_base@DV?$string_output_adapter@D@__crt_stdio_output@@@__crt_stdio_output@@IBE_NXZ 1003e0df f i libucrt:output.obj
 0001:0003d0f6       ?should_skip_type_state_output@?$positional_parameter_base@_WV?$stream_output_adapter@_W@__crt_stdio_output@@@__crt_stdio_output@@IBE_NXZ 1003e0f6 f i libucrt:output.obj
 0001:0003d10d       ?should_skip_type_state_output@?$positional_parameter_base@_WV?$string_output_adapter@_W@__crt_stdio_output@@@__crt_stdio_output@@IBE_NXZ 1003e10d f i libucrt:output.obj
 0001:0003d124       ?should_skip_type_state_output@?$standard_base@DV?$stream_output_adapter@D@__crt_stdio_output@@@__crt_stdio_output@@IBE_NXZ 1003e124 f i libucrt:output.obj
 0001:0003d127       ?should_skip_type_state_output@?$standard_base@DV?$string_output_adapter@D@__crt_stdio_output@@@__crt_stdio_output@@IBE_NXZ 1003e127 f i libucrt:output.obj
 0001:0003d12a       ?should_skip_type_state_output@?$standard_base@_WV?$stream_output_adapter@_W@__crt_stdio_output@@@__crt_stdio_output@@IBE_NXZ 1003e12a f i libucrt:output.obj
 0001:0003d12d       ?should_skip_type_state_output@?$standard_base@_WV?$string_output_adapter@_W@__crt_stdio_output@@@__crt_stdio_output@@IBE_NXZ 1003e12d f i libucrt:output.obj
 0001:0003d130       ?state_case_dot@?$output_processor@DV?$stream_output_adapter@D@__crt_stdio_output@@V?$format_validation_base@DV?$stream_output_adapter@D@__crt_stdio_output@@@2@@__crt_stdio_output@@AAE_NXZ 1003e130 f i libucrt:output.obj
 0001:0003d137       ?state_case_dot@?$output_processor@DV?$stream_output_adapter@D@__crt_stdio_output@@V?$positional_parameter_base@DV?$stream_output_adapter@D@__crt_stdio_output@@@2@@__crt_stdio_output@@AAE_NXZ 1003e137 f i libucrt:output.obj
 0001:0003d13e       ?state_case_dot@?$output_processor@DV?$stream_output_adapter@D@__crt_stdio_output@@V?$standard_base@DV?$stream_output_adapter@D@__crt_stdio_output@@@2@@__crt_stdio_output@@AAE_NXZ 1003e13e f i libucrt:output.obj
 0001:0003d145       ?state_case_dot@?$output_processor@DV?$string_output_adapter@D@__crt_stdio_output@@V?$format_validation_base@DV?$string_output_adapter@D@__crt_stdio_output@@@2@@__crt_stdio_output@@AAE_NXZ 1003e145 f i libucrt:output.obj
 0001:0003d14c       ?state_case_dot@?$output_processor@DV?$string_output_adapter@D@__crt_stdio_output@@V?$positional_parameter_base@DV?$string_output_adapter@D@__crt_stdio_output@@@2@@__crt_stdio_output@@AAE_NXZ 1003e14c f i libucrt:output.obj
 0001:0003d153       ?state_case_dot@?$output_processor@DV?$string_output_adapter@D@__crt_stdio_output@@V?$standard_base@DV?$string_output_adapter@D@__crt_stdio_output@@@2@@__crt_stdio_output@@AAE_NXZ 1003e153 f i libucrt:output.obj
 0001:0003d15a       ?state_case_dot@?$output_processor@_WV?$stream_output_adapter@_W@__crt_stdio_output@@V?$format_validation_base@_WV?$stream_output_adapter@_W@__crt_stdio_output@@@2@@__crt_stdio_output@@AAE_NXZ 1003e15a f i libucrt:output.obj
 0001:0003d161       ?state_case_dot@?$output_processor@_WV?$stream_output_adapter@_W@__crt_stdio_output@@V?$positional_parameter_base@_WV?$stream_output_adapter@_W@__crt_stdio_output@@@2@@__crt_stdio_output@@AAE_NXZ 1003e161 f i libucrt:output.obj
 0001:0003d168       ?state_case_dot@?$output_processor@_WV?$stream_output_adapter@_W@__crt_stdio_output@@V?$standard_base@_WV?$stream_output_adapter@_W@__crt_stdio_output@@@2@@__crt_stdio_output@@AAE_NXZ 1003e168 f i libucrt:output.obj
 0001:0003d16f       ?state_case_dot@?$output_processor@_WV?$string_output_adapter@_W@__crt_stdio_output@@V?$format_validation_base@_WV?$string_output_adapter@_W@__crt_stdio_output@@@2@@__crt_stdio_output@@AAE_NXZ 1003e16f f i libucrt:output.obj
 0001:0003d176       ?state_case_dot@?$output_processor@_WV?$string_output_adapter@_W@__crt_stdio_output@@V?$positional_parameter_base@_WV?$string_output_adapter@_W@__crt_stdio_output@@@2@@__crt_stdio_output@@AAE_NXZ 1003e176 f i libucrt:output.obj
 0001:0003d17d       ?state_case_dot@?$output_processor@_WV?$string_output_adapter@_W@__crt_stdio_output@@V?$standard_base@_WV?$string_output_adapter@_W@__crt_stdio_output@@@2@@__crt_stdio_output@@AAE_NXZ 1003e17d f i libucrt:output.obj
 0001:0003d184       ?state_case_flag@?$output_processor@DV?$stream_output_adapter@D@__crt_stdio_output@@V?$format_validation_base@DV?$stream_output_adapter@D@__crt_stdio_output@@@2@@__crt_stdio_output@@AAE_NXZ 1003e184 f i libucrt:output.obj
 0001:0003d1c1       ?state_case_flag@?$output_processor@DV?$stream_output_adapter@D@__crt_stdio_output@@V?$positional_parameter_base@DV?$stream_output_adapter@D@__crt_stdio_output@@@2@@__crt_stdio_output@@AAE_NXZ 1003e1c1 f i libucrt:output.obj
 0001:0003d1fe       ?state_case_flag@?$output_processor@DV?$stream_output_adapter@D@__crt_stdio_output@@V?$standard_base@DV?$stream_output_adapter@D@__crt_stdio_output@@@2@@__crt_stdio_output@@AAE_NXZ 1003e1fe f i libucrt:output.obj
 0001:0003d23b       ?state_case_flag@?$output_processor@DV?$string_output_adapter@D@__crt_stdio_output@@V?$format_validation_base@DV?$string_output_adapter@D@__crt_stdio_output@@@2@@__crt_stdio_output@@AAE_NXZ 1003e23b f i libucrt:output.obj
 0001:0003d278       ?state_case_flag@?$output_processor@DV?$string_output_adapter@D@__crt_stdio_output@@V?$positional_parameter_base@DV?$string_output_adapter@D@__crt_stdio_output@@@2@@__crt_stdio_output@@AAE_NXZ 1003e278 f i libucrt:output.obj
 0001:0003d2b5       ?state_case_flag@?$output_processor@DV?$string_output_adapter@D@__crt_stdio_output@@V?$standard_base@DV?$string_output_adapter@D@__crt_stdio_output@@@2@@__crt_stdio_output@@AAE_NXZ 1003e2b5 f i libucrt:output.obj
 0001:0003d2f2       ?state_case_flag@?$output_processor@_WV?$stream_output_adapter@_W@__crt_stdio_output@@V?$format_validation_base@_WV?$stream_output_adapter@_W@__crt_stdio_output@@@2@@__crt_stdio_output@@AAE_NXZ 1003e2f2 f i libucrt:output.obj
 0001:0003d32f       ?state_case_flag@?$output_processor@_WV?$stream_output_adapter@_W@__crt_stdio_output@@V?$positional_parameter_base@_WV?$stream_output_adapter@_W@__crt_stdio_output@@@2@@__crt_stdio_output@@AAE_NXZ 1003e32f f i libucrt:output.obj
 0001:0003d36c       ?state_case_flag@?$output_processor@_WV?$stream_output_adapter@_W@__crt_stdio_output@@V?$standard_base@_WV?$stream_output_adapter@_W@__crt_stdio_output@@@2@@__crt_stdio_output@@AAE_NXZ 1003e36c f i libucrt:output.obj
 0001:0003d3a9       ?state_case_flag@?$output_processor@_WV?$string_output_adapter@_W@__crt_stdio_output@@V?$format_validation_base@_WV?$string_output_adapter@_W@__crt_stdio_output@@@2@@__crt_stdio_output@@AAE_NXZ 1003e3a9 f i libucrt:output.obj
 0001:0003d3e6       ?state_case_flag@?$output_processor@_WV?$string_output_adapter@_W@__crt_stdio_output@@V?$positional_parameter_base@_WV?$string_output_adapter@_W@__crt_stdio_output@@@2@@__crt_stdio_output@@AAE_NXZ 1003e3e6 f i libucrt:output.obj
 0001:0003d423       ?state_case_flag@?$output_processor@_WV?$string_output_adapter@_W@__crt_stdio_output@@V?$standard_base@_WV?$string_output_adapter@_W@__crt_stdio_output@@@2@@__crt_stdio_output@@AAE_NXZ 1003e423 f i libucrt:output.obj
 0001:0003d460       ?state_case_normal@?$output_processor@DV?$stream_output_adapter@D@__crt_stdio_output@@V?$format_validation_base@DV?$stream_output_adapter@D@__crt_stdio_output@@@2@@__crt_stdio_output@@AAE_NXZ 1003e460 f i libucrt:output.obj
 0001:0003d47f       ?state_case_normal@?$output_processor@DV?$stream_output_adapter@D@__crt_stdio_output@@V?$positional_parameter_base@DV?$stream_output_adapter@D@__crt_stdio_output@@@2@@__crt_stdio_output@@AAE_NXZ 1003e47f f i libucrt:output.obj
 0001:0003d4b0       ?state_case_normal@?$output_processor@DV?$stream_output_adapter@D@__crt_stdio_output@@V?$standard_base@DV?$stream_output_adapter@D@__crt_stdio_output@@@2@@__crt_stdio_output@@AAE_NXZ 1003e4b0 f i libucrt:output.obj
 0001:0003d4cf       ?state_case_normal@?$output_processor@DV?$string_output_adapter@D@__crt_stdio_output@@V?$format_validation_base@DV?$string_output_adapter@D@__crt_stdio_output@@@2@@__crt_stdio_output@@AAE_NXZ 1003e4cf f i libucrt:output.obj
 0001:0003d4ee       ?state_case_normal@?$output_processor@DV?$string_output_adapter@D@__crt_stdio_output@@V?$positional_parameter_base@DV?$string_output_adapter@D@__crt_stdio_output@@@2@@__crt_stdio_output@@AAE_NXZ 1003e4ee f i libucrt:output.obj
 0001:0003d51f       ?state_case_normal@?$output_processor@DV?$string_output_adapter@D@__crt_stdio_output@@V?$standard_base@DV?$string_output_adapter@D@__crt_stdio_output@@@2@@__crt_stdio_output@@AAE_NXZ 1003e51f f i libucrt:output.obj
 0001:0003d53e       ?state_case_normal@?$output_processor@_WV?$stream_output_adapter@_W@__crt_stdio_output@@V?$format_validation_base@_WV?$stream_output_adapter@_W@__crt_stdio_output@@@2@@__crt_stdio_output@@AAE_NXZ 1003e53e f i libucrt:output.obj
 0001:0003d55d       ?state_case_normal@?$output_processor@_WV?$stream_output_adapter@_W@__crt_stdio_output@@V?$positional_parameter_base@_WV?$stream_output_adapter@_W@__crt_stdio_output@@@2@@__crt_stdio_output@@AAE_NXZ 1003e55d f i libucrt:output.obj
 0001:0003d58e       ?state_case_normal@?$output_processor@_WV?$stream_output_adapter@_W@__crt_stdio_output@@V?$standard_base@_WV?$stream_output_adapter@_W@__crt_stdio_output@@@2@@__crt_stdio_output@@AAE_NXZ 1003e58e f i libucrt:output.obj
 0001:0003d5ad       ?state_case_normal@?$output_processor@_WV?$string_output_adapter@_W@__crt_stdio_output@@V?$format_validation_base@_WV?$string_output_adapter@_W@__crt_stdio_output@@@2@@__crt_stdio_output@@AAE_NXZ 1003e5ad f i libucrt:output.obj
 0001:0003d5cc       ?state_case_normal@?$output_processor@_WV?$string_output_adapter@_W@__crt_stdio_output@@V?$positional_parameter_base@_WV?$string_output_adapter@_W@__crt_stdio_output@@@2@@__crt_stdio_output@@AAE_NXZ 1003e5cc f i libucrt:output.obj
 0001:0003d5fd       ?state_case_normal@?$output_processor@_WV?$string_output_adapter@_W@__crt_stdio_output@@V?$standard_base@_WV?$string_output_adapter@_W@__crt_stdio_output@@@2@@__crt_stdio_output@@AAE_NXZ 1003e5fd f i libucrt:output.obj
 0001:0003d61c       ?state_case_normal_common@?$output_processor@DV?$stream_output_adapter@D@__crt_stdio_output@@V?$format_validation_base@DV?$stream_output_adapter@D@__crt_stdio_output@@@2@@__crt_stdio_output@@AAE_NXZ 1003e61c f i libucrt:output.obj
 0001:0003d656       ?state_case_normal_common@?$output_processor@DV?$stream_output_adapter@D@__crt_stdio_output@@V?$positional_parameter_base@DV?$stream_output_adapter@D@__crt_stdio_output@@@2@@__crt_stdio_output@@AAE_NXZ 1003e656 f i libucrt:output.obj
 0001:0003d690       ?state_case_normal_common@?$output_processor@DV?$stream_output_adapter@D@__crt_stdio_output@@V?$standard_base@DV?$stream_output_adapter@D@__crt_stdio_output@@@2@@__crt_stdio_output@@AAE_NXZ 1003e690 f i libucrt:output.obj
 0001:0003d6ca       ?state_case_normal_common@?$output_processor@DV?$string_output_adapter@D@__crt_stdio_output@@V?$format_validation_base@DV?$string_output_adapter@D@__crt_stdio_output@@@2@@__crt_stdio_output@@AAE_NXZ 1003e6ca f i libucrt:output.obj
 0001:0003d6f4       ?state_case_normal_common@?$output_processor@DV?$string_output_adapter@D@__crt_stdio_output@@V?$positional_parameter_base@DV?$string_output_adapter@D@__crt_stdio_output@@@2@@__crt_stdio_output@@AAE_NXZ 1003e6f4 f i libucrt:output.obj
 0001:0003d71e       ?state_case_normal_common@?$output_processor@DV?$string_output_adapter@D@__crt_stdio_output@@V?$standard_base@DV?$string_output_adapter@D@__crt_stdio_output@@@2@@__crt_stdio_output@@AAE_NXZ 1003e71e f i libucrt:output.obj
 0001:0003d748       ?state_case_normal_common@?$output_processor@_WV?$stream_output_adapter@_W@__crt_stdio_output@@V?$format_validation_base@_WV?$stream_output_adapter@_W@__crt_stdio_output@@@2@@__crt_stdio_output@@AAE_NXZ 1003e748 f i libucrt:output.obj
 0001:0003d772       ?state_case_normal_common@?$output_processor@_WV?$stream_output_adapter@_W@__crt_stdio_output@@V?$positional_parameter_base@_WV?$stream_output_adapter@_W@__crt_stdio_output@@@2@@__crt_stdio_output@@AAE_NXZ 1003e772 f i libucrt:output.obj
 0001:0003d79c       ?state_case_normal_common@?$output_processor@_WV?$stream_output_adapter@_W@__crt_stdio_output@@V?$standard_base@_WV?$stream_output_adapter@_W@__crt_stdio_output@@@2@@__crt_stdio_output@@AAE_NXZ 1003e79c f i libucrt:output.obj
 0001:0003d7c6       ?state_case_normal_common@?$output_processor@_WV?$string_output_adapter@_W@__crt_stdio_output@@V?$format_validation_base@_WV?$string_output_adapter@_W@__crt_stdio_output@@@2@@__crt_stdio_output@@AAE_NXZ 1003e7c6 f i libucrt:output.obj
 0001:0003d7e1       ?state_case_normal_common@?$output_processor@_WV?$string_output_adapter@_W@__crt_stdio_output@@V?$positional_parameter_base@_WV?$string_output_adapter@_W@__crt_stdio_output@@@2@@__crt_stdio_output@@AAE_NXZ 1003e7e1 f i libucrt:output.obj
 0001:0003d7fc       ?state_case_normal_common@?$output_processor@_WV?$string_output_adapter@_W@__crt_stdio_output@@V?$standard_base@_WV?$string_output_adapter@_W@__crt_stdio_output@@@2@@__crt_stdio_output@@AAE_NXZ 1003e7fc f i libucrt:output.obj
 0001:0003d817       ?state_case_normal_tchar@?$output_processor@DV?$stream_output_adapter@D@__crt_stdio_output@@V?$format_validation_base@DV?$stream_output_adapter@D@__crt_stdio_output@@@2@@__crt_stdio_output@@AAE_ND@Z 1003e817 f i libucrt:output.obj
 0001:0003d884       ?state_case_normal_tchar@?$output_processor@DV?$stream_output_adapter@D@__crt_stdio_output@@V?$positional_parameter_base@DV?$stream_output_adapter@D@__crt_stdio_output@@@2@@__crt_stdio_output@@AAE_ND@Z 1003e884 f i libucrt:output.obj
 0001:0003d8f1       ?state_case_normal_tchar@?$output_processor@DV?$stream_output_adapter@D@__crt_stdio_output@@V?$standard_base@DV?$stream_output_adapter@D@__crt_stdio_output@@@2@@__crt_stdio_output@@AAE_ND@Z 1003e8f1 f i libucrt:output.obj
 0001:0003d95e       ?state_case_normal_tchar@?$output_processor@DV?$string_output_adapter@D@__crt_stdio_output@@V?$format_validation_base@DV?$string_output_adapter@D@__crt_stdio_output@@@2@@__crt_stdio_output@@AAE_ND@Z 1003e95e f i libucrt:output.obj
 0001:0003d9c2       ?state_case_normal_tchar@?$output_processor@DV?$string_output_adapter@D@__crt_stdio_output@@V?$positional_parameter_base@DV?$string_output_adapter@D@__crt_stdio_output@@@2@@__crt_stdio_output@@AAE_ND@Z 1003e9c2 f i libucrt:output.obj
 0001:0003da26       ?state_case_normal_tchar@?$output_processor@DV?$string_output_adapter@D@__crt_stdio_output@@V?$standard_base@DV?$string_output_adapter@D@__crt_stdio_output@@@2@@__crt_stdio_output@@AAE_ND@Z 1003ea26 f i libucrt:output.obj
 0001:0003da8a       ?state_case_normal_tchar@?$output_processor@_WV?$stream_output_adapter@_W@__crt_stdio_output@@V?$format_validation_base@_WV?$stream_output_adapter@_W@__crt_stdio_output@@@2@@__crt_stdio_output@@AAE_N_W@Z 1003ea8a f i libucrt:output.obj
 0001:0003da93       ?state_case_normal_tchar@?$output_processor@_WV?$stream_output_adapter@_W@__crt_stdio_output@@V?$positional_parameter_base@_WV?$stream_output_adapter@_W@__crt_stdio_output@@@2@@__crt_stdio_output@@AAE_N_W@Z 1003ea93 f i libucrt:output.obj
 0001:0003da9c       ?state_case_normal_tchar@?$output_processor@_WV?$stream_output_adapter@_W@__crt_stdio_output@@V?$standard_base@_WV?$stream_output_adapter@_W@__crt_stdio_output@@@2@@__crt_stdio_output@@AAE_N_W@Z 1003ea9c f i libucrt:output.obj
 0001:0003daa5       ?state_case_normal_tchar@?$output_processor@_WV?$string_output_adapter@_W@__crt_stdio_output@@V?$format_validation_base@_WV?$string_output_adapter@_W@__crt_stdio_output@@@2@@__crt_stdio_output@@AAE_N_W@Z 1003eaa5 f i libucrt:output.obj
 0001:0003daae       ?state_case_normal_tchar@?$output_processor@_WV?$string_output_adapter@_W@__crt_stdio_output@@V?$positional_parameter_base@_WV?$string_output_adapter@_W@__crt_stdio_output@@@2@@__crt_stdio_output@@AAE_N_W@Z 1003eaae f i libucrt:output.obj
 0001:0003dab7       ?state_case_normal_tchar@?$output_processor@_WV?$string_output_adapter@_W@__crt_stdio_output@@V?$standard_base@_WV?$string_output_adapter@_W@__crt_stdio_output@@@2@@__crt_stdio_output@@AAE_N_W@Z 1003eab7 f i libucrt:output.obj
 0001:0003dac0       ?state_case_percent@?$output_processor@DV?$stream_output_adapter@D@__crt_stdio_output@@V?$format_validation_base@DV?$stream_output_adapter@D@__crt_stdio_output@@@2@@__crt_stdio_output@@AAE_NXZ 1003eac0 f i libucrt:output.obj
 0001:0003dad8       ?state_case_percent@?$output_processor@DV?$stream_output_adapter@D@__crt_stdio_output@@V?$positional_parameter_base@DV?$stream_output_adapter@D@__crt_stdio_output@@@2@@__crt_stdio_output@@AAE_NXZ 1003ead8 f i libucrt:output.obj
 0001:0003daf0       ?state_case_percent@?$output_processor@DV?$stream_output_adapter@D@__crt_stdio_output@@V?$standard_base@DV?$stream_output_adapter@D@__crt_stdio_output@@@2@@__crt_stdio_output@@AAE_NXZ 1003eaf0 f i libucrt:output.obj
 0001:0003db08       ?state_case_percent@?$output_processor@DV?$string_output_adapter@D@__crt_stdio_output@@V?$format_validation_base@DV?$string_output_adapter@D@__crt_stdio_output@@@2@@__crt_stdio_output@@AAE_NXZ 1003eb08 f i libucrt:output.obj
 0001:0003db20       ?state_case_percent@?$output_processor@DV?$string_output_adapter@D@__crt_stdio_output@@V?$positional_parameter_base@DV?$string_output_adapter@D@__crt_stdio_output@@@2@@__crt_stdio_output@@AAE_NXZ 1003eb20 f i libucrt:output.obj
 0001:0003db38       ?state_case_percent@?$output_processor@DV?$string_output_adapter@D@__crt_stdio_output@@V?$standard_base@DV?$string_output_adapter@D@__crt_stdio_output@@@2@@__crt_stdio_output@@AAE_NXZ 1003eb38 f i libucrt:output.obj
 0001:0003db50       ?state_case_percent@?$output_processor@_WV?$stream_output_adapter@_W@__crt_stdio_output@@V?$format_validation_base@_WV?$stream_output_adapter@_W@__crt_stdio_output@@@2@@__crt_stdio_output@@AAE_NXZ 1003eb50 f i libucrt:output.obj
 0001:0003db68       ?state_case_percent@?$output_processor@_WV?$stream_output_adapter@_W@__crt_stdio_output@@V?$positional_parameter_base@_WV?$stream_output_adapter@_W@__crt_stdio_output@@@2@@__crt_stdio_output@@AAE_NXZ 1003eb68 f i libucrt:output.obj
 0001:0003db80       ?state_case_percent@?$output_processor@_WV?$stream_output_adapter@_W@__crt_stdio_output@@V?$standard_base@_WV?$stream_output_adapter@_W@__crt_stdio_output@@@2@@__crt_stdio_output@@AAE_NXZ 1003eb80 f i libucrt:output.obj
 0001:0003db98       ?state_case_percent@?$output_processor@_WV?$string_output_adapter@_W@__crt_stdio_output@@V?$format_validation_base@_WV?$string_output_adapter@_W@__crt_stdio_output@@@2@@__crt_stdio_output@@AAE_NXZ 1003eb98 f i libucrt:output.obj
 0001:0003dbb0       ?state_case_percent@?$output_processor@_WV?$string_output_adapter@_W@__crt_stdio_output@@V?$positional_parameter_base@_WV?$string_output_adapter@_W@__crt_stdio_output@@@2@@__crt_stdio_output@@AAE_NXZ 1003ebb0 f i libucrt:output.obj
 0001:0003dbc8       ?state_case_percent@?$output_processor@_WV?$string_output_adapter@_W@__crt_stdio_output@@V?$standard_base@_WV?$string_output_adapter@_W@__crt_stdio_output@@@2@@__crt_stdio_output@@AAE_NXZ 1003ebc8 f i libucrt:output.obj
 0001:0003dbe0       ?state_case_precision@?$output_processor@DV?$stream_output_adapter@D@__crt_stdio_output@@V?$format_validation_base@DV?$stream_output_adapter@D@__crt_stdio_output@@@2@@__crt_stdio_output@@AAE_NXZ 1003ebe0 f i libucrt:output.obj
 0001:0003dc06       ?state_case_precision@?$output_processor@DV?$stream_output_adapter@D@__crt_stdio_output@@V?$positional_parameter_base@DV?$stream_output_adapter@D@__crt_stdio_output@@@2@@__crt_stdio_output@@AAE_NXZ 1003ec06 f i libucrt:output.obj
 0001:0003dc40       ?state_case_precision@?$output_processor@DV?$stream_output_adapter@D@__crt_stdio_output@@V?$standard_base@DV?$stream_output_adapter@D@__crt_stdio_output@@@2@@__crt_stdio_output@@AAE_NXZ 1003ec40 f i libucrt:output.obj
 0001:0003dc66       ?state_case_precision@?$output_processor@DV?$string_output_adapter@D@__crt_stdio_output@@V?$format_validation_base@DV?$string_output_adapter@D@__crt_stdio_output@@@2@@__crt_stdio_output@@AAE_NXZ 1003ec66 f i libucrt:output.obj
 0001:0003dc8c       ?state_case_precision@?$output_processor@DV?$string_output_adapter@D@__crt_stdio_output@@V?$positional_parameter_base@DV?$string_output_adapter@D@__crt_stdio_output@@@2@@__crt_stdio_output@@AAE_NXZ 1003ec8c f i libucrt:output.obj
 0001:0003dcc6       ?state_case_precision@?$output_processor@DV?$string_output_adapter@D@__crt_stdio_output@@V?$standard_base@DV?$string_output_adapter@D@__crt_stdio_output@@@2@@__crt_stdio_output@@AAE_NXZ 1003ecc6 f i libucrt:output.obj
 0001:0003dcec       ?state_case_precision@?$output_processor@_WV?$stream_output_adapter@_W@__crt_stdio_output@@V?$format_validation_base@_WV?$stream_output_adapter@_W@__crt_stdio_output@@@2@@__crt_stdio_output@@AAE_NXZ 1003ecec f i libucrt:output.obj
 0001:0003dd13       ?state_case_precision@?$output_processor@_WV?$stream_output_adapter@_W@__crt_stdio_output@@V?$positional_parameter_base@_WV?$stream_output_adapter@_W@__crt_stdio_output@@@2@@__crt_stdio_output@@AAE_NXZ 1003ed13 f i libucrt:output.obj
 0001:0003dd4e       ?state_case_precision@?$output_processor@_WV?$stream_output_adapter@_W@__crt_stdio_output@@V?$standard_base@_WV?$stream_output_adapter@_W@__crt_stdio_output@@@2@@__crt_stdio_output@@AAE_NXZ 1003ed4e f i libucrt:output.obj
 0001:0003dd75       ?state_case_precision@?$output_processor@_WV?$string_output_adapter@_W@__crt_stdio_output@@V?$format_validation_base@_WV?$string_output_adapter@_W@__crt_stdio_output@@@2@@__crt_stdio_output@@AAE_NXZ 1003ed75 f i libucrt:output.obj
 0001:0003dd9c       ?state_case_precision@?$output_processor@_WV?$string_output_adapter@_W@__crt_stdio_output@@V?$positional_parameter_base@_WV?$string_output_adapter@_W@__crt_stdio_output@@@2@@__crt_stdio_output@@AAE_NXZ 1003ed9c f i libucrt:output.obj
 0001:0003ddd7       ?state_case_precision@?$output_processor@_WV?$string_output_adapter@_W@__crt_stdio_output@@V?$standard_base@_WV?$string_output_adapter@_W@__crt_stdio_output@@@2@@__crt_stdio_output@@AAE_NXZ 1003edd7 f i libucrt:output.obj
 0001:0003ddfe       ?state_case_size@?$output_processor@DV?$stream_output_adapter@D@__crt_stdio_output@@V?$format_validation_base@DV?$stream_output_adapter@D@__crt_stdio_output@@@2@@__crt_stdio_output@@AAE_NXZ 1003edfe f i libucrt:output.obj
 0001:0003df4c       ?state_case_size@?$output_processor@DV?$stream_output_adapter@D@__crt_stdio_output@@V?$positional_parameter_base@DV?$stream_output_adapter@D@__crt_stdio_output@@@2@@__crt_stdio_output@@AAE_NXZ 1003ef4c f i libucrt:output.obj
 0001:0003e09a       ?state_case_size@?$output_processor@DV?$stream_output_adapter@D@__crt_stdio_output@@V?$standard_base@DV?$stream_output_adapter@D@__crt_stdio_output@@@2@@__crt_stdio_output@@AAE_NXZ 1003f09a f i libucrt:output.obj
 0001:0003e1e8       ?state_case_size@?$output_processor@DV?$string_output_adapter@D@__crt_stdio_output@@V?$format_validation_base@DV?$string_output_adapter@D@__crt_stdio_output@@@2@@__crt_stdio_output@@AAE_NXZ 1003f1e8 f i libucrt:output.obj
 0001:0003e336       ?state_case_size@?$output_processor@DV?$string_output_adapter@D@__crt_stdio_output@@V?$positional_parameter_base@DV?$string_output_adapter@D@__crt_stdio_output@@@2@@__crt_stdio_output@@AAE_NXZ 1003f336 f i libucrt:output.obj
 0001:0003e484       ?state_case_size@?$output_processor@DV?$string_output_adapter@D@__crt_stdio_output@@V?$standard_base@DV?$string_output_adapter@D@__crt_stdio_output@@@2@@__crt_stdio_output@@AAE_NXZ 1003f484 f i libucrt:output.obj
 0001:0003e5d2       ?state_case_size@?$output_processor@_WV?$stream_output_adapter@_W@__crt_stdio_output@@V?$format_validation_base@_WV?$stream_output_adapter@_W@__crt_stdio_output@@@2@@__crt_stdio_output@@AAE_NXZ 1003f5d2 f i libucrt:output.obj
 0001:0003e74a       ?state_case_size@?$output_processor@_WV?$stream_output_adapter@_W@__crt_stdio_output@@V?$positional_parameter_base@_WV?$stream_output_adapter@_W@__crt_stdio_output@@@2@@__crt_stdio_output@@AAE_NXZ 1003f74a f i libucrt:output.obj
 0001:0003e8c2       ?state_case_size@?$output_processor@_WV?$stream_output_adapter@_W@__crt_stdio_output@@V?$standard_base@_WV?$stream_output_adapter@_W@__crt_stdio_output@@@2@@__crt_stdio_output@@AAE_NXZ 1003f8c2 f i libucrt:output.obj
 0001:0003ea3a       ?state_case_size@?$output_processor@_WV?$string_output_adapter@_W@__crt_stdio_output@@V?$format_validation_base@_WV?$string_output_adapter@_W@__crt_stdio_output@@@2@@__crt_stdio_output@@AAE_NXZ 1003fa3a f i libucrt:output.obj
 0001:0003ebb2       ?state_case_size@?$output_processor@_WV?$string_output_adapter@_W@__crt_stdio_output@@V?$positional_parameter_base@_WV?$string_output_adapter@_W@__crt_stdio_output@@@2@@__crt_stdio_output@@AAE_NXZ 1003fbb2 f i libucrt:output.obj
 0001:0003ed2a       ?state_case_size@?$output_processor@_WV?$string_output_adapter@_W@__crt_stdio_output@@V?$standard_base@_WV?$string_output_adapter@_W@__crt_stdio_output@@@2@@__crt_stdio_output@@AAE_NXZ 1003fd2a f i libucrt:output.obj
 0001:0003eea2       ?state_case_type@?$output_processor@DV?$stream_output_adapter@D@__crt_stdio_output@@V?$format_validation_base@DV?$stream_output_adapter@D@__crt_stdio_output@@@2@@__crt_stdio_output@@AAE_NXZ 1003fea2 f i libucrt:output.obj
 0001:0003f0d4       ?state_case_type@?$output_processor@DV?$stream_output_adapter@D@__crt_stdio_output@@V?$positional_parameter_base@DV?$stream_output_adapter@D@__crt_stdio_output@@@2@@__crt_stdio_output@@AAE_NXZ 100400d4 f i libucrt:output.obj
 0001:0003f315       ?state_case_type@?$output_processor@DV?$stream_output_adapter@D@__crt_stdio_output@@V?$standard_base@DV?$stream_output_adapter@D@__crt_stdio_output@@@2@@__crt_stdio_output@@AAE_NXZ 10040315 f i libucrt:output.obj
 0001:0003f547       ?state_case_type@?$output_processor@DV?$string_output_adapter@D@__crt_stdio_output@@V?$format_validation_base@DV?$string_output_adapter@D@__crt_stdio_output@@@2@@__crt_stdio_output@@AAE_NXZ 10040547 f i libucrt:output.obj
 0001:0003f779       ?state_case_type@?$output_processor@DV?$string_output_adapter@D@__crt_stdio_output@@V?$positional_parameter_base@DV?$string_output_adapter@D@__crt_stdio_output@@@2@@__crt_stdio_output@@AAE_NXZ 10040779 f i libucrt:output.obj
 0001:0003f9ba       ?state_case_type@?$output_processor@DV?$string_output_adapter@D@__crt_stdio_output@@V?$standard_base@DV?$string_output_adapter@D@__crt_stdio_output@@@2@@__crt_stdio_output@@AAE_NXZ 100409ba f i libucrt:output.obj
 0001:0003fbec       ?state_case_type@?$output_processor@_WV?$stream_output_adapter@_W@__crt_stdio_output@@V?$format_validation_base@_WV?$stream_output_adapter@_W@__crt_stdio_output@@@2@@__crt_stdio_output@@AAE_NXZ 10040bec f i libucrt:output.obj
 0001:0003fe51       ?state_case_type@?$output_processor@_WV?$stream_output_adapter@_W@__crt_stdio_output@@V?$positional_parameter_base@_WV?$stream_output_adapter@_W@__crt_stdio_output@@@2@@__crt_stdio_output@@AAE_NXZ 10040e51 f i libucrt:output.obj
 0001:000400c5       ?state_case_type@?$output_processor@_WV?$stream_output_adapter@_W@__crt_stdio_output@@V?$standard_base@_WV?$stream_output_adapter@_W@__crt_stdio_output@@@2@@__crt_stdio_output@@AAE_NXZ 100410c5 f i libucrt:output.obj
 0001:0004032a       ?state_case_type@?$output_processor@_WV?$string_output_adapter@_W@__crt_stdio_output@@V?$format_validation_base@_WV?$string_output_adapter@_W@__crt_stdio_output@@@2@@__crt_stdio_output@@AAE_NXZ 1004132a f i libucrt:output.obj
 0001:0004058f       ?state_case_type@?$output_processor@_WV?$string_output_adapter@_W@__crt_stdio_output@@V?$positional_parameter_base@_WV?$string_output_adapter@_W@__crt_stdio_output@@@2@@__crt_stdio_output@@AAE_NXZ 1004158f f i libucrt:output.obj
 0001:00040803       ?state_case_type@?$output_processor@_WV?$string_output_adapter@_W@__crt_stdio_output@@V?$standard_base@_WV?$string_output_adapter@_W@__crt_stdio_output@@@2@@__crt_stdio_output@@AAE_NXZ 10041803 f i libucrt:output.obj
 0001:00040a68       ?state_case_width@?$output_processor@DV?$stream_output_adapter@D@__crt_stdio_output@@V?$format_validation_base@DV?$stream_output_adapter@D@__crt_stdio_output@@@2@@__crt_stdio_output@@AAE_NXZ 10041a68 f i libucrt:output.obj
 0001:00040a93       ?state_case_width@?$output_processor@DV?$stream_output_adapter@D@__crt_stdio_output@@V?$positional_parameter_base@DV?$stream_output_adapter@D@__crt_stdio_output@@@2@@__crt_stdio_output@@AAE_NXZ 10041a93 f i libucrt:output.obj
 0001:00040ad3       ?state_case_width@?$output_processor@DV?$stream_output_adapter@D@__crt_stdio_output@@V?$standard_base@DV?$stream_output_adapter@D@__crt_stdio_output@@@2@@__crt_stdio_output@@AAE_NXZ 10041ad3 f i libucrt:output.obj
 0001:00040afe       ?state_case_width@?$output_processor@DV?$string_output_adapter@D@__crt_stdio_output@@V?$format_validation_base@DV?$string_output_adapter@D@__crt_stdio_output@@@2@@__crt_stdio_output@@AAE_NXZ 10041afe f i libucrt:output.obj
 0001:00040b29       ?state_case_width@?$output_processor@DV?$string_output_adapter@D@__crt_stdio_output@@V?$positional_parameter_base@DV?$string_output_adapter@D@__crt_stdio_output@@@2@@__crt_stdio_output@@AAE_NXZ 10041b29 f i libucrt:output.obj
 0001:00040b69       ?state_case_width@?$output_processor@DV?$string_output_adapter@D@__crt_stdio_output@@V?$standard_base@DV?$string_output_adapter@D@__crt_stdio_output@@@2@@__crt_stdio_output@@AAE_NXZ 10041b69 f i libucrt:output.obj
 0001:00040b94       ?state_case_width@?$output_processor@_WV?$stream_output_adapter@_W@__crt_stdio_output@@V?$format_validation_base@_WV?$stream_output_adapter@_W@__crt_stdio_output@@@2@@__crt_stdio_output@@AAE_NXZ 10041b94 f i libucrt:output.obj
 0001:00040bc0       ?state_case_width@?$output_processor@_WV?$stream_output_adapter@_W@__crt_stdio_output@@V?$positional_parameter_base@_WV?$stream_output_adapter@_W@__crt_stdio_output@@@2@@__crt_stdio_output@@AAE_NXZ 10041bc0 f i libucrt:output.obj
 0001:00040c01       ?state_case_width@?$output_processor@_WV?$stream_output_adapter@_W@__crt_stdio_output@@V?$standard_base@_WV?$stream_output_adapter@_W@__crt_stdio_output@@@2@@__crt_stdio_output@@AAE_NXZ 10041c01 f i libucrt:output.obj
 0001:00040c2d       ?state_case_width@?$output_processor@_WV?$string_output_adapter@_W@__crt_stdio_output@@V?$format_validation_base@_WV?$string_output_adapter@_W@__crt_stdio_output@@@2@@__crt_stdio_output@@AAE_NXZ 10041c2d f i libucrt:output.obj
 0001:00040c59       ?state_case_width@?$output_processor@_WV?$string_output_adapter@_W@__crt_stdio_output@@V?$positional_parameter_base@_WV?$string_output_adapter@_W@__crt_stdio_output@@@2@@__crt_stdio_output@@AAE_NXZ 10041c59 f i libucrt:output.obj
 0001:00040c9a       ?state_case_width@?$output_processor@_WV?$string_output_adapter@_W@__crt_stdio_output@@V?$standard_base@_WV?$string_output_adapter@_W@__crt_stdio_output@@@2@@__crt_stdio_output@@AAE_NXZ 10041c9a f i libucrt:output.obj
 0001:00040cc6       ?state_count@?$format_validation_base@DV?$stream_output_adapter@D@__crt_stdio_output@@@__crt_stdio_output@@KAIXZ 10041cc6 f i libucrt:output.obj
 0001:00040cca       ?state_count@?$format_validation_base@DV?$string_output_adapter@D@__crt_stdio_output@@@__crt_stdio_output@@KAIXZ 10041cca f i libucrt:output.obj
 0001:00040cce       ?state_count@?$format_validation_base@_WV?$stream_output_adapter@_W@__crt_stdio_output@@@__crt_stdio_output@@KAIXZ 10041cce f i libucrt:output.obj
 0001:00040cd2       ?state_count@?$format_validation_base@_WV?$string_output_adapter@_W@__crt_stdio_output@@@__crt_stdio_output@@KAIXZ 10041cd2 f i libucrt:output.obj
 0001:00040cd6       ?state_count@?$standard_base@DV?$stream_output_adapter@D@__crt_stdio_output@@@__crt_stdio_output@@KAIXZ 10041cd6 f i libucrt:output.obj
 0001:00040cda       ?state_count@?$standard_base@DV?$string_output_adapter@D@__crt_stdio_output@@@__crt_stdio_output@@KAIXZ 10041cda f i libucrt:output.obj
 0001:00040cde       ?state_count@?$standard_base@_WV?$stream_output_adapter@_W@__crt_stdio_output@@@__crt_stdio_output@@KAIXZ 10041cde f i libucrt:output.obj
 0001:00040ce2       ?state_count@?$standard_base@_WV?$string_output_adapter@_W@__crt_stdio_output@@@__crt_stdio_output@@KAIXZ 10041ce2 f i libucrt:output.obj
 0001:00040ce6       ?state_transition_table@?$format_validation_base@DV?$stream_output_adapter@D@__crt_stdio_output@@@__crt_stdio_output@@KAPBEXZ 10041ce6 f i libucrt:output.obj
 0001:00040cec       ?state_transition_table@?$format_validation_base@DV?$string_output_adapter@D@__crt_stdio_output@@@__crt_stdio_output@@KAPBEXZ 10041cec f i libucrt:output.obj
 0001:00040cf2       ?state_transition_table@?$format_validation_base@_WV?$stream_output_adapter@_W@__crt_stdio_output@@@__crt_stdio_output@@KAPBEXZ 10041cf2 f i libucrt:output.obj
 0001:00040cf8       ?state_transition_table@?$format_validation_base@_WV?$string_output_adapter@_W@__crt_stdio_output@@@__crt_stdio_output@@KAPBEXZ 10041cf8 f i libucrt:output.obj
 0001:00040cfe       ?state_transition_table@?$standard_base@DV?$stream_output_adapter@D@__crt_stdio_output@@@__crt_stdio_output@@KAPBEXZ 10041cfe f i libucrt:output.obj
 0001:00040d04       ?state_transition_table@?$standard_base@DV?$string_output_adapter@D@__crt_stdio_output@@@__crt_stdio_output@@KAPBEXZ 10041d04 f i libucrt:output.obj
 0001:00040d0a       ?state_transition_table@?$standard_base@_WV?$stream_output_adapter@_W@__crt_stdio_output@@@__crt_stdio_output@@KAPBEXZ 10041d0a f i libucrt:output.obj
 0001:00040d10       ?state_transition_table@?$standard_base@_WV?$string_output_adapter@_W@__crt_stdio_output@@@__crt_stdio_output@@KAPBEXZ 10041d10 f i libucrt:output.obj
 0001:00040d16       ?tchar_string@?$common_data@D@__crt_stdio_output@@IAEAAPADD@Z 10041d16 f i libucrt:output.obj
 0001:00040d1c       ?tchar_string@?$common_data@D@__crt_stdio_output@@IAEAAPADXZ 10041d1c f i libucrt:output.obj
 0001:00040d20       ?tchar_string@?$common_data@_W@__crt_stdio_output@@IAEAAPA_WXZ 10041d20 f i libucrt:output.obj
 0001:00040d24       ?tchar_string@?$common_data@_W@__crt_stdio_output@@IAEAAPA_W_W@Z 10041d24 f i libucrt:output.obj
 0001:00040d2a       ?to_integer_size@__crt_stdio_output@@YAIW4length_modifier@1@@Z 10041d2a f i libucrt:output.obj
 0001:00040d7e       ?type_case_X@?$output_processor@DV?$stream_output_adapter@D@__crt_stdio_output@@V?$format_validation_base@DV?$stream_output_adapter@D@__crt_stdio_output@@@2@@__crt_stdio_output@@AAE_NXZ 10041d7e f i libucrt:output.obj
 0001:00040d88       ?type_case_X@?$output_processor@DV?$stream_output_adapter@D@__crt_stdio_output@@V?$positional_parameter_base@DV?$stream_output_adapter@D@__crt_stdio_output@@@2@@__crt_stdio_output@@AAE_NXZ 10041d88 f i libucrt:output.obj
 0001:00040d92       ?type_case_X@?$output_processor@DV?$stream_output_adapter@D@__crt_stdio_output@@V?$standard_base@DV?$stream_output_adapter@D@__crt_stdio_output@@@2@@__crt_stdio_output@@AAE_NXZ 10041d92 f i libucrt:output.obj
 0001:00040d9c       ?type_case_X@?$output_processor@DV?$string_output_adapter@D@__crt_stdio_output@@V?$format_validation_base@DV?$string_output_adapter@D@__crt_stdio_output@@@2@@__crt_stdio_output@@AAE_NXZ 10041d9c f i libucrt:output.obj
 0001:00040da6       ?type_case_X@?$output_processor@DV?$string_output_adapter@D@__crt_stdio_output@@V?$positional_parameter_base@DV?$string_output_adapter@D@__crt_stdio_output@@@2@@__crt_stdio_output@@AAE_NXZ 10041da6 f i libucrt:output.obj
 0001:00040db0       ?type_case_X@?$output_processor@DV?$string_output_adapter@D@__crt_stdio_output@@V?$standard_base@DV?$string_output_adapter@D@__crt_stdio_output@@@2@@__crt_stdio_output@@AAE_NXZ 10041db0 f i libucrt:output.obj
 0001:00040dba       ?type_case_X@?$output_processor@_WV?$stream_output_adapter@_W@__crt_stdio_output@@V?$format_validation_base@_WV?$stream_output_adapter@_W@__crt_stdio_output@@@2@@__crt_stdio_output@@AAE_NXZ 10041dba f i libucrt:output.obj
 0001:00040dc4       ?type_case_X@?$output_processor@_WV?$stream_output_adapter@_W@__crt_stdio_output@@V?$positional_parameter_base@_WV?$stream_output_adapter@_W@__crt_stdio_output@@@2@@__crt_stdio_output@@AAE_NXZ 10041dc4 f i libucrt:output.obj
 0001:00040dce       ?type_case_X@?$output_processor@_WV?$stream_output_adapter@_W@__crt_stdio_output@@V?$standard_base@_WV?$stream_output_adapter@_W@__crt_stdio_output@@@2@@__crt_stdio_output@@AAE_NXZ 10041dce f i libucrt:output.obj
 0001:00040dd8       ?type_case_X@?$output_processor@_WV?$string_output_adapter@_W@__crt_stdio_output@@V?$format_validation_base@_WV?$string_output_adapter@_W@__crt_stdio_output@@@2@@__crt_stdio_output@@AAE_NXZ 10041dd8 f i libucrt:output.obj
 0001:00040de2       ?type_case_X@?$output_processor@_WV?$string_output_adapter@_W@__crt_stdio_output@@V?$positional_parameter_base@_WV?$string_output_adapter@_W@__crt_stdio_output@@@2@@__crt_stdio_output@@AAE_NXZ 10041de2 f i libucrt:output.obj
 0001:00040dec       ?type_case_X@?$output_processor@_WV?$string_output_adapter@_W@__crt_stdio_output@@V?$standard_base@_WV?$string_output_adapter@_W@__crt_stdio_output@@@2@@__crt_stdio_output@@AAE_NXZ 10041dec f i libucrt:output.obj
 0001:00040df6       ?type_case_Z@?$output_processor@DV?$stream_output_adapter@D@__crt_stdio_output@@V?$format_validation_base@DV?$stream_output_adapter@D@__crt_stdio_output@@@2@@__crt_stdio_output@@AAE_NXZ 10041df6 f i libucrt:output.obj
 0001:00040e50       ?type_case_Z@?$output_processor@DV?$stream_output_adapter@D@__crt_stdio_output@@V?$positional_parameter_base@DV?$stream_output_adapter@D@__crt_stdio_output@@@2@@__crt_stdio_output@@AAE_NXZ 10041e50 f i libucrt:output.obj
 0001:00040f28       ?type_case_Z@?$output_processor@DV?$stream_output_adapter@D@__crt_stdio_output@@V?$standard_base@DV?$stream_output_adapter@D@__crt_stdio_output@@@2@@__crt_stdio_output@@AAE_NXZ 10041f28 f i libucrt:output.obj
 0001:00040f82       ?type_case_Z@?$output_processor@DV?$string_output_adapter@D@__crt_stdio_output@@V?$format_validation_base@DV?$string_output_adapter@D@__crt_stdio_output@@@2@@__crt_stdio_output@@AAE_NXZ 10041f82 f i libucrt:output.obj
 0001:00040fdc       ?type_case_Z@?$output_processor@DV?$string_output_adapter@D@__crt_stdio_output@@V?$positional_parameter_base@DV?$string_output_adapter@D@__crt_stdio_output@@@2@@__crt_stdio_output@@AAE_NXZ 10041fdc f i libucrt:output.obj
 0001:000410b4       ?type_case_Z@?$output_processor@DV?$string_output_adapter@D@__crt_stdio_output@@V?$standard_base@DV?$string_output_adapter@D@__crt_stdio_output@@@2@@__crt_stdio_output@@AAE_NXZ 100420b4 f i libucrt:output.obj
 0001:0004110e       ?type_case_Z@?$output_processor@_WV?$stream_output_adapter@_W@__crt_stdio_output@@V?$format_validation_base@_WV?$stream_output_adapter@_W@__crt_stdio_output@@@2@@__crt_stdio_output@@AAE_NXZ 1004210e f i libucrt:output.obj
 0001:00041168       ?type_case_Z@?$output_processor@_WV?$stream_output_adapter@_W@__crt_stdio_output@@V?$positional_parameter_base@_WV?$stream_output_adapter@_W@__crt_stdio_output@@@2@@__crt_stdio_output@@AAE_NXZ 10042168 f i libucrt:output.obj
 0001:00041240       ?type_case_Z@?$output_processor@_WV?$stream_output_adapter@_W@__crt_stdio_output@@V?$standard_base@_WV?$stream_output_adapter@_W@__crt_stdio_output@@@2@@__crt_stdio_output@@AAE_NXZ 10042240 f i libucrt:output.obj
 0001:0004129a       ?type_case_Z@?$output_processor@_WV?$string_output_adapter@_W@__crt_stdio_output@@V?$format_validation_base@_WV?$string_output_adapter@_W@__crt_stdio_output@@@2@@__crt_stdio_output@@AAE_NXZ 1004229a f i libucrt:output.obj
 0001:000412f4       ?type_case_Z@?$output_processor@_WV?$string_output_adapter@_W@__crt_stdio_output@@V?$positional_parameter_base@_WV?$string_output_adapter@_W@__crt_stdio_output@@@2@@__crt_stdio_output@@AAE_NXZ 100422f4 f i libucrt:output.obj
 0001:000413cc       ?type_case_Z@?$output_processor@_WV?$string_output_adapter@_W@__crt_stdio_output@@V?$standard_base@_WV?$string_output_adapter@_W@__crt_stdio_output@@@2@@__crt_stdio_output@@AAE_NXZ 100423cc f i libucrt:output.obj
 0001:00041426       ?type_case_a@?$output_processor@DV?$stream_output_adapter@D@__crt_stdio_output@@V?$format_validation_base@DV?$stream_output_adapter@D@__crt_stdio_output@@@2@@__crt_stdio_output@@AAE_NXZ 10042426 f i libucrt:output.obj
 0001:00041575       ?type_case_a@?$output_processor@DV?$stream_output_adapter@D@__crt_stdio_output@@V?$positional_parameter_base@DV?$stream_output_adapter@D@__crt_stdio_output@@@2@@__crt_stdio_output@@AAE_NXZ 10042575 f i libucrt:output.obj
 0001:000416f0       ?type_case_a@?$output_processor@DV?$stream_output_adapter@D@__crt_stdio_output@@V?$standard_base@DV?$stream_output_adapter@D@__crt_stdio_output@@@2@@__crt_stdio_output@@AAE_NXZ 100426f0 f i libucrt:output.obj
 0001:0004183f       ?type_case_a@?$output_processor@DV?$string_output_adapter@D@__crt_stdio_output@@V?$format_validation_base@DV?$string_output_adapter@D@__crt_stdio_output@@@2@@__crt_stdio_output@@AAE_NXZ 1004283f f i libucrt:output.obj
 0001:0004198e       ?type_case_a@?$output_processor@DV?$string_output_adapter@D@__crt_stdio_output@@V?$positional_parameter_base@DV?$string_output_adapter@D@__crt_stdio_output@@@2@@__crt_stdio_output@@AAE_NXZ 1004298e f i libucrt:output.obj
 0001:00041b09       ?type_case_a@?$output_processor@DV?$string_output_adapter@D@__crt_stdio_output@@V?$standard_base@DV?$string_output_adapter@D@__crt_stdio_output@@@2@@__crt_stdio_output@@AAE_NXZ 10042b09 f i libucrt:output.obj
 0001:00041c58       ?type_case_a@?$output_processor@_WV?$stream_output_adapter@_W@__crt_stdio_output@@V?$format_validation_base@_WV?$stream_output_adapter@_W@__crt_stdio_output@@@2@@__crt_stdio_output@@AAE_NXZ 10042c58 f i libucrt:output.obj
 0001:00041dbd       ?type_case_a@?$output_processor@_WV?$stream_output_adapter@_W@__crt_stdio_output@@V?$positional_parameter_base@_WV?$stream_output_adapter@_W@__crt_stdio_output@@@2@@__crt_stdio_output@@AAE_NXZ 10042dbd f i libucrt:output.obj
 0001:00041f4e       ?type_case_a@?$output_processor@_WV?$stream_output_adapter@_W@__crt_stdio_output@@V?$standard_base@_WV?$stream_output_adapter@_W@__crt_stdio_output@@@2@@__crt_stdio_output@@AAE_NXZ 10042f4e f i libucrt:output.obj
 0001:000420b3       ?type_case_a@?$output_processor@_WV?$string_output_adapter@_W@__crt_stdio_output@@V?$format_validation_base@_WV?$string_output_adapter@_W@__crt_stdio_output@@@2@@__crt_stdio_output@@AAE_NXZ 100430b3 f i libucrt:output.obj
 0001:00042218       ?type_case_a@?$output_processor@_WV?$string_output_adapter@_W@__crt_stdio_output@@V?$positional_parameter_base@_WV?$string_output_adapter@_W@__crt_stdio_output@@@2@@__crt_stdio_output@@AAE_NXZ 10043218 f i libucrt:output.obj
 0001:000423a9       ?type_case_a@?$output_processor@_WV?$string_output_adapter@_W@__crt_stdio_output@@V?$standard_base@_WV?$string_output_adapter@_W@__crt_stdio_output@@@2@@__crt_stdio_output@@AAE_NXZ 100433a9 f i libucrt:output.obj
 0001:0004250e       ?type_case_c@?$output_processor@DV?$stream_output_adapter@D@__crt_stdio_output@@V?$format_validation_base@DV?$stream_output_adapter@D@__crt_stdio_output@@@2@@__crt_stdio_output@@AAE_NXZ 1004350e f i libucrt:output.obj
 0001:00042516       ?type_case_c@?$output_processor@DV?$stream_output_adapter@D@__crt_stdio_output@@V?$positional_parameter_base@DV?$stream_output_adapter@D@__crt_stdio_output@@@2@@__crt_stdio_output@@AAE_NXZ 10043516 f i libucrt:output.obj
 0001:0004251e       ?type_case_c@?$output_processor@DV?$stream_output_adapter@D@__crt_stdio_output@@V?$standard_base@DV?$stream_output_adapter@D@__crt_stdio_output@@@2@@__crt_stdio_output@@AAE_NXZ 1004351e f i libucrt:output.obj
 0001:00042526       ?type_case_c@?$output_processor@DV?$string_output_adapter@D@__crt_stdio_output@@V?$format_validation_base@DV?$string_output_adapter@D@__crt_stdio_output@@@2@@__crt_stdio_output@@AAE_NXZ 10043526 f i libucrt:output.obj
 0001:0004252e       ?type_case_c@?$output_processor@DV?$string_output_adapter@D@__crt_stdio_output@@V?$positional_parameter_base@DV?$string_output_adapter@D@__crt_stdio_output@@@2@@__crt_stdio_output@@AAE_NXZ 1004352e f i libucrt:output.obj
 0001:00042536       ?type_case_c@?$output_processor@DV?$string_output_adapter@D@__crt_stdio_output@@V?$standard_base@DV?$string_output_adapter@D@__crt_stdio_output@@@2@@__crt_stdio_output@@AAE_NXZ 10043536 f i libucrt:output.obj
 0001:0004253e       ?type_case_c@?$output_processor@_WV?$stream_output_adapter@_W@__crt_stdio_output@@V?$format_validation_base@_WV?$stream_output_adapter@_W@__crt_stdio_output@@@2@@__crt_stdio_output@@AAE_NXZ 1004353e f i libucrt:output.obj
 0001:00042546       ?type_case_c@?$output_processor@_WV?$stream_output_adapter@_W@__crt_stdio_output@@V?$positional_parameter_base@_WV?$stream_output_adapter@_W@__crt_stdio_output@@@2@@__crt_stdio_output@@AAE_NXZ 10043546 f i libucrt:output.obj
 0001:0004254e       ?type_case_c@?$output_processor@_WV?$stream_output_adapter@_W@__crt_stdio_output@@V?$standard_base@_WV?$stream_output_adapter@_W@__crt_stdio_output@@@2@@__crt_stdio_output@@AAE_NXZ 1004354e f i libucrt:output.obj
 0001:00042556       ?type_case_c@?$output_processor@_WV?$string_output_adapter@_W@__crt_stdio_output@@V?$format_validation_base@_WV?$string_output_adapter@_W@__crt_stdio_output@@@2@@__crt_stdio_output@@AAE_NXZ 10043556 f i libucrt:output.obj
 0001:0004255e       ?type_case_c@?$output_processor@_WV?$string_output_adapter@_W@__crt_stdio_output@@V?$positional_parameter_base@_WV?$string_output_adapter@_W@__crt_stdio_output@@@2@@__crt_stdio_output@@AAE_NXZ 1004355e f i libucrt:output.obj
 0001:00042566       ?type_case_c@?$output_processor@_WV?$string_output_adapter@_W@__crt_stdio_output@@V?$standard_base@_WV?$string_output_adapter@_W@__crt_stdio_output@@@2@@__crt_stdio_output@@AAE_NXZ 10043566 f i libucrt:output.obj
 0001:0004256e       ?type_case_c_tchar@?$output_processor@DV?$stream_output_adapter@D@__crt_stdio_output@@V?$format_validation_base@DV?$stream_output_adapter@D@__crt_stdio_output@@@2@@__crt_stdio_output@@AAE_ND@Z 1004356e f i libucrt:output.obj
 0001:000425fe       ?type_case_c_tchar@?$output_processor@DV?$stream_output_adapter@D@__crt_stdio_output@@V?$positional_parameter_base@DV?$stream_output_adapter@D@__crt_stdio_output@@@2@@__crt_stdio_output@@AAE_ND@Z 100435fe f i libucrt:output.obj
 0001:000426bc       ?type_case_c_tchar@?$output_processor@DV?$stream_output_adapter@D@__crt_stdio_output@@V?$standard_base@DV?$stream_output_adapter@D@__crt_stdio_output@@@2@@__crt_stdio_output@@AAE_ND@Z 100436bc f i libucrt:output.obj
 0001:0004274c       ?type_case_c_tchar@?$output_processor@DV?$string_output_adapter@D@__crt_stdio_output@@V?$format_validation_base@DV?$string_output_adapter@D@__crt_stdio_output@@@2@@__crt_stdio_output@@AAE_ND@Z 1004374c f i libucrt:output.obj
 0001:000427dc       ?type_case_c_tchar@?$output_processor@DV?$string_output_adapter@D@__crt_stdio_output@@V?$positional_parameter_base@DV?$string_output_adapter@D@__crt_stdio_output@@@2@@__crt_stdio_output@@AAE_ND@Z 100437dc f i libucrt:output.obj
 0001:0004289a       ?type_case_c_tchar@?$output_processor@DV?$string_output_adapter@D@__crt_stdio_output@@V?$standard_base@DV?$string_output_adapter@D@__crt_stdio_output@@@2@@__crt_stdio_output@@AAE_ND@Z 1004389a f i libucrt:output.obj
 0001:0004292a       ?type_case_c_tchar@?$output_processor@_WV?$stream_output_adapter@_W@__crt_stdio_output@@V?$format_validation_base@_WV?$stream_output_adapter@_W@__crt_stdio_output@@@2@@__crt_stdio_output@@AAE_N_W@Z 1004392a f i libucrt:output.obj
 0001:000429c0       ?type_case_c_tchar@?$output_processor@_WV?$stream_output_adapter@_W@__crt_stdio_output@@V?$positional_parameter_base@_WV?$stream_output_adapter@_W@__crt_stdio_output@@@2@@__crt_stdio_output@@AAE_N_W@Z 100439c0 f i libucrt:output.obj
 0001:00042a6d       ?type_case_c_tchar@?$output_processor@_WV?$stream_output_adapter@_W@__crt_stdio_output@@V?$standard_base@_WV?$stream_output_adapter@_W@__crt_stdio_output@@@2@@__crt_stdio_output@@AAE_N_W@Z 10043a6d f i libucrt:output.obj
 0001:00042b03       ?type_case_c_tchar@?$output_processor@_WV?$string_output_adapter@_W@__crt_stdio_output@@V?$format_validation_base@_WV?$string_output_adapter@_W@__crt_stdio_output@@@2@@__crt_stdio_output@@AAE_N_W@Z 10043b03 f i libucrt:output.obj
 0001:00042b99       ?type_case_c_tchar@?$output_processor@_WV?$string_output_adapter@_W@__crt_stdio_output@@V?$positional_parameter_base@_WV?$string_output_adapter@_W@__crt_stdio_output@@@2@@__crt_stdio_output@@AAE_N_W@Z 10043b99 f i libucrt:output.obj
 0001:00042c46       ?type_case_c_tchar@?$output_processor@_WV?$string_output_adapter@_W@__crt_stdio_output@@V?$standard_base@_WV?$string_output_adapter@_W@__crt_stdio_output@@@2@@__crt_stdio_output@@AAE_N_W@Z 10043c46 f i libucrt:output.obj
 0001:00042cdc       ?type_case_d@?$output_processor@DV?$stream_output_adapter@D@__crt_stdio_output@@V?$format_validation_base@DV?$stream_output_adapter@D@__crt_stdio_output@@@2@@__crt_stdio_output@@AAE_NXZ 10043cdc f i libucrt:output.obj
 0001:00042cea       ?type_case_d@?$output_processor@DV?$stream_output_adapter@D@__crt_stdio_output@@V?$positional_parameter_base@DV?$stream_output_adapter@D@__crt_stdio_output@@@2@@__crt_stdio_output@@AAE_NXZ 10043cea f i libucrt:output.obj
 0001:00042cf8       ?type_case_d@?$output_processor@DV?$stream_output_adapter@D@__crt_stdio_output@@V?$standard_base@DV?$stream_output_adapter@D@__crt_stdio_output@@@2@@__crt_stdio_output@@AAE_NXZ 10043cf8 f i libucrt:output.obj
 0001:00042d06       ?type_case_d@?$output_processor@DV?$string_output_adapter@D@__crt_stdio_output@@V?$format_validation_base@DV?$string_output_adapter@D@__crt_stdio_output@@@2@@__crt_stdio_output@@AAE_NXZ 10043d06 f i libucrt:output.obj
 0001:00042d14       ?type_case_d@?$output_processor@DV?$string_output_adapter@D@__crt_stdio_output@@V?$positional_parameter_base@DV?$string_output_adapter@D@__crt_stdio_output@@@2@@__crt_stdio_output@@AAE_NXZ 10043d14 f i libucrt:output.obj
 0001:00042d22       ?type_case_d@?$output_processor@DV?$string_output_adapter@D@__crt_stdio_output@@V?$standard_base@DV?$string_output_adapter@D@__crt_stdio_output@@@2@@__crt_stdio_output@@AAE_NXZ 10043d22 f i libucrt:output.obj
 0001:00042d30       ?type_case_d@?$output_processor@_WV?$stream_output_adapter@_W@__crt_stdio_output@@V?$format_validation_base@_WV?$stream_output_adapter@_W@__crt_stdio_output@@@2@@__crt_stdio_output@@AAE_NXZ 10043d30 f i libucrt:output.obj
 0001:00042d3e       ?type_case_d@?$output_processor@_WV?$stream_output_adapter@_W@__crt_stdio_output@@V?$positional_parameter_base@_WV?$stream_output_adapter@_W@__crt_stdio_output@@@2@@__crt_stdio_output@@AAE_NXZ 10043d3e f i libucrt:output.obj
 0001:00042d4c       ?type_case_d@?$output_processor@_WV?$stream_output_adapter@_W@__crt_stdio_output@@V?$standard_base@_WV?$stream_output_adapter@_W@__crt_stdio_output@@@2@@__crt_stdio_output@@AAE_NXZ 10043d4c f i libucrt:output.obj
 0001:00042d5a       ?type_case_d@?$output_processor@_WV?$string_output_adapter@_W@__crt_stdio_output@@V?$format_validation_base@_WV?$string_output_adapter@_W@__crt_stdio_output@@@2@@__crt_stdio_output@@AAE_NXZ 10043d5a f i libucrt:output.obj
 0001:00042d68       ?type_case_d@?$output_processor@_WV?$string_output_adapter@_W@__crt_stdio_output@@V?$positional_parameter_base@_WV?$string_output_adapter@_W@__crt_stdio_output@@@2@@__crt_stdio_output@@AAE_NXZ 10043d68 f i libucrt:output.obj
 0001:00042d76       ?type_case_d@?$output_processor@_WV?$string_output_adapter@_W@__crt_stdio_output@@V?$standard_base@_WV?$string_output_adapter@_W@__crt_stdio_output@@@2@@__crt_stdio_output@@AAE_NXZ 10043d76 f i libucrt:output.obj
 0001:00042d84       ?type_case_integer@?$output_processor@DV?$stream_output_adapter@D@__crt_stdio_output@@V?$format_validation_base@DV?$stream_output_adapter@D@__crt_stdio_output@@@2@@__crt_stdio_output@@AAE_NI_N@Z 10043d84 f i libucrt:output.obj
 0001:00042ed5       ?type_case_integer@?$output_processor@DV?$stream_output_adapter@D@__crt_stdio_output@@V?$positional_parameter_base@DV?$stream_output_adapter@D@__crt_stdio_output@@@2@@__crt_stdio_output@@AAE_NI_N@Z 10043ed5 f i libucrt:output.obj
 0001:00043056       ?type_case_integer@?$output_processor@DV?$stream_output_adapter@D@__crt_stdio_output@@V?$standard_base@DV?$stream_output_adapter@D@__crt_stdio_output@@@2@@__crt_stdio_output@@AAE_NI_N@Z 10044056 f i libucrt:output.obj
 0001:000431a7       ?type_case_integer@?$output_processor@DV?$string_output_adapter@D@__crt_stdio_output@@V?$format_validation_base@DV?$string_output_adapter@D@__crt_stdio_output@@@2@@__crt_stdio_output@@AAE_NI_N@Z 100441a7 f i libucrt:output.obj
 0001:000432f8       ?type_case_integer@?$output_processor@DV?$string_output_adapter@D@__crt_stdio_output@@V?$positional_parameter_base@DV?$string_output_adapter@D@__crt_stdio_output@@@2@@__crt_stdio_output@@AAE_NI_N@Z 100442f8 f i libucrt:output.obj
 0001:00043479       ?type_case_integer@?$output_processor@DV?$string_output_adapter@D@__crt_stdio_output@@V?$standard_base@DV?$string_output_adapter@D@__crt_stdio_output@@@2@@__crt_stdio_output@@AAE_NI_N@Z 10044479 f i libucrt:output.obj
 0001:000435ca       ?type_case_integer@?$output_processor@_WV?$stream_output_adapter@_W@__crt_stdio_output@@V?$format_validation_base@_WV?$stream_output_adapter@_W@__crt_stdio_output@@@2@@__crt_stdio_output@@AAE_NI_N@Z 100445ca f i libucrt:output.obj
 0001:0004371f       ?type_case_integer@?$output_processor@_WV?$stream_output_adapter@_W@__crt_stdio_output@@V?$positional_parameter_base@_WV?$stream_output_adapter@_W@__crt_stdio_output@@@2@@__crt_stdio_output@@AAE_NI_N@Z 1004471f f i libucrt:output.obj
 0001:000438a4       ?type_case_integer@?$output_processor@_WV?$stream_output_adapter@_W@__crt_stdio_output@@V?$standard_base@_WV?$stream_output_adapter@_W@__crt_stdio_output@@@2@@__crt_stdio_output@@AAE_NI_N@Z 100448a4 f i libucrt:output.obj
 0001:000439f9       ?type_case_integer@?$output_processor@_WV?$string_output_adapter@_W@__crt_stdio_output@@V?$format_validation_base@_WV?$string_output_adapter@_W@__crt_stdio_output@@@2@@__crt_stdio_output@@AAE_NI_N@Z 100449f9 f i libucrt:output.obj
 0001:00043b4e       ?type_case_integer@?$output_processor@_WV?$string_output_adapter@_W@__crt_stdio_output@@V?$positional_parameter_base@_WV?$string_output_adapter@_W@__crt_stdio_output@@@2@@__crt_stdio_output@@AAE_NI_N@Z 10044b4e f i libucrt:output.obj
 0001:00043cd3       ?type_case_integer@?$output_processor@_WV?$string_output_adapter@_W@__crt_stdio_output@@V?$standard_base@_WV?$string_output_adapter@_W@__crt_stdio_output@@@2@@__crt_stdio_output@@AAE_NI_N@Z 10044cd3 f i libucrt:output.obj
 0001:00043e28       ?type_case_n@?$output_processor@DV?$stream_output_adapter@D@__crt_stdio_output@@V?$format_validation_base@DV?$stream_output_adapter@D@__crt_stdio_output@@@2@@__crt_stdio_output@@AAE_NXZ 10044e28 f i libucrt:output.obj
 0001:00043e9c       ?type_case_n@?$output_processor@DV?$stream_output_adapter@D@__crt_stdio_output@@V?$positional_parameter_base@DV?$stream_output_adapter@D@__crt_stdio_output@@@2@@__crt_stdio_output@@AAE_NXZ 10044e9c f i libucrt:output.obj
 0001:00043f33       ?type_case_n@?$output_processor@DV?$stream_output_adapter@D@__crt_stdio_output@@V?$standard_base@DV?$stream_output_adapter@D@__crt_stdio_output@@@2@@__crt_stdio_output@@AAE_NXZ 10044f33 f i libucrt:output.obj
 0001:00043fa7       ?type_case_n@?$output_processor@DV?$string_output_adapter@D@__crt_stdio_output@@V?$format_validation_base@DV?$string_output_adapter@D@__crt_stdio_output@@@2@@__crt_stdio_output@@AAE_NXZ 10044fa7 f i libucrt:output.obj
 0001:0004401b       ?type_case_n@?$output_processor@DV?$string_output_adapter@D@__crt_stdio_output@@V?$positional_parameter_base@DV?$string_output_adapter@D@__crt_stdio_output@@@2@@__crt_stdio_output@@AAE_NXZ 1004501b f i libucrt:output.obj
 0001:000440b2       ?type_case_n@?$output_processor@DV?$string_output_adapter@D@__crt_stdio_output@@V?$standard_base@DV?$string_output_adapter@D@__crt_stdio_output@@@2@@__crt_stdio_output@@AAE_NXZ 100450b2 f i libucrt:output.obj
 0001:00044126       ?type_case_n@?$output_processor@_WV?$stream_output_adapter@_W@__crt_stdio_output@@V?$format_validation_base@_WV?$stream_output_adapter@_W@__crt_stdio_output@@@2@@__crt_stdio_output@@AAE_NXZ 10045126 f i libucrt:output.obj
 0001:0004419a       ?type_case_n@?$output_processor@_WV?$stream_output_adapter@_W@__crt_stdio_output@@V?$positional_parameter_base@_WV?$stream_output_adapter@_W@__crt_stdio_output@@@2@@__crt_stdio_output@@AAE_NXZ 1004519a f i libucrt:output.obj
 0001:00044231       ?type_case_n@?$output_processor@_WV?$stream_output_adapter@_W@__crt_stdio_output@@V?$standard_base@_WV?$stream_output_adapter@_W@__crt_stdio_output@@@2@@__crt_stdio_output@@AAE_NXZ 10045231 f i libucrt:output.obj
 0001:000442a5       ?type_case_n@?$output_processor@_WV?$string_output_adapter@_W@__crt_stdio_output@@V?$format_validation_base@_WV?$string_output_adapter@_W@__crt_stdio_output@@@2@@__crt_stdio_output@@AAE_NXZ 100452a5 f i libucrt:output.obj
 0001:00044319       ?type_case_n@?$output_processor@_WV?$string_output_adapter@_W@__crt_stdio_output@@V?$positional_parameter_base@_WV?$string_output_adapter@_W@__crt_stdio_output@@@2@@__crt_stdio_output@@AAE_NXZ 10045319 f i libucrt:output.obj
 0001:000443b0       ?type_case_n@?$output_processor@_WV?$string_output_adapter@_W@__crt_stdio_output@@V?$standard_base@_WV?$string_output_adapter@_W@__crt_stdio_output@@@2@@__crt_stdio_output@@AAE_NXZ 100453b0 f i libucrt:output.obj
 0001:00044424       ?type_case_o@?$output_processor@DV?$stream_output_adapter@D@__crt_stdio_output@@V?$format_validation_base@DV?$stream_output_adapter@D@__crt_stdio_output@@@2@@__crt_stdio_output@@AAE_NXZ 10045424 f i libucrt:output.obj
 0001:00044443       ?type_case_o@?$output_processor@DV?$stream_output_adapter@D@__crt_stdio_output@@V?$positional_parameter_base@DV?$stream_output_adapter@D@__crt_stdio_output@@@2@@__crt_stdio_output@@AAE_NXZ 10045443 f i libucrt:output.obj
 0001:00044462       ?type_case_o@?$output_processor@DV?$stream_output_adapter@D@__crt_stdio_output@@V?$standard_base@DV?$stream_output_adapter@D@__crt_stdio_output@@@2@@__crt_stdio_output@@AAE_NXZ 10045462 f i libucrt:output.obj
 0001:00044481       ?type_case_o@?$output_processor@DV?$string_output_adapter@D@__crt_stdio_output@@V?$format_validation_base@DV?$string_output_adapter@D@__crt_stdio_output@@@2@@__crt_stdio_output@@AAE_NXZ 10045481 f i libucrt:output.obj
 0001:000444a0       ?type_case_o@?$output_processor@DV?$string_output_adapter@D@__crt_stdio_output@@V?$positional_parameter_base@DV?$string_output_adapter@D@__crt_stdio_output@@@2@@__crt_stdio_output@@AAE_NXZ 100454a0 f i libucrt:output.obj
 0001:000444bf       ?type_case_o@?$output_processor@DV?$string_output_adapter@D@__crt_stdio_output@@V?$standard_base@DV?$string_output_adapter@D@__crt_stdio_output@@@2@@__crt_stdio_output@@AAE_NXZ 100454bf f i libucrt:output.obj
 0001:000444de       ?type_case_o@?$output_processor@_WV?$stream_output_adapter@_W@__crt_stdio_output@@V?$format_validation_base@_WV?$stream_output_adapter@_W@__crt_stdio_output@@@2@@__crt_stdio_output@@AAE_NXZ 100454de f i libucrt:output.obj
 0001:000444fd       ?type_case_o@?$output_processor@_WV?$stream_output_adapter@_W@__crt_stdio_output@@V?$positional_parameter_base@_WV?$stream_output_adapter@_W@__crt_stdio_output@@@2@@__crt_stdio_output@@AAE_NXZ 100454fd f i libucrt:output.obj
 0001:0004451c       ?type_case_o@?$output_processor@_WV?$stream_output_adapter@_W@__crt_stdio_output@@V?$standard_base@_WV?$stream_output_adapter@_W@__crt_stdio_output@@@2@@__crt_stdio_output@@AAE_NXZ 1004551c f i libucrt:output.obj
 0001:0004453b       ?type_case_o@?$output_processor@_WV?$string_output_adapter@_W@__crt_stdio_output@@V?$format_validation_base@_WV?$string_output_adapter@_W@__crt_stdio_output@@@2@@__crt_stdio_output@@AAE_NXZ 1004553b f i libucrt:output.obj
 0001:0004455a       ?type_case_o@?$output_processor@_WV?$string_output_adapter@_W@__crt_stdio_output@@V?$positional_parameter_base@_WV?$string_output_adapter@_W@__crt_stdio_output@@@2@@__crt_stdio_output@@AAE_NXZ 1004555a f i libucrt:output.obj
 0001:00044579       ?type_case_o@?$output_processor@_WV?$string_output_adapter@_W@__crt_stdio_output@@V?$standard_base@_WV?$string_output_adapter@_W@__crt_stdio_output@@@2@@__crt_stdio_output@@AAE_NXZ 10045579 f i libucrt:output.obj
 0001:00044598       ?type_case_p@?$output_processor@DV?$stream_output_adapter@D@__crt_stdio_output@@V?$format_validation_base@DV?$stream_output_adapter@D@__crt_stdio_output@@@2@@__crt_stdio_output@@AAE_NXZ 10045598 f i libucrt:output.obj
 0001:000445b0       ?type_case_p@?$output_processor@DV?$stream_output_adapter@D@__crt_stdio_output@@V?$positional_parameter_base@DV?$stream_output_adapter@D@__crt_stdio_output@@@2@@__crt_stdio_output@@AAE_NXZ 100455b0 f i libucrt:output.obj
 0001:000445c8       ?type_case_p@?$output_processor@DV?$stream_output_adapter@D@__crt_stdio_output@@V?$standard_base@DV?$stream_output_adapter@D@__crt_stdio_output@@@2@@__crt_stdio_output@@AAE_NXZ 100455c8 f i libucrt:output.obj
 0001:000445e0       ?type_case_p@?$output_processor@DV?$string_output_adapter@D@__crt_stdio_output@@V?$format_validation_base@DV?$string_output_adapter@D@__crt_stdio_output@@@2@@__crt_stdio_output@@AAE_NXZ 100455e0 f i libucrt:output.obj
 0001:000445f8       ?type_case_p@?$output_processor@DV?$string_output_adapter@D@__crt_stdio_output@@V?$positional_parameter_base@DV?$string_output_adapter@D@__crt_stdio_output@@@2@@__crt_stdio_output@@AAE_NXZ 100455f8 f i libucrt:output.obj
 0001:00044610       ?type_case_p@?$output_processor@DV?$string_output_adapter@D@__crt_stdio_output@@V?$standard_base@DV?$string_output_adapter@D@__crt_stdio_output@@@2@@__crt_stdio_output@@AAE_NXZ 10045610 f i libucrt:output.obj
 0001:00044628       ?type_case_p@?$output_processor@_WV?$stream_output_adapter@_W@__crt_stdio_output@@V?$format_validation_base@_WV?$stream_output_adapter@_W@__crt_stdio_output@@@2@@__crt_stdio_output@@AAE_NXZ 10045628 f i libucrt:output.obj
 0001:00044640       ?type_case_p@?$output_processor@_WV?$stream_output_adapter@_W@__crt_stdio_output@@V?$positional_parameter_base@_WV?$stream_output_adapter@_W@__crt_stdio_output@@@2@@__crt_stdio_output@@AAE_NXZ 10045640 f i libucrt:output.obj
 0001:00044658       ?type_case_p@?$output_processor@_WV?$stream_output_adapter@_W@__crt_stdio_output@@V?$standard_base@_WV?$stream_output_adapter@_W@__crt_stdio_output@@@2@@__crt_stdio_output@@AAE_NXZ 10045658 f i libucrt:output.obj
 0001:00044670       ?type_case_p@?$output_processor@_WV?$string_output_adapter@_W@__crt_stdio_output@@V?$format_validation_base@_WV?$string_output_adapter@_W@__crt_stdio_output@@@2@@__crt_stdio_output@@AAE_NXZ 10045670 f i libucrt:output.obj
 0001:00044688       ?type_case_p@?$output_processor@_WV?$string_output_adapter@_W@__crt_stdio_output@@V?$positional_parameter_base@_WV?$string_output_adapter@_W@__crt_stdio_output@@@2@@__crt_stdio_output@@AAE_NXZ 10045688 f i libucrt:output.obj
 0001:000446a0       ?type_case_p@?$output_processor@_WV?$string_output_adapter@_W@__crt_stdio_output@@V?$standard_base@_WV?$string_output_adapter@_W@__crt_stdio_output@@@2@@__crt_stdio_output@@AAE_NXZ 100456a0 f i libucrt:output.obj
 0001:000446b8       ?type_case_s@?$output_processor@DV?$stream_output_adapter@D@__crt_stdio_output@@V?$format_validation_base@DV?$stream_output_adapter@D@__crt_stdio_output@@@2@@__crt_stdio_output@@AAE_NXZ 100456b8 f i libucrt:output.obj
 0001:00044729       ?type_case_s@?$output_processor@DV?$stream_output_adapter@D@__crt_stdio_output@@V?$positional_parameter_base@DV?$stream_output_adapter@D@__crt_stdio_output@@@2@@__crt_stdio_output@@AAE_NXZ 10045729 f i libucrt:output.obj
 0001:000447a7       ?type_case_s@?$output_processor@DV?$stream_output_adapter@D@__crt_stdio_output@@V?$standard_base@DV?$stream_output_adapter@D@__crt_stdio_output@@@2@@__crt_stdio_output@@AAE_NXZ 100457a7 f i libucrt:output.obj
 0001:00044818       ?type_case_s@?$output_processor@DV?$string_output_adapter@D@__crt_stdio_output@@V?$format_validation_base@DV?$string_output_adapter@D@__crt_stdio_output@@@2@@__crt_stdio_output@@AAE_NXZ 10045818 f i libucrt:output.obj
 0001:00044889       ?type_case_s@?$output_processor@DV?$string_output_adapter@D@__crt_stdio_output@@V?$positional_parameter_base@DV?$string_output_adapter@D@__crt_stdio_output@@@2@@__crt_stdio_output@@AAE_NXZ 10045889 f i libucrt:output.obj
 0001:00044907       ?type_case_s@?$output_processor@DV?$string_output_adapter@D@__crt_stdio_output@@V?$standard_base@DV?$string_output_adapter@D@__crt_stdio_output@@@2@@__crt_stdio_output@@AAE_NXZ 10045907 f i libucrt:output.obj
 0001:00044978       ?type_case_s@?$output_processor@_WV?$stream_output_adapter@_W@__crt_stdio_output@@V?$format_validation_base@_WV?$stream_output_adapter@_W@__crt_stdio_output@@@2@@__crt_stdio_output@@AAE_NXZ 10045978 f i libucrt:output.obj
 0001:000449eb       ?type_case_s@?$output_processor@_WV?$stream_output_adapter@_W@__crt_stdio_output@@V?$positional_parameter_base@_WV?$stream_output_adapter@_W@__crt_stdio_output@@@2@@__crt_stdio_output@@AAE_NXZ 100459eb f i libucrt:output.obj
 0001:00044a6b       ?type_case_s@?$output_processor@_WV?$stream_output_adapter@_W@__crt_stdio_output@@V?$standard_base@_WV?$stream_output_adapter@_W@__crt_stdio_output@@@2@@__crt_stdio_output@@AAE_NXZ 10045a6b f i libucrt:output.obj
 0001:00044ade       ?type_case_s@?$output_processor@_WV?$string_output_adapter@_W@__crt_stdio_output@@V?$format_validation_base@_WV?$string_output_adapter@_W@__crt_stdio_output@@@2@@__crt_stdio_output@@AAE_NXZ 10045ade f i libucrt:output.obj
 0001:00044b51       ?type_case_s@?$output_processor@_WV?$string_output_adapter@_W@__crt_stdio_output@@V?$positional_parameter_base@_WV?$string_output_adapter@_W@__crt_stdio_output@@@2@@__crt_stdio_output@@AAE_NXZ 10045b51 f i libucrt:output.obj
 0001:00044bd1       ?type_case_s@?$output_processor@_WV?$string_output_adapter@_W@__crt_stdio_output@@V?$standard_base@_WV?$string_output_adapter@_W@__crt_stdio_output@@@2@@__crt_stdio_output@@AAE_NXZ 10045bd1 f i libucrt:output.obj
 0001:00044c44       ?type_case_s_compute_narrow_string_length@?$output_processor@DV?$stream_output_adapter@D@__crt_stdio_output@@V?$format_validation_base@DV?$stream_output_adapter@D@__crt_stdio_output@@@2@@__crt_stdio_output@@ABEHHD@Z 10045c44 f i libucrt:output.obj
 0001:00044c5a       ?type_case_s_compute_narrow_string_length@?$output_processor@DV?$stream_output_adapter@D@__crt_stdio_output@@V?$positional_parameter_base@DV?$stream_output_adapter@D@__crt_stdio_output@@@2@@__crt_stdio_output@@ABEHHD@Z 10045c5a f i libucrt:output.obj
 0001:00044c70       ?type_case_s_compute_narrow_string_length@?$output_processor@DV?$stream_output_adapter@D@__crt_stdio_output@@V?$standard_base@DV?$stream_output_adapter@D@__crt_stdio_output@@@2@@__crt_stdio_output@@ABEHHD@Z 10045c70 f i libucrt:output.obj
 0001:00044c86       ?type_case_s_compute_narrow_string_length@?$output_processor@DV?$string_output_adapter@D@__crt_stdio_output@@V?$format_validation_base@DV?$string_output_adapter@D@__crt_stdio_output@@@2@@__crt_stdio_output@@ABEHHD@Z 10045c86 f i libucrt:output.obj
 0001:00044c9c       ?type_case_s_compute_narrow_string_length@?$output_processor@DV?$string_output_adapter@D@__crt_stdio_output@@V?$positional_parameter_base@DV?$string_output_adapter@D@__crt_stdio_output@@@2@@__crt_stdio_output@@ABEHHD@Z 10045c9c f i libucrt:output.obj
 0001:00044cb2       ?type_case_s_compute_narrow_string_length@?$output_processor@DV?$string_output_adapter@D@__crt_stdio_output@@V?$standard_base@DV?$string_output_adapter@D@__crt_stdio_output@@@2@@__crt_stdio_output@@ABEHHD@Z 10045cb2 f i libucrt:output.obj
 0001:00044cc8       ?type_case_s_compute_narrow_string_length@?$output_processor@_WV?$stream_output_adapter@_W@__crt_stdio_output@@V?$format_validation_base@_WV?$stream_output_adapter@_W@__crt_stdio_output@@@2@@__crt_stdio_output@@ABEHH_W@Z 10045cc8 f i libucrt:output.obj
 0001:00044d0f       ?type_case_s_compute_narrow_string_length@?$output_processor@_WV?$stream_output_adapter@_W@__crt_stdio_output@@V?$positional_parameter_base@_WV?$stream_output_adapter@_W@__crt_stdio_output@@@2@@__crt_stdio_output@@ABEHH_W@Z 10045d0f f i libucrt:output.obj
 0001:00044d56       ?type_case_s_compute_narrow_string_length@?$output_processor@_WV?$stream_output_adapter@_W@__crt_stdio_output@@V?$standard_base@_WV?$stream_output_adapter@_W@__crt_stdio_output@@@2@@__crt_stdio_output@@ABEHH_W@Z 10045d56 f i libucrt:output.obj
 0001:00044d9d       ?type_case_s_compute_narrow_string_length@?$output_processor@_WV?$string_output_adapter@_W@__crt_stdio_output@@V?$format_validation_base@_WV?$string_output_adapter@_W@__crt_stdio_output@@@2@@__crt_stdio_output@@ABEHH_W@Z 10045d9d f i libucrt:output.obj
 0001:00044de4       ?type_case_s_compute_narrow_string_length@?$output_processor@_WV?$string_output_adapter@_W@__crt_stdio_output@@V?$positional_parameter_base@_WV?$string_output_adapter@_W@__crt_stdio_output@@@2@@__crt_stdio_output@@ABEHH_W@Z 10045de4 f i libucrt:output.obj
 0001:00044e2b       ?type_case_s_compute_narrow_string_length@?$output_processor@_WV?$string_output_adapter@_W@__crt_stdio_output@@V?$standard_base@_WV?$string_output_adapter@_W@__crt_stdio_output@@@2@@__crt_stdio_output@@ABEHH_W@Z 10045e2b f i libucrt:output.obj
 0001:00044e72       ?type_case_u@?$output_processor@DV?$stream_output_adapter@D@__crt_stdio_output@@V?$format_validation_base@DV?$stream_output_adapter@D@__crt_stdio_output@@@2@@__crt_stdio_output@@AAE_NXZ 10045e72 f i libucrt:output.obj
 0001:00044e7c       ?type_case_u@?$output_processor@DV?$stream_output_adapter@D@__crt_stdio_output@@V?$positional_parameter_base@DV?$stream_output_adapter@D@__crt_stdio_output@@@2@@__crt_stdio_output@@AAE_NXZ 10045e7c f i libucrt:output.obj
 0001:00044e86       ?type_case_u@?$output_processor@DV?$stream_output_adapter@D@__crt_stdio_output@@V?$standard_base@DV?$stream_output_adapter@D@__crt_stdio_output@@@2@@__crt_stdio_output@@AAE_NXZ 10045e86 f i libucrt:output.obj
 0001:00044e90       ?type_case_u@?$output_processor@DV?$string_output_adapter@D@__crt_stdio_output@@V?$format_validation_base@DV?$string_output_adapter@D@__crt_stdio_output@@@2@@__crt_stdio_output@@AAE_NXZ 10045e90 f i libucrt:output.obj
 0001:00044e9a       ?type_case_u@?$output_processor@DV?$string_output_adapter@D@__crt_stdio_output@@V?$positional_parameter_base@DV?$string_output_adapter@D@__crt_stdio_output@@@2@@__crt_stdio_output@@AAE_NXZ 10045e9a f i libucrt:output.obj
 0001:00044ea4       ?type_case_u@?$output_processor@DV?$string_output_adapter@D@__crt_stdio_output@@V?$standard_base@DV?$string_output_adapter@D@__crt_stdio_output@@@2@@__crt_stdio_output@@AAE_NXZ 10045ea4 f i libucrt:output.obj
 0001:00044eae       ?type_case_u@?$output_processor@_WV?$stream_output_adapter@_W@__crt_stdio_output@@V?$format_validation_base@_WV?$stream_output_adapter@_W@__crt_stdio_output@@@2@@__crt_stdio_output@@AAE_NXZ 10045eae f i libucrt:output.obj
 0001:00044eb8       ?type_case_u@?$output_processor@_WV?$stream_output_adapter@_W@__crt_stdio_output@@V?$positional_parameter_base@_WV?$stream_output_adapter@_W@__crt_stdio_output@@@2@@__crt_stdio_output@@AAE_NXZ 10045eb8 f i libucrt:output.obj
 0001:00044ec2       ?type_case_u@?$output_processor@_WV?$stream_output_adapter@_W@__crt_stdio_output@@V?$standard_base@_WV?$stream_output_adapter@_W@__crt_stdio_output@@@2@@__crt_stdio_output@@AAE_NXZ 10045ec2 f i libucrt:output.obj
 0001:00044ecc       ?type_case_u@?$output_processor@_WV?$string_output_adapter@_W@__crt_stdio_output@@V?$format_validation_base@_WV?$string_output_adapter@_W@__crt_stdio_output@@@2@@__crt_stdio_output@@AAE_NXZ 10045ecc f i libucrt:output.obj
 0001:00044ed6       ?type_case_u@?$output_processor@_WV?$string_output_adapter@_W@__crt_stdio_output@@V?$positional_parameter_base@_WV?$string_output_adapter@_W@__crt_stdio_output@@@2@@__crt_stdio_output@@AAE_NXZ 10045ed6 f i libucrt:output.obj
 0001:00044ee0       ?type_case_u@?$output_processor@_WV?$string_output_adapter@_W@__crt_stdio_output@@V?$standard_base@_WV?$string_output_adapter@_W@__crt_stdio_output@@@2@@__crt_stdio_output@@AAE_NXZ 10045ee0 f i libucrt:output.obj
 0001:00044eea       ?type_case_x@?$output_processor@DV?$stream_output_adapter@D@__crt_stdio_output@@V?$format_validation_base@DV?$stream_output_adapter@D@__crt_stdio_output@@@2@@__crt_stdio_output@@AAE_NXZ 10045eea f i libucrt:output.obj
 0001:00044ef4       ?type_case_x@?$output_processor@DV?$stream_output_adapter@D@__crt_stdio_output@@V?$positional_parameter_base@DV?$stream_output_adapter@D@__crt_stdio_output@@@2@@__crt_stdio_output@@AAE_NXZ 10045ef4 f i libucrt:output.obj
 0001:00044efe       ?type_case_x@?$output_processor@DV?$stream_output_adapter@D@__crt_stdio_output@@V?$standard_base@DV?$stream_output_adapter@D@__crt_stdio_output@@@2@@__crt_stdio_output@@AAE_NXZ 10045efe f i libucrt:output.obj
 0001:00044f08       ?type_case_x@?$output_processor@DV?$string_output_adapter@D@__crt_stdio_output@@V?$format_validation_base@DV?$string_output_adapter@D@__crt_stdio_output@@@2@@__crt_stdio_output@@AAE_NXZ 10045f08 f i libucrt:output.obj
 0001:00044f12       ?type_case_x@?$output_processor@DV?$string_output_adapter@D@__crt_stdio_output@@V?$positional_parameter_base@DV?$string_output_adapter@D@__crt_stdio_output@@@2@@__crt_stdio_output@@AAE_NXZ 10045f12 f i libucrt:output.obj
 0001:00044f1c       ?type_case_x@?$output_processor@DV?$string_output_adapter@D@__crt_stdio_output@@V?$standard_base@DV?$string_output_adapter@D@__crt_stdio_output@@@2@@__crt_stdio_output@@AAE_NXZ 10045f1c f i libucrt:output.obj
 0001:00044f26       ?type_case_x@?$output_processor@_WV?$stream_output_adapter@_W@__crt_stdio_output@@V?$format_validation_base@_WV?$stream_output_adapter@_W@__crt_stdio_output@@@2@@__crt_stdio_output@@AAE_NXZ 10045f26 f i libucrt:output.obj
 0001:00044f30       ?type_case_x@?$output_processor@_WV?$stream_output_adapter@_W@__crt_stdio_output@@V?$positional_parameter_base@_WV?$stream_output_adapter@_W@__crt_stdio_output@@@2@@__crt_stdio_output@@AAE_NXZ 10045f30 f i libucrt:output.obj
 0001:00044f3a       ?type_case_x@?$output_processor@_WV?$stream_output_adapter@_W@__crt_stdio_output@@V?$standard_base@_WV?$stream_output_adapter@_W@__crt_stdio_output@@@2@@__crt_stdio_output@@AAE_NXZ 10045f3a f i libucrt:output.obj
 0001:00044f44       ?type_case_x@?$output_processor@_WV?$string_output_adapter@_W@__crt_stdio_output@@V?$format_validation_base@_WV?$string_output_adapter@_W@__crt_stdio_output@@@2@@__crt_stdio_output@@AAE_NXZ 10045f44 f i libucrt:output.obj
 0001:00044f4e       ?type_case_x@?$output_processor@_WV?$string_output_adapter@_W@__crt_stdio_output@@V?$positional_parameter_base@_WV?$string_output_adapter@_W@__crt_stdio_output@@@2@@__crt_stdio_output@@AAE_NXZ 10045f4e f i libucrt:output.obj
 0001:00044f58       ?type_case_x@?$output_processor@_WV?$string_output_adapter@_W@__crt_stdio_output@@V?$standard_base@_WV?$string_output_adapter@_W@__crt_stdio_output@@@2@@__crt_stdio_output@@AAE_NXZ 10045f58 f i libucrt:output.obj
 0001:00044f62       ?unset_flag@?$output_processor@DV?$stream_output_adapter@D@__crt_stdio_output@@V?$format_validation_base@DV?$stream_output_adapter@D@__crt_stdio_output@@@2@@__crt_stdio_output@@AAEXI@Z 10045f62 f i libucrt:output.obj
 0001:00044f73       ?unset_flag@?$output_processor@DV?$stream_output_adapter@D@__crt_stdio_output@@V?$positional_parameter_base@DV?$stream_output_adapter@D@__crt_stdio_output@@@2@@__crt_stdio_output@@AAEXI@Z 10045f73 f i libucrt:output.obj
 0001:00044f84       ?unset_flag@?$output_processor@DV?$stream_output_adapter@D@__crt_stdio_output@@V?$standard_base@DV?$stream_output_adapter@D@__crt_stdio_output@@@2@@__crt_stdio_output@@AAEXI@Z 10045f84 f i libucrt:output.obj
 0001:00044f95       ?unset_flag@?$output_processor@DV?$string_output_adapter@D@__crt_stdio_output@@V?$format_validation_base@DV?$string_output_adapter@D@__crt_stdio_output@@@2@@__crt_stdio_output@@AAEXI@Z 10045f95 f i libucrt:output.obj
 0001:00044fa6       ?unset_flag@?$output_processor@DV?$string_output_adapter@D@__crt_stdio_output@@V?$positional_parameter_base@DV?$string_output_adapter@D@__crt_stdio_output@@@2@@__crt_stdio_output@@AAEXI@Z 10045fa6 f i libucrt:output.obj
 0001:00044fb7       ?unset_flag@?$output_processor@DV?$string_output_adapter@D@__crt_stdio_output@@V?$standard_base@DV?$string_output_adapter@D@__crt_stdio_output@@@2@@__crt_stdio_output@@AAEXI@Z 10045fb7 f i libucrt:output.obj
 0001:00044fc8       ?unset_flag@?$output_processor@_WV?$stream_output_adapter@_W@__crt_stdio_output@@V?$format_validation_base@_WV?$stream_output_adapter@_W@__crt_stdio_output@@@2@@__crt_stdio_output@@AAEXI@Z 10045fc8 f i libucrt:output.obj
 0001:00044fd9       ?unset_flag@?$output_processor@_WV?$stream_output_adapter@_W@__crt_stdio_output@@V?$positional_parameter_base@_WV?$stream_output_adapter@_W@__crt_stdio_output@@@2@@__crt_stdio_output@@AAEXI@Z 10045fd9 f i libucrt:output.obj
 0001:00044fea       ?unset_flag@?$output_processor@_WV?$stream_output_adapter@_W@__crt_stdio_output@@V?$standard_base@_WV?$stream_output_adapter@_W@__crt_stdio_output@@@2@@__crt_stdio_output@@AAEXI@Z 10045fea f i libucrt:output.obj
 0001:00044ffb       ?unset_flag@?$output_processor@_WV?$string_output_adapter@_W@__crt_stdio_output@@V?$format_validation_base@_WV?$string_output_adapter@_W@__crt_stdio_output@@@2@@__crt_stdio_output@@AAEXI@Z 10045ffb f i libucrt:output.obj
 0001:0004500c       ?unset_flag@?$output_processor@_WV?$string_output_adapter@_W@__crt_stdio_output@@V?$positional_parameter_base@_WV?$string_output_adapter@_W@__crt_stdio_output@@@2@@__crt_stdio_output@@AAEXI@Z 1004600c f i libucrt:output.obj
 0001:0004501d       ?unset_flag@?$output_processor@_WV?$string_output_adapter@_W@__crt_stdio_output@@V?$standard_base@_WV?$string_output_adapter@_W@__crt_stdio_output@@@2@@__crt_stdio_output@@AAEXI@Z 1004601d f i libucrt:output.obj
 0001:0004502e       ?update_field_width@?$positional_parameter_base@DV?$stream_output_adapter@D@__crt_stdio_output@@@__crt_stdio_output@@IAE_NXZ 1004602e f i libucrt:output.obj
 0001:000450e2       ?update_field_width@?$positional_parameter_base@DV?$string_output_adapter@D@__crt_stdio_output@@@__crt_stdio_output@@IAE_NXZ 100460e2 f i libucrt:output.obj
 0001:00045196       ?update_field_width@?$positional_parameter_base@_WV?$stream_output_adapter@_W@__crt_stdio_output@@@__crt_stdio_output@@IAE_NXZ 10046196 f i libucrt:output.obj
 0001:0004524b       ?update_field_width@?$positional_parameter_base@_WV?$string_output_adapter@_W@__crt_stdio_output@@@__crt_stdio_output@@IAE_NXZ 1004624b f i libucrt:output.obj
 0001:00045300       ?update_field_width@?$standard_base@DV?$stream_output_adapter@D@__crt_stdio_output@@@__crt_stdio_output@@IAE_NXZ 10046300 f i libucrt:output.obj
 0001:00045310       ?update_field_width@?$standard_base@DV?$string_output_adapter@D@__crt_stdio_output@@@__crt_stdio_output@@IAE_NXZ 10046310 f i libucrt:output.obj
 0001:00045320       ?update_field_width@?$standard_base@_WV?$stream_output_adapter@_W@__crt_stdio_output@@@__crt_stdio_output@@IAE_NXZ 10046320 f i libucrt:output.obj
 0001:00045330       ?update_field_width@?$standard_base@_WV?$string_output_adapter@_W@__crt_stdio_output@@@__crt_stdio_output@@IAE_NXZ 10046330 f i libucrt:output.obj
 0001:00045340       ?update_precision@?$positional_parameter_base@DV?$stream_output_adapter@D@__crt_stdio_output@@@__crt_stdio_output@@IAE_NXZ 10046340 f i libucrt:output.obj
 0001:000453f4       ?update_precision@?$positional_parameter_base@DV?$string_output_adapter@D@__crt_stdio_output@@@__crt_stdio_output@@IAE_NXZ 100463f4 f i libucrt:output.obj
 0001:000454a8       ?update_precision@?$positional_parameter_base@_WV?$stream_output_adapter@_W@__crt_stdio_output@@@__crt_stdio_output@@IAE_NXZ 100464a8 f i libucrt:output.obj
 0001:0004555d       ?update_precision@?$positional_parameter_base@_WV?$string_output_adapter@_W@__crt_stdio_output@@@__crt_stdio_output@@IAE_NXZ 1004655d f i libucrt:output.obj
 0001:00045612       ?update_precision@?$standard_base@DV?$stream_output_adapter@D@__crt_stdio_output@@@__crt_stdio_output@@IAE_NXZ 10046612 f i libucrt:output.obj
 0001:00045622       ?update_precision@?$standard_base@DV?$string_output_adapter@D@__crt_stdio_output@@@__crt_stdio_output@@IAE_NXZ 10046622 f i libucrt:output.obj
 0001:00045632       ?update_precision@?$standard_base@_WV?$stream_output_adapter@_W@__crt_stdio_output@@@__crt_stdio_output@@IAE_NXZ 10046632 f i libucrt:output.obj
 0001:00045642       ?update_precision@?$standard_base@_WV?$string_output_adapter@_W@__crt_stdio_output@@@__crt_stdio_output@@IAE_NXZ 10046642 f i libucrt:output.obj
 0001:00045652       ?valid@__crt_stdio_stream@@QBE_NXZ 10046652 f i libucrt:output.obj
 0001:00045659       ?validate@?$stream_output_adapter@D@__crt_stdio_output@@QBE_NXZ 10046659 f i libucrt:output.obj
 0001:0004567a       ?validate@?$stream_output_adapter@_W@__crt_stdio_output@@QBE_NXZ 1004667a f i libucrt:output.obj
 0001:00045695       ?validate@?$string_output_adapter@D@__crt_stdio_output@@QBE_NXZ 10046695 f i libucrt:output.obj
 0001:000456b0       ?validate@?$string_output_adapter@_W@__crt_stdio_output@@QBE_NXZ 100466b0 f i libucrt:output.obj
 0001:000456cb       ?validate_and_store_parameter_data@?$positional_parameter_base@DV?$stream_output_adapter@D@__crt_stdio_output@@@__crt_stdio_output@@AAE_NAAUparameter_data@12@W4parameter_type@12@DW4length_modifier@2@@Z 100466cb f i libucrt:output.obj
 0001:00045716       ?validate_and_store_parameter_data@?$positional_parameter_base@DV?$string_output_adapter@D@__crt_stdio_output@@@__crt_stdio_output@@AAE_NAAUparameter_data@12@W4parameter_type@12@DW4length_modifier@2@@Z 10046716 f i libucrt:output.obj
 0001:00045761       ?validate_and_store_parameter_data@?$positional_parameter_base@_WV?$stream_output_adapter@_W@__crt_stdio_output@@@__crt_stdio_output@@AAE_NAAUparameter_data@12@W4parameter_type@12@_WW4length_modifier@2@@Z 10046761 f i libucrt:output.obj
 0001:000457ae       ?validate_and_store_parameter_data@?$positional_parameter_base@_WV?$string_output_adapter@_W@__crt_stdio_output@@@__crt_stdio_output@@AAE_NAAUparameter_data@12@W4parameter_type@12@_WW4length_modifier@2@@Z 100467ae f i libucrt:output.obj
 0001:000457fb       ?validate_and_update_state_at_beginning_of_format_character@?$positional_parameter_base@DV?$stream_output_adapter@D@__crt_stdio_output@@@__crt_stdio_output@@IAE_NXZ 100467fb f i libucrt:output.obj
 0001:000458f3       ?validate_and_update_state_at_beginning_of_format_character@?$positional_parameter_base@DV?$string_output_adapter@D@__crt_stdio_output@@@__crt_stdio_output@@IAE_NXZ 100468f3 f i libucrt:output.obj
 0001:000459eb       ?validate_and_update_state_at_beginning_of_format_character@?$positional_parameter_base@_WV?$stream_output_adapter@_W@__crt_stdio_output@@@__crt_stdio_output@@IAE_NXZ 100469eb f i libucrt:output.obj
 0001:00045aec       ?validate_and_update_state_at_beginning_of_format_character@?$positional_parameter_base@_WV?$string_output_adapter@_W@__crt_stdio_output@@@__crt_stdio_output@@IAE_NXZ 10046aec f i libucrt:output.obj
 0001:00045bed       ?validate_and_update_state_at_beginning_of_format_character@?$standard_base@DV?$stream_output_adapter@D@__crt_stdio_output@@@__crt_stdio_output@@IAE_NXZ 10046bed f i libucrt:output.obj
 0001:00045bf0       ?validate_and_update_state_at_beginning_of_format_character@?$standard_base@DV?$string_output_adapter@D@__crt_stdio_output@@@__crt_stdio_output@@IAE_NXZ 10046bf0 f i libucrt:output.obj
 0001:00045bf3       ?validate_and_update_state_at_beginning_of_format_character@?$standard_base@_WV?$stream_output_adapter@_W@__crt_stdio_output@@@__crt_stdio_output@@IAE_NXZ 10046bf3 f i libucrt:output.obj
 0001:00045bf6       ?validate_and_update_state_at_beginning_of_format_character@?$standard_base@_WV?$string_output_adapter@_W@__crt_stdio_output@@@__crt_stdio_output@@IAE_NXZ 10046bf6 f i libucrt:output.obj
 0001:00045bf9       ?validate_and_update_state_at_end_of_format_string@?$format_validation_base@DV?$stream_output_adapter@D@__crt_stdio_output@@@__crt_stdio_output@@IBE_NXZ 10046bf9 f i libucrt:output.obj
 0001:00045c1b       ?validate_and_update_state_at_end_of_format_string@?$format_validation_base@DV?$string_output_adapter@D@__crt_stdio_output@@@__crt_stdio_output@@IBE_NXZ 10046c1b f i libucrt:output.obj
 0001:00045c3d       ?validate_and_update_state_at_end_of_format_string@?$format_validation_base@_WV?$stream_output_adapter@_W@__crt_stdio_output@@@__crt_stdio_output@@IBE_NXZ 10046c3d f i libucrt:output.obj
 0001:00045c5f       ?validate_and_update_state_at_end_of_format_string@?$format_validation_base@_WV?$string_output_adapter@_W@__crt_stdio_output@@@__crt_stdio_output@@IBE_NXZ 10046c5f f i libucrt:output.obj
 0001:00045c81       ?validate_and_update_state_at_end_of_format_string@?$positional_parameter_base@DV?$stream_output_adapter@D@__crt_stdio_output@@@__crt_stdio_output@@IAE_NXZ 10046c81 f i libucrt:output.obj
 0001:00045d11       ?validate_and_update_state_at_end_of_format_string@?$positional_parameter_base@DV?$string_output_adapter@D@__crt_stdio_output@@@__crt_stdio_output@@IAE_NXZ 10046d11 f i libucrt:output.obj
 0001:00045da1       ?validate_and_update_state_at_end_of_format_string@?$positional_parameter_base@_WV?$stream_output_adapter@_W@__crt_stdio_output@@@__crt_stdio_output@@IAE_NXZ 10046da1 f i libucrt:output.obj
 0001:00045e31       ?validate_and_update_state_at_end_of_format_string@?$positional_parameter_base@_WV?$string_output_adapter@_W@__crt_stdio_output@@@__crt_stdio_output@@IAE_NXZ 10046e31 f i libucrt:output.obj
 0001:00045ec1       ?validate_and_update_state_at_end_of_format_string@?$standard_base@DV?$stream_output_adapter@D@__crt_stdio_output@@@__crt_stdio_output@@IBE_NXZ 10046ec1 f i libucrt:output.obj
 0001:00045ec4       ?validate_and_update_state_at_end_of_format_string@?$standard_base@DV?$string_output_adapter@D@__crt_stdio_output@@@__crt_stdio_output@@IBE_NXZ 10046ec4 f i libucrt:output.obj
 0001:00045ec7       ?validate_and_update_state_at_end_of_format_string@?$standard_base@_WV?$stream_output_adapter@_W@__crt_stdio_output@@@__crt_stdio_output@@IBE_NXZ 10046ec7 f i libucrt:output.obj
 0001:00045eca       ?validate_and_update_state_at_end_of_format_string@?$standard_base@_WV?$string_output_adapter@_W@__crt_stdio_output@@@__crt_stdio_output@@IBE_NXZ 10046eca f i libucrt:output.obj
 0001:00045ecd       ?validate_state_for_type_case_a@?$positional_parameter_base@DV?$stream_output_adapter@D@__crt_stdio_output@@@__crt_stdio_output@@IAE_NXZ 10046ecd f i libucrt:output.obj
 0001:00045f1c       ?validate_state_for_type_case_a@?$positional_parameter_base@DV?$string_output_adapter@D@__crt_stdio_output@@@__crt_stdio_output@@IAE_NXZ 10046f1c f i libucrt:output.obj
 0001:00045f6b       ?validate_state_for_type_case_a@?$positional_parameter_base@_WV?$stream_output_adapter@_W@__crt_stdio_output@@@__crt_stdio_output@@IAE_NXZ 10046f6b f i libucrt:output.obj
 0001:00045fba       ?validate_state_for_type_case_a@?$positional_parameter_base@_WV?$string_output_adapter@_W@__crt_stdio_output@@@__crt_stdio_output@@IAE_NXZ 10046fba f i libucrt:output.obj
 0001:00046009       ?validate_state_for_type_case_a@?$standard_base@DV?$stream_output_adapter@D@__crt_stdio_output@@@__crt_stdio_output@@IBE_NXZ 10047009 f i libucrt:output.obj
 0001:0004600c       ?validate_state_for_type_case_a@?$standard_base@DV?$string_output_adapter@D@__crt_stdio_output@@@__crt_stdio_output@@IBE_NXZ 1004700c f i libucrt:output.obj
 0001:0004600f       ?validate_state_for_type_case_a@?$standard_base@_WV?$stream_output_adapter@_W@__crt_stdio_output@@@__crt_stdio_output@@IBE_NXZ 1004700f f i libucrt:output.obj
 0001:00046012       ?validate_state_for_type_case_a@?$standard_base@_WV?$string_output_adapter@_W@__crt_stdio_output@@@__crt_stdio_output@@IBE_NXZ 10047012 f i libucrt:output.obj
 0001:00046015       ?validate_stream_is_ansi_if_required@?$__acrt_stdio_char_traits@D@@SA_NQAU_iobuf@@@Z 10047015 f i libucrt:output.obj
 0001:0004609c       ?validate_stream_is_ansi_if_required@?$__acrt_stdio_char_traits@_W@@SA_NQAU_iobuf@@@Z 1004709c f i libucrt:output.obj
 0001:0004609f       ?wide_null_string@?$output_processor@DV?$stream_output_adapter@D@__crt_stdio_output@@V?$format_validation_base@DV?$stream_output_adapter@D@__crt_stdio_output@@@2@@__crt_stdio_output@@CAPA_WXZ 1004709f f i libucrt:output.obj
 0001:000460a5       ?wide_null_string@?$output_processor@DV?$stream_output_adapter@D@__crt_stdio_output@@V?$positional_parameter_base@DV?$stream_output_adapter@D@__crt_stdio_output@@@2@@__crt_stdio_output@@CAPA_WXZ 100470a5 f i libucrt:output.obj
 0001:000460ab       ?wide_null_string@?$output_processor@DV?$stream_output_adapter@D@__crt_stdio_output@@V?$standard_base@DV?$stream_output_adapter@D@__crt_stdio_output@@@2@@__crt_stdio_output@@CAPA_WXZ 100470ab f i libucrt:output.obj
 0001:000460b1       ?wide_null_string@?$output_processor@DV?$string_output_adapter@D@__crt_stdio_output@@V?$format_validation_base@DV?$string_output_adapter@D@__crt_stdio_output@@@2@@__crt_stdio_output@@CAPA_WXZ 100470b1 f i libucrt:output.obj
 0001:000460b7       ?wide_null_string@?$output_processor@DV?$string_output_adapter@D@__crt_stdio_output@@V?$positional_parameter_base@DV?$string_output_adapter@D@__crt_stdio_output@@@2@@__crt_stdio_output@@CAPA_WXZ 100470b7 f i libucrt:output.obj
 0001:000460bd       ?wide_null_string@?$output_processor@DV?$string_output_adapter@D@__crt_stdio_output@@V?$standard_base@DV?$string_output_adapter@D@__crt_stdio_output@@@2@@__crt_stdio_output@@CAPA_WXZ 100470bd f i libucrt:output.obj
 0001:000460c3       ?wide_null_string@?$output_processor@_WV?$stream_output_adapter@_W@__crt_stdio_output@@V?$format_validation_base@_WV?$stream_output_adapter@_W@__crt_stdio_output@@@2@@__crt_stdio_output@@CAPA_WXZ 100470c3 f i libucrt:output.obj
 0001:000460c9       ?wide_null_string@?$output_processor@_WV?$stream_output_adapter@_W@__crt_stdio_output@@V?$positional_parameter_base@_WV?$stream_output_adapter@_W@__crt_stdio_output@@@2@@__crt_stdio_output@@CAPA_WXZ 100470c9 f i libucrt:output.obj
 0001:000460cf       ?wide_null_string@?$output_processor@_WV?$stream_output_adapter@_W@__crt_stdio_output@@V?$standard_base@_WV?$stream_output_adapter@_W@__crt_stdio_output@@@2@@__crt_stdio_output@@CAPA_WXZ 100470cf f i libucrt:output.obj
 0001:000460d5       ?wide_null_string@?$output_processor@_WV?$string_output_adapter@_W@__crt_stdio_output@@V?$format_validation_base@_WV?$string_output_adapter@_W@__crt_stdio_output@@@2@@__crt_stdio_output@@CAPA_WXZ 100470d5 f i libucrt:output.obj
 0001:000460db       ?wide_null_string@?$output_processor@_WV?$string_output_adapter@_W@__crt_stdio_output@@V?$positional_parameter_base@_WV?$string_output_adapter@_W@__crt_stdio_output@@@2@@__crt_stdio_output@@CAPA_WXZ 100470db f i libucrt:output.obj
 0001:000460e1       ?wide_null_string@?$output_processor@_WV?$string_output_adapter@_W@__crt_stdio_output@@V?$standard_base@_WV?$string_output_adapter@_W@__crt_stdio_output@@@2@@__crt_stdio_output@@CAPA_WXZ 100470e1 f i libucrt:output.obj
 0001:000460e7       ?write_character@?$output_adapter_common@DV?$stream_output_adapter@D@__crt_stdio_output@@@__crt_stdio_output@@QBEXDQAH@Z 100470e7 f i libucrt:output.obj
 0001:00046106       ?write_character@?$output_adapter_common@_WV?$stream_output_adapter@_W@__crt_stdio_output@@@__crt_stdio_output@@QBEX_WQAH@Z 10047106 f i libucrt:output.obj
 0001:00046125       ?write_character@?$string_output_adapter@D@__crt_stdio_output@@QBE_NDQAH@Z 10047125 f i libucrt:output.obj
 0001:00046167       ?write_character@?$string_output_adapter@_W@__crt_stdio_output@@QBE_N_WQAH@Z 10047167 f i libucrt:output.obj
 0001:000461ac       ?write_character_without_count_update@?$stream_output_adapter@D@__crt_stdio_output@@QBE_ND@Z 100471ac f i libucrt:output.obj
 0001:000461e2       ?write_character_without_count_update@?$stream_output_adapter@_W@__crt_stdio_output@@QBE_N_W@Z 100471e2 f i libucrt:output.obj
 0001:0004621b       ?write_stored_string_tchar@?$output_processor@DV?$stream_output_adapter@D@__crt_stdio_output@@V?$format_validation_base@DV?$stream_output_adapter@D@__crt_stdio_output@@@2@@__crt_stdio_output@@AAE_ND@Z 1004721b f i libucrt:output.obj
 0001:000462c2       ?write_stored_string_tchar@?$output_processor@DV?$stream_output_adapter@D@__crt_stdio_output@@V?$positional_parameter_base@DV?$stream_output_adapter@D@__crt_stdio_output@@@2@@__crt_stdio_output@@AAE_ND@Z 100472c2 f i libucrt:output.obj
 0001:00046369       ?write_stored_string_tchar@?$output_processor@DV?$stream_output_adapter@D@__crt_stdio_output@@V?$standard_base@DV?$stream_output_adapter@D@__crt_stdio_output@@@2@@__crt_stdio_output@@AAE_ND@Z 10047369 f i libucrt:output.obj
 0001:00046410       ?write_stored_string_tchar@?$output_processor@DV?$string_output_adapter@D@__crt_stdio_output@@V?$format_validation_base@DV?$string_output_adapter@D@__crt_stdio_output@@@2@@__crt_stdio_output@@AAE_ND@Z 10047410 f i libucrt:output.obj
 0001:000464b7       ?write_stored_string_tchar@?$output_processor@DV?$string_output_adapter@D@__crt_stdio_output@@V?$positional_parameter_base@DV?$string_output_adapter@D@__crt_stdio_output@@@2@@__crt_stdio_output@@AAE_ND@Z 100474b7 f i libucrt:output.obj
 0001:0004655e       ?write_stored_string_tchar@?$output_processor@DV?$string_output_adapter@D@__crt_stdio_output@@V?$standard_base@DV?$string_output_adapter@D@__crt_stdio_output@@@2@@__crt_stdio_output@@AAE_ND@Z 1004755e f i libucrt:output.obj
 0001:00046605       ?write_stored_string_tchar@?$output_processor@_WV?$stream_output_adapter@_W@__crt_stdio_output@@V?$format_validation_base@_WV?$stream_output_adapter@_W@__crt_stdio_output@@@2@@__crt_stdio_output@@AAE_N_W@Z 10047605 f i libucrt:output.obj
 0001:00046698       ?write_stored_string_tchar@?$output_processor@_WV?$stream_output_adapter@_W@__crt_stdio_output@@V?$positional_parameter_base@_WV?$stream_output_adapter@_W@__crt_stdio_output@@@2@@__crt_stdio_output@@AAE_N_W@Z 10047698 f i libucrt:output.obj
 0001:0004672b       ?write_stored_string_tchar@?$output_processor@_WV?$stream_output_adapter@_W@__crt_stdio_output@@V?$standard_base@_WV?$stream_output_adapter@_W@__crt_stdio_output@@@2@@__crt_stdio_output@@AAE_N_W@Z 1004772b f i libucrt:output.obj
 0001:000467be       ?write_stored_string_tchar@?$output_processor@_WV?$string_output_adapter@_W@__crt_stdio_output@@V?$format_validation_base@_WV?$string_output_adapter@_W@__crt_stdio_output@@@2@@__crt_stdio_output@@AAE_N_W@Z 100477be f i libucrt:output.obj
 0001:00046851       ?write_stored_string_tchar@?$output_processor@_WV?$string_output_adapter@_W@__crt_stdio_output@@V?$positional_parameter_base@_WV?$string_output_adapter@_W@__crt_stdio_output@@@2@@__crt_stdio_output@@AAE_N_W@Z 10047851 f i libucrt:output.obj
 0001:000468e4       ?write_stored_string_tchar@?$output_processor@_WV?$string_output_adapter@_W@__crt_stdio_output@@V?$standard_base@_WV?$string_output_adapter@_W@__crt_stdio_output@@@2@@__crt_stdio_output@@AAE_N_W@Z 100478e4 f i libucrt:output.obj
 0001:00046977       ?write_string@?$stream_output_adapter@D@__crt_stdio_output@@QBEXQBDHQAHAAV__crt_deferred_errno_cache@@@Z 10047977 f i libucrt:output.obj
 0001:000469a3       ?write_string@?$stream_output_adapter@_W@__crt_stdio_output@@QBEXQB_WHQAHAAV__crt_deferred_errno_cache@@@Z 100479a3 f i libucrt:output.obj
 0001:000469cf       ?write_string@?$string_output_adapter@D@__crt_stdio_output@@QBEXQBDHQAHAAV__crt_deferred_errno_cache@@@Z 100479cf f i libucrt:output.obj
 0001:00046a36       ?write_string@?$string_output_adapter@_W@__crt_stdio_output@@QBEXQB_WHQAHAAV__crt_deferred_errno_cache@@@Z 10047a36 f i libucrt:output.obj
 0001:00046aa7       ?write_string_impl@?$output_adapter_common@DV?$stream_output_adapter@D@__crt_stdio_output@@@__crt_stdio_output@@IBEXQBDHQAHAAV__crt_deferred_errno_cache@@@Z 10047aa7 f i libucrt:output.obj
 0001:00046b45       ?write_string_impl@?$output_adapter_common@_WV?$stream_output_adapter@_W@__crt_stdio_output@@@__crt_stdio_output@@IBEXQB_WHQAHAAV__crt_deferred_errno_cache@@@Z 10047b45 f i libucrt:output.obj
 0001:00046be6       ___acrt_isleadbyte_l_noupdate 10047be6 f i libucrt:output.obj
 0001:00046c04       ___acrt_locale_changed     10047c04 f i libucrt:output.obj
 0001:00046c0f       ___acrt_locale_get_ctype_array_value 10047c0f f i libucrt:output.obj
 0001:00046c31       ___stdio_common_vfprintf   10047c31 f   libucrt:output.obj
 0001:00046cb4       ___stdio_common_vfprintf_p 10047cb4 f   libucrt:output.obj
 0001:00046d37       ___stdio_common_vfprintf_s 10047d37 f   libucrt:output.obj
 0001:00046dba       ___stdio_common_vfwprintf  10047dba f   libucrt:output.obj
 0001:00046e3d       ___stdio_common_vfwprintf_p 10047e3d f   libucrt:output.obj
 0001:00046ec0       ___stdio_common_vfwprintf_s 10047ec0 f   libucrt:output.obj
 0001:00046f43       ___stdio_common_vsnprintf_s 10047f43 f   libucrt:output.obj
 0001:00046f6a       ___stdio_common_vsnwprintf_s 10047f6a f   libucrt:output.obj
 0001:00046f91       ___stdio_common_vsprintf   10047f91 f   libucrt:output.obj
 0001:00046fb5       ___stdio_common_vsprintf_p 10047fb5 f   libucrt:output.obj
 0001:00046fd9       ___stdio_common_vsprintf_s 10047fd9 f   libucrt:output.obj
 0001:00046ffd       ___stdio_common_vswprintf  10047ffd f   libucrt:output.obj
 0001:00047021       ___stdio_common_vswprintf_p 10048021 f   libucrt:output.obj
 0001:00047045       ___stdio_common_vswprintf_s 10048045 f   libucrt:output.obj
 0001:00047069       __ctype_fast_check_internal 10048069 f i libucrt:output.obj
 0001:00047083       __isdigit_fast_internal    10048083 f i libucrt:output.obj
 0001:0004709d       __tolower_fast_internal    1004809d f i libucrt:output.obj
 0001:000470b6       ??$is_overflow_condition@K@__crt_strtox@@YA_NIK@Z 100480b6 f i libucrt:atox.obj
 0001:000470e7       ??$is_overflow_condition@_K@__crt_strtox@@YA_NI_K@Z 100480e7 f i libucrt:atox.obj
 0001:00047128       ??$make_c_string_character_source@D$$T@__crt_strtox@@YA?AV?$c_string_character_source@D@0@QBD$$T@Z 10048128 f i libucrt:atox.obj
 0001:00047143       ??$make_c_string_character_source@_W$$T@__crt_strtox@@YA?AV?$c_string_character_source@_W@0@QB_W$$T@Z 10048143 f i libucrt:atox.obj
 0001:0004715e       ??$parse_integer@KV?$c_string_character_source@D@__crt_strtox@@@__crt_strtox@@YAKQAU__crt_locale_pointers@@V?$c_string_character_source@D@0@H_N@Z 1004815e f i libucrt:atox.obj
 0001:00047383       ??$parse_integer@KV?$c_string_character_source@_W@__crt_strtox@@@__crt_strtox@@YAKQAU__crt_locale_pointers@@V?$c_string_character_source@_W@0@H_N@Z 10048383 f i libucrt:atox.obj
 0001:0004798b       ??$parse_integer@_KV?$c_string_character_source@D@__crt_strtox@@@__crt_strtox@@YA_KQAU__crt_locale_pointers@@V?$c_string_character_source@D@0@H_N@Z 1004898b f i libucrt:atox.obj
 0001:00047c31       ??$parse_integer@_KV?$c_string_character_source@_W@__crt_strtox@@@__crt_strtox@@YA_KQAU__crt_locale_pointers@@V?$c_string_character_source@_W@0@H_N@Z 10048c31 f i libucrt:atox.obj
 0001:00048302       ??$parse_integer_from_string@JD$$T@__crt_strtox@@YAJQBD$$THQAU__crt_locale_pointers@@@Z 10049302 f i libucrt:atox.obj
 0001:0004832d       ??$parse_integer_from_string@J_W$$T@__crt_strtox@@YAJQB_W$$THQAU__crt_locale_pointers@@@Z 1004932d f i libucrt:atox.obj
 0001:00048358       ??$parse_integer_from_string@_JD$$T@__crt_strtox@@YA_JQBD$$THQAU__crt_locale_pointers@@@Z 10049358 f i libucrt:atox.obj
 0001:00048383       ??$parse_integer_from_string@_J_W$$T@__crt_strtox@@YA_JQB_W$$THQAU__crt_locale_pointers@@@Z 10049383 f i libucrt:atox.obj
 0001:000483ae       ??0?$c_string_character_source@D@__crt_strtox@@QAE@QBDQAPBD@Z 100493ae f i libucrt:atox.obj
 0001:000483ca       ??0?$c_string_character_source@_W@__crt_strtox@@QAE@QB_WQAPB_W@Z 100493ca f i libucrt:atox.obj
 0001:000483e6       ??1?$c_string_character_source@D@__crt_strtox@@QAE@XZ 100493e6 f i libucrt:atox.obj
 0001:000483f2       ??1?$c_string_character_source@_W@__crt_strtox@@QAE@XZ 100493f2 f i libucrt:atox.obj
 0001:000483fe       ?get@?$c_string_character_source@D@__crt_strtox@@QAEDXZ 100493fe f i libucrt:atox.obj
 0001:00048406       ?get@?$c_string_character_source@_W@__crt_strtox@@QAE_WXZ 10049406 f i libucrt:atox.obj
 0001:00048411       ?is_space@__crt_strtox@@YA_NDQAU__crt_locale_pointers@@@Z 10049411 f i libucrt:atox.obj
 0001:0004842f       ?is_space@__crt_strtox@@YA_N_WPAU__crt_locale_pointers@@@Z 1004942f f i libucrt:atox.obj
 0001:00048447       ?maximum_signed_value@__crt_strtox@@YAJK@Z 10049447 f i libucrt:atox.obj
 0001:0004844d       ?maximum_signed_value@__crt_strtox@@YA_J_K@Z 1004944d f i libucrt:atox.obj
 0001:00048456       ?minimum_signed_value@__crt_strtox@@YAJK@Z 10049456 f i libucrt:atox.obj
 0001:0004845c       ?minimum_signed_value@__crt_strtox@@YA_J_K@Z 1004945c f i libucrt:atox.obj
 0001:00048464       ?parse_digit@__crt_strtox@@YAID@Z 10049464 f i libucrt:atox.obj
 0001:0004849e       ?parse_digit@__crt_strtox@@YAI_W@Z 1004949e f i libucrt:atox.obj
 0001:0004867d       ?restore_state@?$c_string_character_source@D@__crt_strtox@@QAE_NQBD@Z 1004967d f i libucrt:atox.obj
 0001:0004868d       ?restore_state@?$c_string_character_source@_W@__crt_strtox@@QAE_NQB_W@Z 1004968d f i libucrt:atox.obj
 0001:0004869d       ?save_state@?$c_string_character_source@D@__crt_strtox@@QBEPBDXZ 1004969d f i libucrt:atox.obj
 0001:000486a0       ?save_state@?$c_string_character_source@_W@__crt_strtox@@QBEPB_WXZ 100496a0 f i libucrt:atox.obj
 0001:000486a3       ?unget@?$c_string_character_source@D@__crt_strtox@@QAEXD@Z 100496a3 f i libucrt:atox.obj
 0001:000486cc       ?unget@?$c_string_character_source@_W@__crt_strtox@@QAEX_W@Z 100496cc f i libucrt:atox.obj
 0001:000486fa       ?validate@?$c_string_character_source@D@__crt_strtox@@QBE_NXZ 100496fa f i libucrt:atox.obj
 0001:00048715       ?validate@?$c_string_character_source@_W@__crt_strtox@@QBE_NXZ 10049715 f i libucrt:atox.obj
 0001:00048730       ?wide_character_to_digit@__crt_strtox@@YAH_W@Z 10049730 f i libucrt:atox.obj
 0001:000488d1       ___acrt_get_locale_data_prefix 100498d1 f i libucrt:atox.obj
 0001:000488dd       ___ascii_iswalpha          100498dd f i libucrt:atox.obj
 0001:00048900       ___ascii_toupper           10049900 f i libucrt:atox.obj
 0001:00048917       ___ascii_towupper          10049917 f i libucrt:atox.obj
 0001:0004892e       __atoi64                   1004992e f   libucrt:atox.obj
 0001:00048951       __atoi64_l                 10049951 f   libucrt:atox.obj
 0001:00048975       __atoi_l                   10049975 f   libucrt:atox.obj
 0001:00048999       __atol_l                   10049999 f   libucrt:atox.obj
 0001:000489bd       __atoll_l                  100499bd f   libucrt:atox.obj
 0001:000489e1       __chvalidchk_l             100499e1 f i libucrt:atox.obj
 0001:00048a09       __ischartype_l             10049a09 f i libucrt:atox.obj
 0001:00048a5d       __wtoi                     10049a5d f   libucrt:atox.obj
 0001:00048a80       __wtoi64                   10049a80 f   libucrt:atox.obj
 0001:00048aa3       __wtoi64_l                 10049aa3 f   libucrt:atox.obj
 0001:00048ac7       __wtoi_l                   10049ac7 f   libucrt:atox.obj
 0001:00048aeb       __wtol                     10049aeb f   libucrt:atox.obj
 0001:00048b0e       __wtol_l                   10049b0e f   libucrt:atox.obj
 0001:00048b32       __wtoll                    10049b32 f   libucrt:atox.obj
 0001:00048b55       __wtoll_l                  10049b55 f   libucrt:atox.obj
 0001:00048b79       _atoi                      10049b79 f   libucrt:atox.obj
 0001:00048b9c       _atol                      10049b9c f   libucrt:atox.obj
 0001:00048bbf       _atoll                     10049bbf f   libucrt:atox.obj
 0001:00048bf0       _strncmp                   10049bf0 f   libucrt:strncmp.obj
 0001:00048c68       _calloc                    10049c68 f   libucrt:calloc.obj
 0001:00048c73       _wcsncmp                   10049c73 f   libucrt:wcsncmp.obj
 0001:00048cad       __add_exp                  10049cad f   libucrt:util.obj
 0001:00048cdc       __decomp                   10049cdc f   libucrt:util.obj
 0001:00048dae       __get_exp                  10049dae f   libucrt:util.obj
 0001:00048dc6       __set_bexp                 10049dc6 f   libucrt:util.obj
 0001:00048ded       __set_exp                  10049ded f   libucrt:util.obj
 0001:00048e1a       __sptype                   10049e1a f   libucrt:util.obj
 0001:00048e78       ___clrfp_sse2              10049e78 f   libucrt:fpctrl.obj
 0001:00048e99       ___ctrlfp_sse2             10049e99 f   libucrt:fpctrl.obj
 0001:00048ed4       ___fclrf_sse2              10049ed4 f   libucrt:fpctrl.obj
 0001:00048ef1       ___get_fpsr_sse2           10049ef1 f   libucrt:fpctrl.obj
 0001:00048f0d       ___set_fpsr_sse2           10049f0d f   libucrt:fpctrl.obj
 0001:00048f8d       ___set_statfp_sse2         10049f8d f   libucrt:fpctrl.obj
 0001:00048fa8       ___statfp_sse2             10049fa8 f   libucrt:fpctrl.obj
 0001:00048fbd       __clrfp                    10049fbd f   libucrt:fpctrl.obj
 0001:00048fce       __ctrlfp                   10049fce f   libucrt:fpctrl.obj
 0001:00048ff8       __set_statfp               10049ff8 f   libucrt:fpctrl.obj
 0001:00049051       __statfp                   1004a051 f   libucrt:fpctrl.obj
 0001:00049061       _ldexp                     1004a061 f   libucrt:ldexp.obj
 0001:00049253       _nextafter                 1004a253 f   libucrt:nextafter.obj
 0001:00049280       _cos                       1004a280 f   libucrt:cos.obj
 0001:000492d0       _sin                       1004a2d0 f   libucrt:sin.obj
 0001:00049319       __free_base                1004a319 f   libucrt:free_base.obj
 0001:00049353       ___acrt_errno_from_os_error 1004a353 f   libucrt:errno.obj
 0001:00049396       ___acrt_errno_map_os_error 1004a396 f   libucrt:errno.obj
 0001:000493b9       ___doserrno                1004a3b9 f   libucrt:errno.obj
 0001:000493cc       __errno                    1004a3cc f   libucrt:errno.obj
 0001:000493df       __get_doserrno             1004a3df f   libucrt:errno.obj
 0001:00049404       __get_errno                1004a404 f   libucrt:errno.obj
 0001:00049429       __set_doserrno             1004a429 f   libucrt:errno.obj
 0001:0004944a       __set_errno                1004a44a f   libucrt:errno.obj
 0001:0004946b       ??$__crt_fast_decode_pointer@P6AHPAU_exception@@@Z@@YAP6AHPAU_exception@@@ZQ6AH0@Z@Z 1004a46b f i libucrt:matherr.obj
 0001:00049481       ??$__crt_fast_encode_pointer@P6AHPAU_exception@@@Z@@YAP6AHPAU_exception@@@ZQ6AH0@Z@Z 1004a481 f i libucrt:matherr.obj
 0001:000494a0       ?initialize@?$dual_state_global@P6AHPAU_exception@@@Z@__crt_state_management@@QAEXQ6AHPAU_exception@@@Z@Z 1004a4a0 f i libucrt:matherr.obj
 0001:000494c6       ?value@?$dual_state_global@P6AHPAU_exception@@@Z@__crt_state_management@@QAEAAP6AHPAU_exception@@@ZXZ 1004a4c6 f i libucrt:matherr.obj
 0001:000494c9       ___acrt_has_user_matherr   1004a4c9 f   libucrt:matherr.obj
 0001:000494e1       ___acrt_initialize_user_matherr 1004a4e1 f   libucrt:matherr.obj
 0001:000494f0       ___acrt_invoke_user_matherr 1004a4f0 f   libucrt:matherr.obj
 0001:00049522       ___setusermatherr          1004a522 f   libucrt:matherr.obj
 0001:00049537       ??$?RU__acrt_ptd@@@__crt_internal_free_policy@@QBEXQBU__acrt_ptd@@@Z 1004a537 f i libucrt:per_thread_data.obj
 0001:00049823       ??0?$__crt_unique_heap_ptr@U__acrt_ptd@@U__crt_internal_free_policy@@@@QAE@QAU__acrt_ptd@@@Z 1004a823 f i libucrt:per_thread_data.obj
 0001:00049833       ??0__crt_scoped_get_last_error_reset@@QAE@XZ 1004a833 f i libucrt:per_thread_data.obj
 0001:00049844       ??1?$__crt_unique_heap_ptr@U__acrt_ptd@@U__crt_internal_free_policy@@@@QAE@XZ 1004a844 f i libucrt:per_thread_data.obj
 0001:00049856       ??1__crt_scoped_get_last_error_reset@@QAE@XZ 1004a856 f i libucrt:per_thread_data.obj
 0001:0004985f       ??B?$__crt_unique_heap_ptr@U__acrt_ptd@@U__crt_internal_free_policy@@@@QBE_NXZ 1004a85f f i libucrt:per_thread_data.obj
 0001:000499ad       ?dangerous_get_state_array@?$dual_state_global@PAU__crt_locale_data@@@__crt_state_management@@QAEPAPAU__crt_locale_data@@XZ 1004a9ad f i libucrt:per_thread_data.obj
 0001:00049aa3       ?detach@?$__crt_unique_heap_ptr@U__acrt_ptd@@U__crt_internal_free_policy@@@@QAEPAU__acrt_ptd@@XZ 1004aaa3 f i libucrt:per_thread_data.obj
 0001:00049aa9       ?get@?$__crt_unique_heap_ptr@U__acrt_ptd@@U__crt_internal_free_policy@@@@QBEPAU__acrt_ptd@@XZ 1004aaa9 f i libucrt:per_thread_data.obj
 0001:00049aac       ?get_current_state_index@__crt_state_management@@YAIABV__crt_scoped_get_last_error_reset@@@Z 1004aaac f i libucrt:per_thread_data.obj
 0001:00049be1       ?is_valid@?$__crt_unique_heap_ptr@U__acrt_ptd@@U__crt_internal_free_policy@@@@QBE_NXZ 1004abe1 f i libucrt:per_thread_data.obj
 0001:00049be8       ?release@?$__crt_unique_heap_ptr@U__acrt_ptd@@U__crt_internal_free_policy@@@@QAEXXZ 1004abe8 f i libucrt:per_thread_data.obj
 0001:00049c5c       ?value@?$dual_state_global@PAU__crt_locale_data@@@__crt_state_management@@QAEAAPAU__crt_locale_data@@XZ 1004ac5c f i libucrt:per_thread_data.obj
 0001:00049c5f       ___acrt_freeptd            1004ac5f f   libucrt:per_thread_data.obj
 0001:00049c8b       ___acrt_getptd             1004ac8b f   libucrt:per_thread_data.obj
 0001:00049d48       ___acrt_getptd_head        1004ad48 f   libucrt:per_thread_data.obj
 0001:00049de2       ___acrt_getptd_noexit      1004ade2 f   libucrt:per_thread_data.obj
 0001:00049e97       ___acrt_initialize_ptd     1004ae97 f   libucrt:per_thread_data.obj
 0001:00049ec3       ___acrt_uninitialize_ptd   1004aec3 f   libucrt:per_thread_data.obj
 0001:00049edd       ___threadhandle            1004aedd f   libucrt:per_thread_data.obj
 0001:00049ee3       ___threadid                1004aee3 f   libucrt:per_thread_data.obj
 0001:00049ee9       ___acrt_initialize_locks   1004aee9 f   libucrt:locks.obj
 0001:00049f2a       ___acrt_lock               1004af2a f   libucrt:locks.obj
 0001:00049f41       ___acrt_uninitialize_locks 1004af41 f   libucrt:locks.obj
 0001:00049f72       ___acrt_unlock             1004af72 f   libucrt:locks.obj
 0001:00049f89       __lock_locales             1004af89 f   libucrt:locks.obj
 0001:00049f97       __unlock_locales           1004af97 f   libucrt:locks.obj
 0001:0004a147       ___acrt_get_begin_thread_init_policy 1004b147 f   libucrt:win_policies.obj
 0001:0004a18b       ___acrt_get_developer_information_policy 1004b18b f   libucrt:win_policies.obj
 0001:0004a1cf       ___acrt_get_process_end_policy 1004b1cf f   libucrt:win_policies.obj
 0001:0004a200       ___acrt_get_windowing_model_policy 1004b200 f   libucrt:win_policies.obj
 0001:0004a25c       ??$__crt_fast_decode_pointer@P6AXPB_W00II@Z@@YAP6AXPB_W00II@ZQ6AX000II@Z@Z 1004b25c f i libucrt:invalid_parameter.obj
 0001:0004a272       ??$__crt_fast_encode_pointer@P6AXPB_W00II@Z@@YAP6AXPB_W00II@ZQ6AX000II@Z@Z 1004b272 f i libucrt:invalid_parameter.obj
 0001:0004a291       ??$initialize_from_array@$$BY00Q6AXPB_W00II@Z@?$dual_state_global@P6AXPB_W00II@Z@__crt_state_management@@QAAXAAY00Q6AXPB_W00II@Z@Z 1004b291 f i libucrt:invalid_parameter.obj
 0001:0004a2a2       ?dangerous_get_state_array@?$dual_state_global@P6AXPB_W00II@Z@__crt_state_management@@QAEPAP6AXPB_W00II@ZXZ 1004b2a2 f i libucrt:invalid_parameter.obj
 0001:0004a2a5       ?value@?$dual_state_global@P6AXPB_W00II@Z@__crt_state_management@@QAEAAP6AXPB_W00II@ZXZ 1004b2a5 f i libucrt:invalid_parameter.obj
 0001:0004a2a8       ___acrt_call_reportfault   1004b2a8 f   libucrt:invalid_parameter.obj
 0001:0004a3e1       ___acrt_initialize_invalid_parameter_handler 1004b3e1 f   libucrt:invalid_parameter.obj
 0001:0004a3f0       __get_invalid_parameter_handler 1004b3f0 f   libucrt:invalid_parameter.obj
 0001:0004a403       __get_thread_local_invalid_parameter_handler 1004b403 f   libucrt:invalid_parameter.obj
 0001:0004a414       __invalid_parameter        1004b414 f   libucrt:invalid_parameter.obj
 0001:0004a478       __invalid_parameter_noinfo 1004b478 f   libucrt:invalid_parameter.obj
 0001:0004a488       __invalid_parameter_noinfo_noreturn 1004b488 f   libucrt:invalid_parameter.obj
 0001:0004a4a5       __invoke_watson            1004b4a5 f   libucrt:invalid_parameter.obj
 0001:0004a4d9       __set_invalid_parameter_handler 1004b4d9 f   libucrt:invalid_parameter.obj
 0001:0004a509       __set_thread_local_invalid_parameter_handler 1004b509 f   libucrt:invalid_parameter.obj
 0001:0004a526       __calloc_base              1004b526 f   libucrt:calloc_base.obj
 0001:0004a734       ??$__acrt_mbs_to_wcs_cp@U__crt_win32_buffer_internal_dynamic_resizing@@@@YAHQBDAAV?$__crt_win32_buffer@_WU__crt_win32_buffer_internal_dynamic_resizing@@@@I@Z 1004b734 f i libucrt:argv_wildcards.obj
 0001:0004a751       ??$__acrt_wcs_to_mbs_cp@U__crt_win32_buffer_internal_dynamic_resizing@@@@YAHQB_WAAV?$__crt_win32_buffer@DU__crt_win32_buffer_internal_dynamic_resizing@@@@I@Z 1004b751 f i libucrt:argv_wildcards.obj
 0001:0004b0b3       ??$tcslen@ABQBD@?$__crt_char_traits@D@@SAIABQBD@Z 1004c0b3 f i libucrt:argv_wildcards.obj
 0001:0004b0cb       ??$tcslen@ABQB_W@?$__crt_char_traits@_W@@SAIABQB_W@Z 1004c0cb f i libucrt:argv_wildcards.obj
 0001:0004b0e9       ??$tcsncpy_s@AAPADIAAPADABI@?$__crt_char_traits@D@@SAHAAPAD$$QAI0ABI@Z 1004c0e9 f i libucrt:argv_wildcards.obj
 0001:0004b10c       ??$tcsncpy_s@AAPA_WIAAPA_WABI@?$__crt_char_traits@_W@@SAHAAPA_W$$QAI0ABI@Z 1004c10c f i libucrt:argv_wildcards.obj
 0001:0004b12f       ??$tcsncpy_s@PADABIABQBDABI@?$__crt_char_traits@D@@SAH$$QAPADABIABQBD1@Z 1004c12f f i libucrt:argv_wildcards.obj
 0001:0004b152       ??$tcsncpy_s@PADIABQBDABI@?$__crt_char_traits@D@@SAH$$QAPAD$$QAIABQBDABI@Z 1004c152 f i libucrt:argv_wildcards.obj
 0001:0004b175       ??$tcsncpy_s@PA_WABIABQB_WABI@?$__crt_char_traits@_W@@SAH$$QAPA_WABIABQB_W1@Z 1004c175 f i libucrt:argv_wildcards.obj
 0001:0004b198       ??$tcsncpy_s@PA_WIABQB_WABI@?$__crt_char_traits@_W@@SAH$$QAPA_W$$QAIABQB_WABI@Z 1004c198 f i libucrt:argv_wildcards.obj
 0001:0004b1bb       ??$tcspbrk@AAPADAAY02$$CBD@?$__crt_char_traits@D@@SAPADAAPADAAY02$$CBD@Z 1004c1bb f i libucrt:argv_wildcards.obj
 0001:0004b1d1       ??$tcspbrk@AAPA_WAAY02$$CB_W@?$__crt_char_traits@_W@@SAPA_WAAPA_WAAY02$$CB_W@Z 1004c1d1 f i libucrt:argv_wildcards.obj
 0001:0004b1e7       ??0?$__crt_unique_handle_t@U__crt_findfile_traits@@@@QAE@QAX@Z 1004c1e7 f i libucrt:argv_wildcards.obj
 0001:0004b1f7       ??0?$__crt_win32_buffer@DU__crt_win32_buffer_internal_dynamic_resizing@@@@QAE@XZ 1004c1f7 f i libucrt:argv_wildcards.obj
 0001:0004b20d       ??0?$__crt_win32_buffer@_WU__crt_win32_buffer_internal_dynamic_resizing@@@@QAE@XZ 1004c20d f i libucrt:argv_wildcards.obj
 0001:0004b23d       ??1?$__crt_unique_handle_t@U__crt_findfile_traits@@@@QAE@XZ 1004c23d f i libucrt:argv_wildcards.obj
 0001:0004b254       ??1?$__crt_win32_buffer@DU__crt_win32_buffer_internal_dynamic_resizing@@@@QAE@XZ 1004c254 f i libucrt:argv_wildcards.obj
 0001:0004b259       ??1?$__crt_win32_buffer@_WU__crt_win32_buffer_internal_dynamic_resizing@@@@QAE@XZ 1004c259 f i libucrt:argv_wildcards.obj
 0001:0004b377       ?__acrt_get_utf8_acp_compatibility_codepage@@YAIXZ 1004c377 f i libucrt:argv_wildcards.obj
 0001:0004b3b6       ?_deallocate@?$__crt_win32_buffer@DU__crt_win32_buffer_internal_dynamic_resizing@@@@AAEXXZ 1004c3b6 f i libucrt:argv_wildcards.obj
 0001:0004b3d0       ?_deallocate@?$__crt_win32_buffer@_WU__crt_win32_buffer_internal_dynamic_resizing@@@@AAEXXZ 1004c3d0 f i libucrt:argv_wildcards.obj
 0001:0004b3ea       ?allocate@?$__crt_win32_buffer@DU__crt_win32_buffer_internal_dynamic_resizing@@@@QAEHI@Z 1004c3ea f i libucrt:argv_wildcards.obj
 0001:0004b426       ?allocate@?$__crt_win32_buffer@_WU__crt_win32_buffer_internal_dynamic_resizing@@@@QAEHI@Z 1004c426 f i libucrt:argv_wildcards.obj
 0001:0004b465       ?allocate@__crt_win32_buffer_internal_dynamic_resizing@@SAHQAPAXIABV__crt_win32_buffer_empty_debug_info@@@Z 1004c465 f i libucrt:argv_wildcards.obj
 0001:0004b4f4       ?capacity@?$__crt_win32_buffer@DU__crt_win32_buffer_internal_dynamic_resizing@@@@QBEIXZ 1004c4f4 f i libucrt:argv_wildcards.obj
 0001:0004b4f8       ?capacity@?$__crt_win32_buffer@_WU__crt_win32_buffer_internal_dynamic_resizing@@@@QBEIXZ 1004c4f8 f i libucrt:argv_wildcards.obj
 0001:0004b4fc       ?close@?$__crt_unique_handle_t@U__crt_findfile_traits@@@@QAEXXZ 1004c4fc f i libucrt:argv_wildcards.obj
 0001:0004b513       ?close@__crt_findfile_traits@@SA_NPAX@Z 1004c513 f i libucrt:argv_wildcards.obj
 0001:0004b528       ?data@?$__crt_win32_buffer@DU__crt_win32_buffer_internal_dynamic_resizing@@@@QAEPADXZ 1004c528 f i libucrt:argv_wildcards.obj
 0001:0004b52c       ?data@?$__crt_win32_buffer@_WU__crt_win32_buffer_internal_dynamic_resizing@@@@QAEPA_WXZ 1004c52c f i libucrt:argv_wildcards.obj
 0001:0004b530       ?deallocate@__crt_win32_buffer_internal_dynamic_resizing@@SAXQAXABV__crt_win32_buffer_empty_debug_info@@@Z 1004c530 f i libucrt:argv_wildcards.obj
 0001:0004b540       ?debug_info@?$__crt_win32_buffer@DU__crt_win32_buffer_internal_dynamic_resizing@@@@QBEABV__crt_win32_buffer_empty_debug_info@@XZ 1004c540 f i libucrt:argv_wildcards.obj
 0001:0004b543       ?debug_info@?$__crt_win32_buffer@_WU__crt_win32_buffer_internal_dynamic_resizing@@@@QBEABV__crt_win32_buffer_empty_debug_info@@XZ 1004c543 f i libucrt:argv_wildcards.obj
 0001:0004b65c       ?get@?$__crt_unique_handle_t@U__crt_findfile_traits@@@@QBEPAXXZ 1004c65c f i libucrt:argv_wildcards.obj
 0001:0004b692       ?get_invalid_value@__crt_findfile_traits@@SAPAXXZ 1004c692 f i libucrt:argv_wildcards.obj
 0001:0004b6e1       ?set_to_nullptr@?$__crt_win32_buffer@DU__crt_win32_buffer_internal_dynamic_resizing@@@@QAEXXZ 1004c6e1 f i libucrt:argv_wildcards.obj
 0001:0004b6f8       ?set_to_nullptr@?$__crt_win32_buffer@_WU__crt_win32_buffer_internal_dynamic_resizing@@@@QAEXXZ 1004c6f8 f i libucrt:argv_wildcards.obj
 0001:0004b70f       ?size@?$__crt_win32_buffer@DU__crt_win32_buffer_internal_dynamic_resizing@@@@QAEXI@Z 1004c70f f i libucrt:argv_wildcards.obj
 0001:0004b71e       ?size@?$__crt_win32_buffer@_WU__crt_win32_buffer_internal_dynamic_resizing@@@@QAEXI@Z 1004c71e f i libucrt:argv_wildcards.obj
 0001:0004b73f       ?strpbrk@@YAPADQADQBD@Z    1004c73f f i libucrt:argv_wildcards.obj
 0001:0004b74a       ?wcspbrk@@YAPA_WPA_WPB_W@Z 1004c74a f i libucrt:argv_wildcards.obj
 0001:0004b755       ___acrt_expand_narrow_argv_wildcards 1004c755 f   libucrt:argv_wildcards.obj
 0001:0004b760       ___acrt_expand_wide_argv_wildcards 1004c760 f   libucrt:argv_wildcards.obj
 0001:0004b832       ??$__acrt_wcs_to_mbs_cp@U__crt_win32_buffer_no_resizing@@@@YAHQB_WAAV?$__crt_win32_buffer@DU__crt_win32_buffer_no_resizing@@@@I@Z 1004c832 f i libucrt:getmodulefilenamea.obj
 0001:0004b84f       ??0?$__crt_win32_buffer@DU__crt_win32_buffer_no_resizing@@@@QAE@QADI@Z 1004c84f f i libucrt:getmodulefilenamea.obj
 0001:0004b873       ??1?$__crt_win32_buffer@DU__crt_win32_buffer_no_resizing@@@@QAE@XZ 1004c873 f i libucrt:getmodulefilenamea.obj
 0001:0004b8a2       ?_deallocate@?$__crt_win32_buffer@DU__crt_win32_buffer_no_resizing@@@@AAEXXZ 1004c8a2 f i libucrt:getmodulefilenamea.obj
 0001:0004b8ad       ?allocate@?$__crt_win32_buffer@DU__crt_win32_buffer_no_resizing@@@@QAEHI@Z 1004c8ad f i libucrt:getmodulefilenamea.obj
 0001:0004b8d4       ?allocate@__crt_win32_buffer_no_resizing@@SAHQAPAXIABV__crt_win32_buffer_empty_debug_info@@@Z 1004c8d4 f i libucrt:getmodulefilenamea.obj
 0001:0004b8e1       ?capacity@?$__crt_win32_buffer@DU__crt_win32_buffer_no_resizing@@@@QBEIXZ 1004c8e1 f i libucrt:getmodulefilenamea.obj
 0001:0004b8e5       ?data@?$__crt_win32_buffer@DU__crt_win32_buffer_no_resizing@@@@QAEPADXZ 1004c8e5 f i libucrt:getmodulefilenamea.obj
 0001:0004b8e9       ?deallocate@__crt_win32_buffer_no_resizing@@SAXQAXABV__crt_win32_buffer_empty_debug_info@@@Z 1004c8e9 f i libucrt:getmodulefilenamea.obj
 0001:0004b8ec       ?debug_info@?$__crt_win32_buffer@DU__crt_win32_buffer_no_resizing@@@@QBEABV__crt_win32_buffer_empty_debug_info@@XZ 1004c8ec f i libucrt:getmodulefilenamea.obj
 0001:0004b8ef       ?set_to_nullptr@?$__crt_win32_buffer@DU__crt_win32_buffer_no_resizing@@@@QAEXXZ 1004c8ef f i libucrt:getmodulefilenamea.obj
 0001:0004b903       ?size@?$__crt_win32_buffer@DU__crt_win32_buffer_no_resizing@@@@QAEXI@Z 1004c903 f i libucrt:getmodulefilenamea.obj
 0001:0004b912       ?size@?$__crt_win32_buffer@DU__crt_win32_buffer_no_resizing@@@@QBEIXZ 1004c912 f i libucrt:getmodulefilenamea.obj
 0001:0004b916       ___acrt_GetModuleFileNameA 1004c916 f   libucrt:getmodulefilenamea.obj
 0001:0004b9b7       ??$?RU__crt_multibyte_data@@@__crt_internal_free_policy@@QBEXQBU__crt_multibyte_data@@@Z 1004c9b7 f i libucrt:mbctype.obj
 0001:0004ba3c       ??$initialize_from_array@$$BY10BAA@E@?$dual_state_global@PAE@__crt_state_management@@QAAXAAY10BAA@E@Z 1004ca3c f i libucrt:mbctype.obj
 0001:0004ba4b       ??$initialize_from_array@$$BY10BAB@E@?$dual_state_global@PAE@__crt_state_management@@QAAXAAY10BAB@E@Z 1004ca4b f i libucrt:mbctype.obj
 0001:0004ba94       ??0?$__crt_unique_heap_ptr@U__crt_multibyte_data@@U__crt_internal_free_policy@@@@QAE@QAU__crt_multibyte_data@@@Z 1004ca94 f i libucrt:mbctype.obj
 0001:0004baa4       ??1?$__crt_unique_heap_ptr@U__crt_multibyte_data@@U__crt_internal_free_policy@@@@QAE@XZ 1004caa4 f i libucrt:mbctype.obj
 0001:0004bab6       ??B?$__crt_unique_heap_ptr@U__crt_multibyte_data@@U__crt_internal_free_policy@@@@QBE_NXZ 1004cab6 f i libucrt:mbctype.obj
 0001:0004bb90       ?dangerous_get_state_array@?$dual_state_global@PAE@__crt_state_management@@QAEPAPAEXZ 1004cb90 f i libucrt:mbctype.obj
 0001:0004bb93       ?dangerous_get_state_array@?$dual_state_global@PAU__crt_multibyte_data@@@__crt_state_management@@QAEPAPAU__crt_multibyte_data@@XZ 1004cb93 f i libucrt:mbctype.obj
 0001:0004bb96       ?detach@?$__crt_unique_heap_ptr@U__crt_multibyte_data@@U__crt_internal_free_policy@@@@QAEPAU__crt_multibyte_data@@XZ 1004cb96 f i libucrt:mbctype.obj
 0001:0004bb9c       ?get@?$__crt_unique_heap_ptr@U__crt_multibyte_data@@U__crt_internal_free_policy@@@@QBEPAU__crt_multibyte_data@@XZ 1004cb9c f i libucrt:mbctype.obj
 0001:0004bc10       ?initialize@?$dual_state_global@PAU__crt_multibyte_data@@@__crt_state_management@@QAEXQAU__crt_multibyte_data@@@Z 1004cc10 f i libucrt:mbctype.obj
 0001:0004bc36       ?is_valid@?$__crt_unique_heap_ptr@U__crt_multibyte_data@@U__crt_internal_free_policy@@@@QBE_NXZ 1004cc36 f i libucrt:mbctype.obj
 0001:0004bc3d       ?release@?$__crt_unique_heap_ptr@U__crt_multibyte_data@@U__crt_internal_free_policy@@@@QAEXXZ 1004cc3d f i libucrt:mbctype.obj
 0001:0004bfee       ?value@?$dual_state_global@PAE@__crt_state_management@@QAEAAPAEXZ 1004cfee f i libucrt:mbctype.obj
 0001:0004bff1       ?value@?$dual_state_global@PAU__crt_multibyte_data@@@__crt_state_management@@QAEAAPAU__crt_multibyte_data@@XZ 1004cff1 f i libucrt:mbctype.obj
 0001:0004bff5       ___acrt_initialize_multibyte 1004cff5 f   libucrt:mbctype.obj
 0001:0004c03d       ___acrt_update_thread_multibyte_data 1004d03d f   libucrt:mbctype.obj
 0001:0004c050       ___p__mbcasemap            1004d050 f   libucrt:mbctype.obj
 0001:0004c056       ___p__mbctype              1004d056 f   libucrt:mbctype.obj
 0001:0004c05c       __getmbcp                  1004d05c f   libucrt:mbctype.obj
 0001:0004c090       __setmbcp                  1004d090 f   libucrt:mbctype.obj
 0001:0004c0af       __setmbcp_nolock           1004d0af f   libucrt:mbctype.obj
 0001:0004c37a       __ismbbalnum               1004d37a f   libucrt:ismbbyte.obj
 0001:0004c395       __ismbbalnum_l             1004d395 f   libucrt:ismbbyte.obj
 0001:0004c3b1       __ismbbalpha               1004d3b1 f   libucrt:ismbbyte.obj
 0001:0004c3cc       __ismbbalpha_l             1004d3cc f   libucrt:ismbbyte.obj
 0001:0004c3e8       __ismbbblank               1004d3e8 f   libucrt:ismbbyte.obj
 0001:0004c40b       __ismbbblank_l             1004d40b f   libucrt:ismbbyte.obj
 0001:0004c42f       __ismbbgraph               1004d42f f   libucrt:ismbbyte.obj
 0001:0004c44a       __ismbbgraph_l             1004d44a f   libucrt:ismbbyte.obj
 0001:0004c466       __ismbbkalnum              1004d466 f   libucrt:ismbbyte.obj
 0001:0004c47e       __ismbbkalnum_l            1004d47e f   libucrt:ismbbyte.obj
 0001:0004c497       __ismbbkana                1004d497 f   libucrt:ismbbyte.obj
 0001:0004c4aa       __ismbbkana_l              1004d4aa f   libucrt:ismbbyte.obj
 0001:0004c4f9       __ismbbkprint              1004d4f9 f   libucrt:ismbbyte.obj
 0001:0004c511       __ismbbkprint_l            1004d511 f   libucrt:ismbbyte.obj
 0001:0004c52a       __ismbbkpunct              1004d52a f   libucrt:ismbbyte.obj
 0001:0004c542       __ismbbkpunct_l            1004d542 f   libucrt:ismbbyte.obj
 0001:0004c55b       __ismbblead                1004d55b f   libucrt:ismbbyte.obj
 0001:0004c573       __ismbblead_l              1004d573 f   libucrt:ismbbyte.obj
 0001:0004c58c       __ismbbprint               1004d58c f   libucrt:ismbbyte.obj
 0001:0004c5a7       __ismbbprint_l             1004d5a7 f   libucrt:ismbbyte.obj
 0001:0004c5c3       __ismbbpunct               1004d5c3 f   libucrt:ismbbyte.obj
 0001:0004c5db       __ismbbpunct_l             1004d5db f   libucrt:ismbbyte.obj
 0001:0004c5f4       __ismbbtrail               1004d5f4 f   libucrt:ismbbyte.obj
 0001:0004c60c       __ismbbtrail_l             1004d60c f   libucrt:ismbbyte.obj
 0001:0004c625       ___acrt_initialize_command_line 1004d625 f   libucrt:argv_data.obj
 0001:0004c63e       ___acrt_uninitialize_command_line 1004d63e f   libucrt:argv_data.obj
 0001:0004c641       ___p___argc                1004d641 f   libucrt:argv_data.obj
 0001:0004c647       ___p___argv                1004d647 f   libucrt:argv_data.obj
 0001:0004c64d       ___p___wargv               1004d64d f   libucrt:argv_data.obj
 0001:0004c653       ___p__acmdln               1004d653 f   libucrt:argv_data.obj
 0001:0004c659       ___p__pgmptr               1004d659 f   libucrt:argv_data.obj
 0001:0004c65f       ___p__wcmdln               1004d65f f   libucrt:argv_data.obj
 0001:0004c665       ___p__wpgmptr              1004d665 f   libucrt:argv_data.obj
 0001:0004c66b       __get_pgmptr               1004d66b f   libucrt:argv_data.obj
 0001:0004c69c       __get_wpgmptr              1004d69c f   libucrt:argv_data.obj
 0001:0004c72d       _wcscpy_s                  1004d72d f   libucrt:wcscpy_s.obj
 0001:0004c7f9       ___acrt_MultiByteToWideChar 1004d7f9 f   libucrt:multibytetowidechar.obj
 0001:0004c8da       ___acrt_WideCharToMultiByte 1004d8da f   libucrt:widechartomultibyte.obj
 0001:0004ca22       ___dcrt_get_narrow_environment_from_os 1004da22 f   libucrt:get_environment_from_os.obj
 0001:0004caa6       ___dcrt_get_wide_environment_from_os 1004daa6 f   libucrt:get_environment_from_os.obj
 0001:0004d1d6       ??$get_or_create_environment_nolock@$$V@?$__crt_char_traits@D@@SAPAPADXZ 1004e1d6 f i libucrt:setenv.obj
 0001:0004d1db       ??$get_or_create_environment_nolock@$$V@?$__crt_char_traits@_W@@SAPAPA_WXZ 1004e1db f i libucrt:setenv.obj
 0001:0004d1e0       ??$set_environment_variable@ABQADQAD@?$__crt_char_traits@D@@SAHABQAD$$QBQAD@Z 1004e1e0 f i libucrt:setenv.obj
 0001:0004d1f8       ??$set_environment_variable@ABQA_WQA_W@?$__crt_char_traits@_W@@SAHABQA_W$$QBQA_W@Z 1004e1f8 f i libucrt:setenv.obj
 0001:0004d20f       ??$tcschr@ABQADD@?$__crt_char_traits@D@@SAPADABQAD$$QAD@Z 1004e20f f i libucrt:setenv.obj
 0001:0004d229       ??$tcschr@ABQA_WD@?$__crt_char_traits@_W@@SAPA_WABQA_W$$QAD@Z 1004e229 f i libucrt:setenv.obj
 0001:0004d247       ??$tcscpy_s@AAPADABIAAPAD@?$__crt_char_traits@D@@SAHAAPADABI0@Z 1004e247 f i libucrt:setenv.obj
 0001:0004d265       ??$tcscpy_s@AAPA_WABIAAPA_W@?$__crt_char_traits@_W@@SAHAAPA_WABI0@Z 1004e265 f i libucrt:setenv.obj
 0001:0004d283       ??$tcscpy_s@ABQADABIABQAD@?$__crt_char_traits@D@@SAHABQADABI0@Z 1004e283 f i libucrt:setenv.obj
 0001:0004d2a1       ??$tcscpy_s@ABQA_WABIABQA_W@?$__crt_char_traits@_W@@SAHABQA_WABI0@Z 1004e2a1 f i libucrt:setenv.obj
 0001:0004d2bf       ??$tcslen@ABQAD@?$__crt_char_traits@D@@SAIABQAD@Z 1004e2bf f i libucrt:setenv.obj
 0001:0004d2d7       ??$tcslen@ABQA_W@?$__crt_char_traits@_W@@SAIABQA_W@Z 1004e2d7 f i libucrt:setenv.obj
 0001:0004d2f5       ??$tcsnicoll@ABQBDAAPADABI@?$__crt_char_traits@D@@SAHABQBDAAPADABI@Z 1004e2f5 f i libucrt:setenv.obj
 0001:0004d313       ??$tcsnicoll@ABQB_WAAPA_WABI@?$__crt_char_traits@_W@@SAHABQB_WAAPA_WABI@Z 1004e313 f i libucrt:setenv.obj
 0001:0004d355       ?strchr@@YAPADQADH@Z       1004e355 f i libucrt:setenv.obj
 0001:0004d360       ?wcschr@@YAPA_WPA_W_W@Z    1004e360 f i libucrt:setenv.obj
 0001:0004d36b       ___dcrt_set_variable_in_narrow_environment_nolock 1004e36b f   libucrt:setenv.obj
 0001:0004d376       ___dcrt_set_variable_in_wide_environment_nolock 1004e376 f   libucrt:setenv.obj
 0001:0004d381       __recalloc                 1004e381 f   libucrt:recalloc.obj
 0001:0004d38c       __recalloc_base            1004e38c f   libucrt:recalloc.obj
 0001:0004d406       ??$?B$$A6GHPA_WKJ@Z@__crt_fast_encoded_nullptr_t@@QBEP6GHPA_WKJ@ZXZ 1004e406 f i libucrt:winapi_thunks.obj
 0001:0004d4ae       ??$__crt_fast_decode_pointer@P6GHPA_WKJ@Z@@YAP6GHPA_WKJ@ZQ6GH0KJ@Z@Z 1004e4ae f i libucrt:winapi_thunks.obj
 0001:0004d4c4       ??$__crt_fast_decode_pointer@PAX@@YAPAXQAX@Z 1004e4c4 f i libucrt:winapi_thunks.obj
 0001:0004d4da       ??$__crt_fast_encode_pointer@P6GHPA_WKJ@Z@@YAP6GHPA_WKJ@ZQ6GH0KJ@Z@Z 1004e4da f i libucrt:winapi_thunks.obj
 0001:0004db66       _GetCurrentThreadEffectiveToken 1004eb66 f i libucrt:winapi_thunks.obj
 0001:0004db6a       ___acrt_AppPolicyGetProcessTerminationMethodInternal@4 1004eb6a f   libucrt:winapi_thunks.obj
 0001:0004dbaa       ___acrt_AppPolicyGetShowDeveloperDiagnosticInternal@4 1004ebaa f   libucrt:winapi_thunks.obj
 0001:0004dbea       ___acrt_AppPolicyGetThreadInitializationTypeInternal@4 1004ebea f   libucrt:winapi_thunks.obj
 0001:0004dc2a       ___acrt_AppPolicyGetWindowingModelInternal@4 1004ec2a f   libucrt:winapi_thunks.obj
 0001:0004dc6a       ___acrt_AreFileApisANSI@0  1004ec6a f   libucrt:winapi_thunks.obj
 0001:0004dc89       ___acrt_CompareStringEx@36 1004ec89 f   libucrt:winapi_thunks.obj
 0001:0004dce6       ___acrt_EnumSystemLocalesEx@16 1004ece6 f   libucrt:winapi_thunks.obj
 0001:0004dd3a       ___acrt_FlsAlloc@4         1004ed3a f   libucrt:winapi_thunks.obj
 0001:0004dd79       ___acrt_FlsFree@4          1004ed79 f   libucrt:winapi_thunks.obj
 0001:0004ddb8       ___acrt_FlsGetValue@4      1004edb8 f   libucrt:winapi_thunks.obj
 0001:0004ddf7       ___acrt_FlsSetValue@8      1004edf7 f   libucrt:winapi_thunks.obj
 0001:0004de39       ___acrt_GetDateFormatEx@28 1004ee39 f   libucrt:winapi_thunks.obj
 0001:0004de90       ___acrt_GetEnabledXStateFeatures@0 1004ee90 f   libucrt:winapi_thunks.obj
 0001:0004dec4       ___acrt_GetLocaleInfoEx@16 1004eec4 f   libucrt:winapi_thunks.obj
 0001:0004df03       ___acrt_GetSystemTimePreciseAsFileTime@4 1004ef03 f   libucrt:winapi_thunks.obj
 0001:0004df42       ___acrt_GetTimeFormatEx@24 1004ef42 f   libucrt:winapi_thunks.obj
 0001:0004df87       ___acrt_GetUserDefaultLocaleName@8 1004ef87 f   libucrt:winapi_thunks.obj
 0001:0004dfc3       ___acrt_GetXStateFeaturesMask@8 1004efc3 f   libucrt:winapi_thunks.obj
 0001:0004e003       ___acrt_InitializeCriticalSectionEx@12 1004f003 f   libucrt:winapi_thunks.obj
 0001:0004e04e       ___acrt_IsValidLocaleName@4 1004f04e f   libucrt:winapi_thunks.obj
 0001:0004e086       ___acrt_LCIDToLocaleName@16 1004f086 f   libucrt:winapi_thunks.obj
 0001:0004e0c5       ___acrt_LCMapStringEx@36   1004f0c5 f   libucrt:winapi_thunks.obj
 0001:0004e122       ___acrt_LocaleNameToLCID@8 1004f122 f   libucrt:winapi_thunks.obj
 0001:0004e153       ___acrt_LocateXStateFeature@12 1004f153 f   libucrt:winapi_thunks.obj
 0001:0004e182       ___acrt_MessageBoxA@16     1004f182 f   libucrt:winapi_thunks.obj
 0001:0004e1b4       ___acrt_MessageBoxW@16     1004f1b4 f   libucrt:winapi_thunks.obj
 0001:0004e1e6       ___acrt_RoInitialize@4     1004f1e6 f   libucrt:winapi_thunks.obj
 0001:0004e221       ___acrt_RoUninitialize@0   1004f221 f   libucrt:winapi_thunks.obj
 0001:0004e24f       ___acrt_RtlGenRandom@8     1004f24f f   libucrt:winapi_thunks.obj
 0001:0004e28f       ___acrt_SetThreadStackGuarantee@4 1004f28f f   libucrt:winapi_thunks.obj
 0001:0004e2ca       ___acrt_can_show_message_box 1004f2ca f   libucrt:winapi_thunks.obj
 0001:0004e2f1       ___acrt_can_use_vista_locale_apis 1004f2f1 f   libucrt:winapi_thunks.obj
 0001:0004e2fc       ___acrt_can_use_xstate_apis 1004f2fc f   libucrt:winapi_thunks.obj
 0001:0004e307       ___acrt_eagerly_load_locale_apis 1004f307 f   libucrt:winapi_thunks.obj
 0001:0004e33e       ___acrt_get_parent_window  1004f33e f   libucrt:winapi_thunks.obj
 0001:0004e3a6       ___acrt_initialize_winapi_thunks 1004f3a6 f   libucrt:winapi_thunks.obj
 0001:0004e3d1       ___acrt_is_interactive     1004f3d1 f   libucrt:winapi_thunks.obj
 0001:0004e470       ___acrt_uninitialize_winapi_thunks 1004f470 f   libucrt:winapi_thunks.obj
 0001:0004e4a6       ___acrt_getheap            1004f4a6 f   libucrt:heap_handle.obj
 0001:0004e4ac       ___acrt_initialize_heap    1004f4ac f   libucrt:heap_handle.obj
 0001:0004e4bd       ___acrt_uninitialize_heap  1004f4bd f   libucrt:heap_handle.obj
 0001:0004e4c7       __get_heap_handle          1004f4c7 f   libucrt:heap_handle.obj
 0001:0004e659       ___acrt_initialize_lowio   1004f659 f   libucrt:ioinit.obj
 0001:0004e6b9       ___acrt_uninitialize_lowio 1004f6b9 f   libucrt:ioinit.obj
 0001:0004e6e5       ___acrt_execute_initializers 1004f6e5 f   libucrt:shared_initialization.obj
 0001:0004e74d       ___acrt_execute_uninitializers 1004f74d f   libucrt:shared_initialization.obj
 0001:0004e77e       ??$?B$$A6AHI@Z@__crt_fast_encoded_nullptr_t@@QBEP6AHI@ZXZ 1004f77e f i libucrt:new_handler.obj
 0001:0004e784       ??$__crt_fast_decode_pointer@P6AHI@Z@@YAP6AHI@ZQ6AHI@Z@Z 1004f784 f i libucrt:new_handler.obj
 0001:0004e79a       ??$__crt_fast_encode_pointer@P6AHI@Z@@YAP6AHI@ZQ6AHI@Z@Z 1004f79a f i libucrt:new_handler.obj
 0001:0004e7b9       ?_set_new_handler@@YAP6AHI@ZH@Z 1004f7b9 f   libucrt:new_handler.obj
 0001:0004e7c6       ?initialize@?$dual_state_global@P6AHI@Z@__crt_state_management@@QAEXQ6AHI@Z@Z 1004f7c6 f i libucrt:new_handler.obj
 0001:0004e7ec       ?value@?$dual_state_global@P6AHI@Z@__crt_state_management@@QAEAAP6AHI@ZXZ 1004f7ec f i libucrt:new_handler.obj
 0001:0004e7ef       ___acrt_initialize_new_handler 1004f7ef f   libucrt:new_handler.obj
 0001:0004e7fe       __callnewh                 1004f7fe f   libucrt:new_handler.obj
 0001:0004e82b       __query_new_handler        1004f82b f   libucrt:new_handler.obj
 0001:0004e887       __set_new_handler          1004f887 f   libucrt:new_handler.obj
 0001:0004e8f1       ??$?B$$A6AXH@Z@__crt_fast_encoded_nullptr_t@@QBEP6AXH@ZXZ 1004f8f1 f i libucrt:signal.obj
 0001:0004e981       ??$__crt_fast_decode_pointer@P6AXH@Z@@YAP6AXH@ZQ6AXH@Z@Z 1004f981 f i libucrt:signal.obj
 0001:0004e997       ??$__crt_fast_encode_pointer@P6AXH@Z@@YAP6AXH@ZQ6AXH@Z@Z 1004f997 f i libucrt:signal.obj
 0001:0004eaeb       ?initialize@?$dual_state_global@P6AXH@Z@__crt_state_management@@QAEXQ6AXH@Z@Z 1004faeb f i libucrt:signal.obj
 0001:0004eb9e       ?value@?$dual_state_global@P6AXH@Z@__crt_state_management@@QAEAAP6AXH@ZXZ 1004fb9e f i libucrt:signal.obj
 0001:0004eba1       ___acrt_get_sigabrt_handler 1004fba1 f   libucrt:signal.obj
 0001:0004ebc8       ___acrt_initialize_signal_handlers 1004fbc8 f   libucrt:signal.obj
 0001:0004ebe6       ___fpecode                 1004fbe6 f   libucrt:signal.obj
 0001:0004ebef       ___pxcptinfoptrs           1004fbef f   libucrt:signal.obj
 0001:0004ebf8       _raise                     1004fbf8 f   libucrt:signal.obj
 0001:0004edf3       _signal                    1004fdf3 f   libucrt:signal.obj
 0001:0004f276       ??0__crt_stdio_stream@@QAE@QAU__crt_stdio_stream_data@@@Z 10050276 f i libucrt:fflush.obj
 0001:0004f39a       ?__acrt_stdio_reset_buffer@@YAXV__crt_stdio_stream@@@Z 1005039a f i libucrt:fflush.obj
 0001:0004f430       ?has_all_of@__crt_stdio_stream@@QBE_NJ@Z 10050430 f i libucrt:fflush.obj
 0001:0004f498       ?set_flags@__crt_stdio_stream@@QBE_NJ@Z 10050498 f i libucrt:fflush.obj
 0001:0004f4bc       ?unset_flags@__crt_stdio_stream@@QBE_NJ@Z 100504bc f i libucrt:fflush.obj
 0001:0004f4e5       ___acrt_stdio_flush_nolock 100504e5 f   libucrt:fflush.obj
 0001:0004f54a       __fflush_nolock            1005054a f   libucrt:fflush.obj
 0001:0004f592       __flushall                 10050592 f   libucrt:fflush.obj
 0001:0004f59b       _fflush                    1005059b f   libucrt:fflush.obj
 0001:0004f5f0       ___p___mb_cur_max          100505f0 f   libucrt:nlsdata.obj
 0001:0004f615       ??$?RPAU__crt_stdio_stream_data@@@__crt_internal_free_policy@@QBEXQBQAU__crt_stdio_stream_data@@@Z 10050615 f i libucrt:_file.obj
 0001:0004f627       ??0?$__crt_unique_heap_ptr@PAU__crt_stdio_stream_data@@U__crt_internal_free_policy@@@@QAE@QAPAU__crt_stdio_stream_data@@@Z 10050627 f i libucrt:_file.obj
 0001:0004f637       ??1?$__crt_unique_heap_ptr@PAU__crt_stdio_stream_data@@U__crt_internal_free_policy@@@@QAE@XZ 10050637 f i libucrt:_file.obj
 0001:0004f649       ?detach@?$__crt_unique_heap_ptr@PAU__crt_stdio_stream_data@@U__crt_internal_free_policy@@@@QAEPAPAU__crt_stdio_stream_data@@XZ 10050649 f i libucrt:_file.obj
 0001:0004f64f       ?release@?$__crt_unique_heap_ptr@PAU__crt_stdio_stream_data@@U__crt_internal_free_policy@@@@QAEXXZ 1005064f f i libucrt:_file.obj
 0001:0004f661       ___acrt_initialize_stdio   10050661 f   libucrt:_file.obj
 0001:0004f729       ___acrt_iob_func           10050729 f   libucrt:_file.obj
 0001:0004f739       ___acrt_uninitialize_stdio 10050739 f   libucrt:_file.obj
 0001:0004f785       __get_stream_buffer_pointers 10050785 f   libucrt:_file.obj
 0001:0004f7cb       __lock_file                100507cb f   libucrt:_file.obj
 0001:0004f7df       __unlock_file              100507df f   libucrt:_file.obj
 0001:0004f7f3       ?has_any_buffer@__crt_stdio_stream@@QBE_NXZ 100507f3 f i libucrt:_sftbuf.obj
 0001:0004f802       ?has_any_of@__crt_stdio_stream@@QBE_NJ@Z 10050802 f i libucrt:_sftbuf.obj
 0001:0004f817       ?has_temporary_buffer@__crt_stdio_stream@@QBE_NXZ 10050817 f i libucrt:_sftbuf.obj
 0001:0004f823       ___acrt_stdio_begin_temporary_buffering_nolock 10050823 f   libucrt:_sftbuf.obj
 0001:0004f8d6       ___acrt_stdio_end_temporary_buffering_nolock 100508d6 f   libucrt:_sftbuf.obj
 0001:0004f910       __malloc_base              10050910 f   libucrt:malloc_base.obj
 0001:0004f95e       ??$make_c_string_character_source@DPAPAD@__crt_strtox@@YA?AV?$c_string_character_source@D@0@QBDQAPAD@Z 1005095e f i libucrt:strtox.obj
 0001:0004f979       ??$make_c_string_character_source@_WPAPA_W@__crt_strtox@@YA?AV?$c_string_character_source@_W@0@QB_WQAPA_W@Z 10050979 f i libucrt:strtox.obj
 0001:0004f994       ??$parse_integer_from_string@JDPAPAD@__crt_strtox@@YAJQBDQAPADHQAU__crt_locale_pointers@@@Z 10050994 f i libucrt:strtox.obj
 0001:0004f9bf       ??$parse_integer_from_string@J_WPAPA_W@__crt_strtox@@YAJQB_WQAPA_WHQAU__crt_locale_pointers@@@Z 100509bf f i libucrt:strtox.obj
 0001:0004f9ea       ??$parse_integer_from_string@KDPAPAD@__crt_strtox@@YAKQBDQAPADHQAU__crt_locale_pointers@@@Z 100509ea f i libucrt:strtox.obj
 0001:0004fa15       ??$parse_integer_from_string@K_WPAPA_W@__crt_strtox@@YAKQB_WQAPA_WHQAU__crt_locale_pointers@@@Z 10050a15 f i libucrt:strtox.obj
 0001:0004fa40       ??$parse_integer_from_string@_JDPAPAD@__crt_strtox@@YA_JQBDQAPADHQAU__crt_locale_pointers@@@Z 10050a40 f i libucrt:strtox.obj
 0001:0004fa6b       ??$parse_integer_from_string@_J_WPAPA_W@__crt_strtox@@YA_JQB_WQAPA_WHQAU__crt_locale_pointers@@@Z 10050a6b f i libucrt:strtox.obj
 0001:0004fa96       ??$parse_integer_from_string@_KDPAPAD@__crt_strtox@@YA_KQBDQAPADHQAU__crt_locale_pointers@@@Z 10050a96 f i libucrt:strtox.obj
 0001:0004fac1       ??$parse_integer_from_string@_K_WPAPA_W@__crt_strtox@@YA_KQB_WQAPA_WHQAU__crt_locale_pointers@@@Z 10050ac1 f i libucrt:strtox.obj
 0001:0004faec       __strtoi64                 10050aec f   libucrt:strtox.obj
 0001:0004fb16       __strtoi64_l               10050b16 f   libucrt:strtox.obj
 0001:0004fb41       __strtoimax_l              10050b41 f   libucrt:strtox.obj
 0001:0004fb6c       __strtol_l                 10050b6c f   libucrt:strtox.obj
 0001:0004fb97       __strtoll_l                10050b97 f   libucrt:strtox.obj
 0001:0004fbc2       __strtoui64                10050bc2 f   libucrt:strtox.obj
 0001:0004fbec       __strtoui64_l              10050bec f   libucrt:strtox.obj
 0001:0004fc17       __strtoul_l                10050c17 f   libucrt:strtox.obj
 0001:0004fc42       __strtoull_l               10050c42 f   libucrt:strtox.obj
 0001:0004fc6d       __strtoumax_l              10050c6d f   libucrt:strtox.obj
 0001:0004fc98       __wcstoi64                 10050c98 f   libucrt:strtox.obj
 0001:0004fcc2       __wcstoi64_l               10050cc2 f   libucrt:strtox.obj
 0001:0004fced       __wcstoimax_l              10050ced f   libucrt:strtox.obj
 0001:0004fd18       __wcstol_l                 10050d18 f   libucrt:strtox.obj
 0001:0004fd43       __wcstoll_l                10050d43 f   libucrt:strtox.obj
 0001:0004fd6e       __wcstoui64                10050d6e f   libucrt:strtox.obj
 0001:0004fd98       __wcstoui64_l              10050d98 f   libucrt:strtox.obj
 0001:0004fdc3       __wcstoul_l                10050dc3 f   libucrt:strtox.obj
 0001:0004fdee       __wcstoull_l               10050dee f   libucrt:strtox.obj
 0001:0004fe19       __wcstoumax_l              10050e19 f   libucrt:strtox.obj
 0001:0004fe44       _strtoimax                 10050e44 f   libucrt:strtox.obj
 0001:0004fe6e       _strtol                    10050e6e f   libucrt:strtox.obj
 0001:0004fe98       _strtoll                   10050e98 f   libucrt:strtox.obj
 0001:0004fec2       _strtoul                   10050ec2 f   libucrt:strtox.obj
 0001:0004feec       _strtoull                  10050eec f   libucrt:strtox.obj
 0001:0004ff16       _strtoumax                 10050f16 f   libucrt:strtox.obj
 0001:0004ff40       _wcstoimax                 10050f40 f   libucrt:strtox.obj
 0001:0004ff6a       _wcstol                    10050f6a f   libucrt:strtox.obj
 0001:0004ff94       _wcstoll                   10050f94 f   libucrt:strtox.obj
 0001:0004ffbe       _wcstoul                   10050fbe f   libucrt:strtox.obj
 0001:0004ffe8       _wcstoull                  10050fe8 f   libucrt:strtox.obj
 0001:00050012       _wcstoumax                 10051012 f   libucrt:strtox.obj
 0001:0005003c       __mbtowc_l                 1005103c f   libucrt:mbtowc.obj
 0001:0005017e       _mbtowc                    1005117e f   libucrt:mbtowc.obj
 0001:00050198       __wctomb_l                 10051198 f   libucrt:wctomb.obj
 0001:000501e9       __wctomb_s_l               100511e9 f   libucrt:wctomb.obj
 0001:00050344       _wctomb                    10051344 f   libucrt:wctomb.obj
 0001:00050376       _wctomb_s                  10051376 f   libucrt:wctomb.obj
 0001:00050b8e       ??1?$__crt_simd_cleanup_guard@$00@@QAE@XZ 10051b8e f i libucrt:strnlen.obj
 0001:00050b92       ??1?$__crt_simd_cleanup_guard@$0A@@@QAE@XZ 10051b92 f i libucrt:strnlen.obj
 0001:00050b95       ?compare_equals@?$__crt_simd_traits@$00E@@SA?AT__m256i@@T2@0@Z 10051b95 f i libucrt:strnlen.obj
 0001:00050b9a       ?compare_equals@?$__crt_simd_traits@$00G@@SA?AT__m256i@@T2@0@Z 10051b9a f i libucrt:strnlen.obj
 0001:00050b9f       ?compare_equals@?$__crt_simd_traits@$0A@E@@SA?AT__m128i@@T2@0@Z 10051b9f f i libucrt:strnlen.obj
 0001:00050ba4       ?compare_equals@?$__crt_simd_traits@$0A@G@@SA?AT__m128i@@T2@0@Z 10051ba4 f i libucrt:strnlen.obj
 0001:00050ba9       ?compute_byte_mask@?$__crt_simd_pack_traits@$00@@SAHT__m256i@@@Z 10051ba9 f i libucrt:strnlen.obj
 0001:00050bae       ?compute_byte_mask@?$__crt_simd_pack_traits@$0A@@@SAHT__m128i@@@Z 10051bae f i libucrt:strnlen.obj
 0001:00050bb3       ?get_zero_pack@?$__crt_simd_pack_traits@$00@@SA?AT__m256i@@XZ 10051bb3 f i libucrt:strnlen.obj
 0001:00050bb8       ?get_zero_pack@?$__crt_simd_pack_traits@$0A@@@SA?AT__m128i@@XZ 10051bb8 f i libucrt:strnlen.obj
 0001:00050bbc       _strnlen                   10051bbc f   libucrt:strnlen.obj
 0001:00050cde       _wcslen                    10051cde f   libucrt:strnlen.obj
 0001:00050e06       _wcsnlen                   10051e06 f   libucrt:strnlen.obj
 0001:00050fb6       ___acrt_update_locale_info 10051fb6 f   libucrt:locale_update.obj
 0001:00050fe3       ___acrt_update_multibyte_info 10051fe3 f   libucrt:locale_update.obj
 0001:00051010       ?__acrt_fp_classify@@YA?AW4__acrt_fp_class@@ABN@Z 10052010 f i libucrt:cvt.obj
 0001:00051072       ?__acrt_fp_is_negative@@YA_NABN@Z 10052072 f i libucrt:cvt.obj
 0001:00051874       ?strrchr@@YAPADQADH@Z      10052874 f i libucrt:cvt.obj
 0001:0005187f       ___acrt_fp_format          1005287f f   libucrt:cvt.obj
 0001:000519ea       __fputwc_nolock            100529ea f   libucrt:fputwc.obj
 0001:00051b13       __fputwchar                10052b13 f   libucrt:fputwc.obj
 0001:00051b2d       __putwc_nolock             10052b2d f   libucrt:fputwc.obj
 0001:00051b38       _fputwc                    10052b38 f   libucrt:fputwc.obj
 0001:00051bb6       _putwc                     10052bb6 f   libucrt:fputwc.obj
 0001:00051bc1       _putwchar                  10052bc1 f   libucrt:fputwc.obj
 0001:00051bcc       ?lowio_handle@__crt_stdio_stream@@QBEHXZ 10052bcc f i libucrt:fileno.obj
 0001:00051bd3       __fileno                   10052bd3 f   libucrt:fileno.obj
 0001:00051bfa       __fputc_nolock             10052bfa f   libucrt:fputc.obj
 0001:00051c23       __fputchar                 10052c23 f   libucrt:fputc.obj
 0001:00051c3d       __putc_nolock              10052c3d f   libucrt:fputc.obj
 0001:00051c48       _fputc                     10052c48 f   libucrt:fputc.obj
 0001:00051d52       _putc                      10052d52 f   libucrt:fputc.obj
 0001:00051d5d       _putchar                   10052d5d f   libucrt:fputc.obj
 0001:00051d68       __get_printf_count_output  10052d68 f   libucrt:printf_count_output.obj
 0001:00051d7d       __set_printf_count_output  10052d7d f   libucrt:printf_count_output.obj
 0001:00051daa       ??$?RU__crt_locale_data@@@__crt_internal_free_policy@@QBEXQBU__crt_locale_data@@@Z 10052daa f i libucrt:wsetlocale.obj
 0001:00051dbc       ??$?RU__crt_locale_pointers@@@__crt_internal_free_policy@@QBEXQBU__crt_locale_pointers@@@Z 10052dbc f i libucrt:wsetlocale.obj
 0001:00052165       ??0?$__crt_unique_heap_ptr@U__crt_locale_data@@U__crt_internal_free_policy@@@@QAE@QAU__crt_locale_data@@@Z 10053165 f i libucrt:wsetlocale.obj
 0001:00052175       ??0?$__crt_unique_heap_ptr@U__crt_locale_pointers@@U__crt_internal_free_policy@@@@QAE@QAU__crt_locale_pointers@@@Z 10053175 f i libucrt:wsetlocale.obj
 0001:00052185       ??0_expandlocale_locale_name_cache@@QAE@QA_WIQAU__crt_qualified_locale_data@@@Z 10053185 f i libucrt:wsetlocale.obj
 0001:000521cf       ??1?$__crt_unique_heap_ptr@U__crt_locale_data@@U__crt_internal_free_policy@@@@QAE@XZ 100531cf f i libucrt:wsetlocale.obj
 0001:000521e1       ??1?$__crt_unique_heap_ptr@U__crt_locale_pointers@@U__crt_internal_free_policy@@@@QAE@XZ 100531e1 f i libucrt:wsetlocale.obj
 0001:000521f3       ??1_expandlocale_locale_name_cache@@QAE@XZ 100531f3 f i libucrt:wsetlocale.obj
 0001:00052223       ??B?$__crt_unique_heap_ptr@U__crt_locale_data@@U__crt_internal_free_policy@@@@QBE_NXZ 10053223 f i libucrt:wsetlocale.obj
 0001:0005222a       ??B?$__crt_unique_heap_ptr@U__crt_locale_pointers@@U__crt_internal_free_policy@@@@QBE_NXZ 1005322a f i libucrt:wsetlocale.obj
 0001:0005244a       ?commit_locale_name@_expandlocale_locale_name_cache@@QAEXQB_WI@Z 1005344a f i libucrt:wsetlocale.obj
 0001:0005248e       ?commit_locale_name_cache_already_updated@_expandlocale_locale_name_cache@@QAEXQB_WI@Z 1005348e f i libucrt:wsetlocale.obj
 0001:000524c3       ?detach@?$__crt_unique_heap_ptr@U__crt_locale_data@@U__crt_internal_free_policy@@@@QAEPAU__crt_locale_data@@XZ 100534c3 f i libucrt:wsetlocale.obj
 0001:000524c9       ?detach@?$__crt_unique_heap_ptr@U__crt_locale_pointers@@U__crt_internal_free_policy@@@@QAEPAU__crt_locale_pointers@@XZ 100534c9 f i libucrt:wsetlocale.obj
 0001:000524cf       ?get@?$__crt_unique_heap_ptr@U__crt_locale_data@@U__crt_internal_free_policy@@@@QBEPAU__crt_locale_data@@XZ 100534cf f i libucrt:wsetlocale.obj
 0001:000524d2       ?get@?$__crt_unique_heap_ptr@U__crt_locale_pointers@@U__crt_internal_free_policy@@@@QBEPAU__crt_locale_pointers@@XZ 100534d2 f i libucrt:wsetlocale.obj
 0001:000524d5       ?is_valid@?$__crt_unique_heap_ptr@U__crt_locale_data@@U__crt_internal_free_policy@@@@QBE_NXZ 100534d5 f i libucrt:wsetlocale.obj
 0001:000524dc       ?is_valid@?$__crt_unique_heap_ptr@U__crt_locale_pointers@@U__crt_internal_free_policy@@@@QBE_NXZ 100534dc f i libucrt:wsetlocale.obj
 0001:000524e3       ?release@?$__crt_unique_heap_ptr@U__crt_locale_data@@U__crt_internal_free_policy@@@@QAEXXZ 100534e3 f i libucrt:wsetlocale.obj
 0001:000524f5       ?release@?$__crt_unique_heap_ptr@U__crt_locale_pointers@@U__crt_internal_free_policy@@@@QAEXXZ 100534f5 f i libucrt:wsetlocale.obj
 0001:00052507       ___acrt_copy_locale_name   10053507 f   libucrt:wsetlocale.obj
 0001:00052567       ___acrt_set_locale_changed 10053567 f   libucrt:wsetlocale.obj
 0001:00052572       ___acrt_uninitialize_locale 10053572 f   libucrt:wsetlocale.obj
 0001:00052599       ___ascii_tolower           10053599 f i libucrt:wsetlocale.obj
 0001:000525b0       ___ascii_towlower          100535b0 f i libucrt:wsetlocale.obj
 0001:000525c7       ___lc_lctowcs              100535c7 f   libucrt:wsetlocale.obj
 0001:00052637       ___lc_wcstolc              10053637 f   libucrt:wsetlocale.obj
 0001:00052787       __configthreadlocale       10053787 f   libucrt:wsetlocale.obj
 0001:00052818       __create_locale            10053818 f   libucrt:wsetlocale.obj
 0001:00052c42       __free_locale              10053c42 f   libucrt:wsetlocale.obj
 0001:00052d04       __get_current_locale       10053d04 f   libucrt:wsetlocale.obj
 0001:00052d9f       __wcreate_locale           10053d9f f   libucrt:wsetlocale.obj
 0001:00052ea6       __wcscats                  10053ea6 f   libucrt:wsetlocale.obj
 0001:00052ee7       __wsetlocale               10053ee7 f   libucrt:wsetlocale.obj
 0001:00053c6e       ___pctype_func             10054c6e f   libucrt:ctype.obj
 0001:00053c92       ___pwctype_func            10054c92 f   libucrt:ctype.obj
 0001:00053c98       __iswctype_l               10054c98 f   libucrt:iswctype.obj
 0001:00053cac       _iswctype                  10054cac f   libucrt:iswctype.obj
 0001:00053d15       __isctype                  10054d15 f   libucrt:isctype.obj
 0001:00053d48       __isctype_l                10054d48 f   libucrt:isctype.obj
 0001:00053e13       __isleadbyte_fast_internal 10054e13 f i libucrt:isctype.obj
 0001:00053e31       _nexttoward                10054e31 f   libucrt:nexttoward.obj
 0001:00053f8a       ___acrt_initialize_sse2    10054f8a f   libucrt:mathfcns.obj
 0001:00053f9a       __set_SSE2_enable          10054f9a f   libucrt:mathfcns.obj
 0001:00053fc0       __CIcos                    10054fc0 f   libucrt:cos_impl.obj
 0001:00053ffb       __CIcos_default            10054ffb f   libucrt:cos_impl.obj
 0001:0005400f       __cos_default              1005500f     libucrt:cos_impl.obj
 0001:000540b0       __CIcos_pentium4           100550b0 f   libucrt:cos_pentium4.obj
 0001:000540c8       __cos_pentium4             100550c8     libucrt:cos_pentium4.obj
 0001:00054260       __CIsin                    10055260 f   libucrt:sin_impl.obj
 0001:0005429b       __CIsin_default            1005529b f   libucrt:sin_impl.obj
 0001:000542af       __sin_default              100552af     libucrt:sin_impl.obj
 0001:00054350       __CIsin_pentium4           10055350 f   libucrt:sin_pentium4.obj
 0001:00054368       __sin_pentium4             10055368     libucrt:sin_pentium4.obj
 0001:00054518       ___acrt_add_locale_ref     10055518 f   libucrt:locale_refcounting.obj
 0001:00054595       ___acrt_free_locale        10055595 f   libucrt:locale_refcounting.obj
 0001:000546dd       ___acrt_locale_add_lc_time_reference 100556dd f   libucrt:locale_refcounting.obj
 0001:00054706       ___acrt_locale_free_lc_time_if_unreferenced 10055706 f   libucrt:locale_refcounting.obj
 0001:00054737       ___acrt_locale_release_lc_time_reference 10055737 f   libucrt:locale_refcounting.obj
 0001:00054760       ___acrt_release_locale_ref 10055760 f   libucrt:locale_refcounting.obj
 0001:000547e1       ___acrt_update_thread_locale_data 100557e1 f   libucrt:locale_refcounting.obj
 0001:00054862       __updatetlocinfoEx_nolock  10055862 f   libucrt:locale_refcounting.obj
 0001:000548b2       ?value@?$dual_state_global@J@__crt_state_management@@QAEAAJXZ 100558b2 f i libucrt:new_mode.obj
 0001:000548b5       __query_new_mode           100558b5 f   libucrt:new_mode.obj
 0001:000548bc       __set_new_mode             100558bc f   libucrt:new_mode.obj
 0001:000549b0       _qsort                     100559b0 f   libucrt:qsort.obj
 0001:00054ebf       _wcsncpy_s                 10055ebf f   libucrt:wcsncpy_s.obj
 0001:00054eca       _wcspbrk                   10055eca f   libucrt:wcspbrk.obj
 0001:00054fcb       _strncpy_s                 10055fcb f   libucrt:strncpy_s.obj
 0001:00054fe0       _strpbrk                   10055fe0 f   libucrt:strpbrk.obj
 0001:00055020       __mbsdec                   10056020 f   libucrt:mbsdec.obj
 0001:00055037       __mbsdec_l                 10056037 f   libucrt:mbsdec.obj
 0001:000550c4       ??0?$__crt_scoped_stack_ptr@_W@@QAE@U?$__crt_scoped_stack_ptr_tag@_W@@@Z 100560c4 f i libucrt:getstringtypea.obj
 0001:000550d4       ??0?$__crt_scoped_stack_ptr_tag@_W@@QAE@QA_W@Z 100560d4 f i libucrt:getstringtypea.obj
 0001:000550e4       ??1?$__crt_scoped_stack_ptr@_W@@QAE@XZ 100560e4 f i libucrt:getstringtypea.obj
 0001:000550ed       ?get@?$__crt_scoped_stack_ptr@_W@@QBEPA_WXZ 100560ed f i libucrt:getstringtypea.obj
 0001:000550f0       __MallocaComputeSize       100560f0 f i libucrt:getstringtypea.obj
 0001:00055103       __MarkAllocaS              10056103 f i libucrt:getstringtypea.obj
 0001:00055119       ___acrt_GetStringTypeA     10056119 f   libucrt:getstringtypea.obj
 0001:0005521c       __freea_crt                1005621c f i libucrt:getstringtypea.obj
 0001:0005523c       ??B?$__crt_scoped_stack_ptr@_W@@QBE_NXZ 1005623c f i libucrt:lcmapstringa.obj
 0001:0005542d       ___acrt_LCMapStringA       1005642d f   libucrt:lcmapstringa.obj
 0001:00055485       __wcsnicoll                10056485 f   libucrt:wcsnicol.obj
 0001:000554f2       __wcsnicoll_l              100564f2 f   libucrt:wcsnicol.obj
 0001:000555b2       __strnicoll                100565b2 f   libucrt:strnicol.obj
 0001:000555db       __strnicoll_l              100565db f   libucrt:strnicol.obj
 0001:00055776       ___acrt_SetEnvironmentVariableA 10056776 f   libucrt:setenvironmentvariablea.obj
 0001:0005580b       __msize                    1005680b f   libucrt:msize.obj
 0001:00055816       __msize_base               10056816 f   libucrt:msize.obj
 0001:00055849       __realloc_base             10056849 f   libucrt:realloc_base.obj
 0001:00055939       ___acrt_DownlevelLCIDToLocaleName 10056939 f   libucrt:lcidtoname_downlevel.obj
 0001:000559e3       ___acrt_DownlevelLocaleNameToLCID 100569e3 f   libucrt:lcidtoname_downlevel.obj
 0001:00055a0f       ??$?RU__crt_lowio_handle_data@@@__crt_internal_free_policy@@QBEXQBU__crt_lowio_handle_data@@@Z 10056a0f f i libucrt:osfinfo.obj
 0001:00055a21       ??0?$__crt_unique_heap_ptr@U__crt_lowio_handle_data@@U__crt_internal_free_policy@@@@QAE@QAU__crt_lowio_handle_data@@@Z 10056a21 f i libucrt:osfinfo.obj
 0001:00055a31       ??1?$__crt_unique_heap_ptr@U__crt_lowio_handle_data@@U__crt_internal_free_policy@@@@QAE@XZ 10056a31 f i libucrt:osfinfo.obj
 0001:00055a43       ??B?$__crt_unique_heap_ptr@U__crt_lowio_handle_data@@U__crt_internal_free_policy@@@@QBE_NXZ 10056a43 f i libucrt:osfinfo.obj
 0001:00055a4a       ?detach@?$__crt_unique_heap_ptr@U__crt_lowio_handle_data@@U__crt_internal_free_policy@@@@QAEPAU__crt_lowio_handle_data@@XZ 10056a4a f i libucrt:osfinfo.obj
 0001:00055a50       ?get@?$__crt_unique_heap_ptr@U__crt_lowio_handle_data@@U__crt_internal_free_policy@@@@QBEPAU__crt_lowio_handle_data@@XZ 10056a50 f i libucrt:osfinfo.obj
 0001:00055a53       ?is_valid@?$__crt_unique_heap_ptr@U__crt_lowio_handle_data@@U__crt_internal_free_policy@@@@QBE_NXZ 10056a53 f i libucrt:osfinfo.obj
 0001:00055a5a       ?release@?$__crt_unique_heap_ptr@U__crt_lowio_handle_data@@U__crt_internal_free_policy@@@@QAEXXZ 10056a5a f i libucrt:osfinfo.obj
 0001:00055a6c       ___acrt_lowio_create_handle_array 10056a6c f   libucrt:osfinfo.obj
 0001:00055ae7       ___acrt_lowio_destroy_handle_array 10056ae7 f   libucrt:osfinfo.obj
 0001:00055b1c       ___acrt_lowio_ensure_fh_exists 10056b1c f   libucrt:osfinfo.obj
 0001:00055bba       ___acrt_lowio_lock_fh      10056bba f   libucrt:osfinfo.obj
 0001:00055bdd       ___acrt_lowio_set_os_handle 10056bdd f   libucrt:osfinfo.obj
 0001:00055c6f       ___acrt_lowio_unlock_fh    10056c6f f   libucrt:osfinfo.obj
 0001:00055c92       __alloc_osfhnd             10056c92 f   libucrt:osfinfo.obj
 0001:00055da5       __free_osfhnd              10056da5 f   libucrt:osfinfo.obj
 0001:00055e36       __get_osfhandle            10056e36 f   libucrt:osfinfo.obj
 0001:00055ea0       __open_osfhandle           10056ea0 f   libucrt:osfinfo.obj
 0001:00056119       __commit                   10057119 f   libucrt:commit.obj
 0001:0005695e       __utf8_no_of_trailbytes    1005795e f i libucrt:write.obj
 0001:0005696f       __write                    1005796f f   libucrt:write.obj
 0001:00056a61       __write_nolock             10057a61 f   libucrt:write.obj
 0001:00056c43       _localeconv                10057c43 f   libucrt:localeconv.obj
 0001:00056c6b       ?is_in_use@__crt_stdio_stream@@QBE_NXZ 10057c6b f i libucrt:closeall.obj
 0001:00056c77       __fcloseall                10057c77 f   libucrt:closeall.obj
 0001:00056d22       ?has_crt_buffer@__crt_stdio_stream@@QBE_NXZ 10057d22 f i libucrt:_freebuf.obj
 0001:00056d2e       ___acrt_stdio_free_buffer_nolock 10057d2e f   libucrt:_freebuf.obj
 0001:00056d6e       __isatty                   10057d6e f   libucrt:isatty.obj
 0001:00056dc4       ___iswcsym                 10057dc4 f i libucrt:_wctype.obj
 0001:00056dea       ___iswcsymf                10057dea f i libucrt:_wctype.obj
 0001:00056e10       __isleadbyte_l             10057e10 f i libucrt:_wctype.obj
 0001:00056e4a       __iswalnum_l               10057e4a f i libucrt:_wctype.obj
 0001:00056e60       __iswalpha_l               10057e60 f i libucrt:_wctype.obj
 0001:00056e76       __iswblank_l               10057e76 f i libucrt:_wctype.obj
 0001:00056e93       __iswcntrl_l               10057e93 f i libucrt:_wctype.obj
 0001:00056ea6       __iswcsym_l                10057ea6 f i libucrt:_wctype.obj
 0001:00056ecc       __iswcsymf_l               10057ecc f i libucrt:_wctype.obj
 0001:00056ef2       __iswdigit_l               10057ef2 f i libucrt:_wctype.obj
 0001:00056f05       __iswgraph_l               10057f05 f i libucrt:_wctype.obj
 0001:00056f1b       __iswlower_l               10057f1b f i libucrt:_wctype.obj
 0001:00056f2e       __iswprint_l               10057f2e f i libucrt:_wctype.obj
 0001:00056f44       __iswpunct_l               10057f44 f i libucrt:_wctype.obj
 0001:00056f57       __iswspace_l               10057f57 f i libucrt:_wctype.obj
 0001:00056f6a       __iswupper_l               10057f6a f i libucrt:_wctype.obj
 0001:00056f7d       __iswxdigit_l              10057f7d f i libucrt:_wctype.obj
 0001:00056f93       _isleadbyte                10057f93 f i libucrt:_wctype.obj
 0001:00056fa6       _iswalnum                  10057fa6 f i libucrt:_wctype.obj
 0001:00056fbc       _iswalpha                  10057fbc f i libucrt:_wctype.obj
 0001:00056fd2       _iswascii                  10057fd2 f i libucrt:_wctype.obj
 0001:00056fe6       _iswblank                  10057fe6 f i libucrt:_wctype.obj
 0001:00057003       _iswcntrl                  10058003 f i libucrt:_wctype.obj
 0001:00057016       _iswdigit                  10058016 f i libucrt:_wctype.obj
 0001:00057029       _iswgraph                  10058029 f i libucrt:_wctype.obj
 0001:0005703f       _iswlower                  1005803f f i libucrt:_wctype.obj
 0001:00057052       _iswprint                  10058052 f i libucrt:_wctype.obj
 0001:00057068       _iswpunct                  10058068 f i libucrt:_wctype.obj
 0001:0005707b       _iswspace                  1005807b f i libucrt:_wctype.obj
 0001:0005708e       _iswupper                  1005808e f i libucrt:_wctype.obj
 0001:000570a1       _iswxdigit                 100580a1 f i libucrt:_wctype.obj
 0001:000570e3       ?__mbrtowc_utf8@__crt_mbstring@@YAIPA_WPBDIPAU_Mbstatet@@@Z 100580e3 f   libucrt:mbrtowc.obj
 0001:00057123       ?__mbsrtowcs_utf8@__crt_mbstring@@YAIPA_WPAPBDIPAU_Mbstatet@@@Z 10058123 f   libucrt:mbrtowc.obj
 0001:00057535       _btowc                     10058535 f   libucrt:mbrtowc.obj
 0001:0005758d       _mbrlen                    1005858d f   libucrt:mbrtowc.obj
 0001:000575bf       _mbrtowc                   100585bf f   libucrt:mbrtowc.obj
 0001:00057610       _mbsrtowcs                 10058610 f   libucrt:mbrtowc.obj
 0001:0005761b       _mbsrtowcs_s               1005861b f   libucrt:mbrtowc.obj
 0001:000576be       ??$?RG@__crt_internal_free_policy@@QBEXQBG@Z 100586be f i libucrt:initctype.obj
 0001:000576d0       ??$?RJ@__crt_internal_free_policy@@QBEXQBJ@Z 100586d0 f i libucrt:initctype.obj
 0001:000576e2       ??0?$__crt_unique_heap_ptr@GU__crt_internal_free_policy@@@@QAE@QAG@Z 100586e2 f i libucrt:initctype.obj
 0001:000576f2       ??0?$__crt_unique_heap_ptr@JU__crt_internal_free_policy@@@@QAE@QAJ@Z 100586f2 f i libucrt:initctype.obj
 0001:00057702       ??1?$__crt_unique_heap_ptr@GU__crt_internal_free_policy@@@@QAE@XZ 10058702 f i libucrt:initctype.obj
 0001:00057714       ??1?$__crt_unique_heap_ptr@JU__crt_internal_free_policy@@@@QAE@XZ 10058714 f i libucrt:initctype.obj
 0001:00057726       ?detach@?$__crt_unique_heap_ptr@GU__crt_internal_free_policy@@@@QAEPAGXZ 10058726 f i libucrt:initctype.obj
 0001:0005772c       ?detach@?$__crt_unique_heap_ptr@JU__crt_internal_free_policy@@@@QAEPAJXZ 1005872c f i libucrt:initctype.obj
 0001:00057732       ?release@?$__crt_unique_heap_ptr@GU__crt_internal_free_policy@@@@QAEXXZ 10058732 f i libucrt:initctype.obj
 0001:00057744       ?release@?$__crt_unique_heap_ptr@JU__crt_internal_free_policy@@@@QAEXXZ 10058744 f i libucrt:initctype.obj
 0001:00057756       ____lc_codepage_func       10058756 f   libucrt:initctype.obj
 0001:0005777b       ____lc_collate_cp_func     1005877b f   libucrt:initctype.obj
 0001:000577a0       ____lc_locale_name_func    100587a0 f   libucrt:initctype.obj
 0001:000577c7       ____mb_cur_max_func        100587c7 f   libucrt:initctype.obj
 0001:000577ec       ____mb_cur_max_l_func      100587ec f   libucrt:initctype.obj
 0001:00057805       ___acrt_locale_initialize_ctype 10058805 f   libucrt:initctype.obj
 0001:00057c63       ?__c32rtomb_utf8@__crt_mbstring@@YAIPAD_UPAU_Mbstatet@@@Z 10058c63 f   libucrt:c32rtomb.obj
 0001:00057d0e       ?reset_and_return@__crt_mbstring@@YAIIPAU_Mbstatet@@@Z 10058d0e f i libucrt:c32rtomb.obj
 0001:00057d22       ?return_illegal_sequence@__crt_mbstring@@YAIPAU_Mbstatet@@@Z 10058d22 f i libucrt:c32rtomb.obj
 0001:00057d41       _c32rtomb                  10058d41 f   libucrt:c32rtomb.obj
 0001:00057d4c       ___acrt_fp_strflt_to_string 10058d4c f   libucrt:_fptostr.obj
 0001:00058ff0       ??0big_integer@__crt_strtox@@QAE@ABU01@@Z 10059ff0 f i libucrt:cfout.obj
 0001:00059030       ??0big_integer@__crt_strtox@@QAE@XZ 1005a030 f i libucrt:cfout.obj
 0001:00059080       ??4big_integer@__crt_strtox@@QAEAAU01@ABU01@@Z 1005a080 f i libucrt:cfout.obj
 0001:000590c0       ??8__crt_strtox@@YA_NABUbig_integer@0@0@Z 1005a0c0 f i libucrt:cfout.obj
 0001:00059100       ??9__crt_strtox@@YA_NABUbig_integer@0@0@Z 1005a100 f i libucrt:cfout.obj
 0001:00059140       ?add_carry@__crt_strtox@@YAIAAIII@Z 1005a140 f i libucrt:cfout.obj
 0001:00059160       ?add_multiply_carry@__crt_strtox@@YAIAAIIII@Z 1005a160 f i libucrt:cfout.obj
 0001:00059190       ?bit_scan_reverse@__crt_strtox@@YAII@Z 1005a190 f i libucrt:cfout.obj
 0001:000591b0       ?count_sequential_high_zeroes@__crt_strtox@@YAII@Z 1005a1b0 f i libucrt:cfout.obj
 0001:000591d0       ?divide@__crt_strtox@@YA_KAAUbig_integer@1@ABU21@@Z 1005a1d0 f i libucrt:cfout.obj
 0001:00059670       ?is_zero@__crt_strtox@@YA_NABUbig_integer@1@@Z 1005a670 f i libucrt:cfout.obj
 0001:00059680       ?make_big_integer@__crt_strtox@@YA?AUbig_integer@1@_K@Z 1005a680 f i libucrt:cfout.obj
 0001:000596a0       ?make_big_integer_power_of_two@__crt_strtox@@YA?AUbig_integer@1@I@Z 1005a6a0 f i libucrt:cfout.obj
 0001:000596f0       ?multiply@__crt_strtox@@YA_NAAUbig_integer@1@ABU21@@Z 1005a6f0 f i libucrt:cfout.obj
 0001:00059a30       ?multiply@__crt_strtox@@YA_NAAUbig_integer@1@I@Z 1005aa30 f i libucrt:cfout.obj
 0001:00059b00       ?multiply_64_32@__crt_strtox@@YA_K_KI@Z 1005ab00 f i libucrt:cfout.obj
 0001:00059b20       ?multiply_by_power_of_ten@__crt_strtox@@YA_NAAUbig_integer@1@I@Z 1005ab20 f i libucrt:cfout.obj
 0001:0005a050       ?multiply_core@__crt_strtox@@YAIQAIII@Z 1005b050 f i libucrt:cfout.obj
 0001:0005a090       ?shift_left@__crt_strtox@@YA_NAAUbig_integer@1@I@Z 1005b090 f i libucrt:cfout.obj
 0001:0005a1e6       ___acrt_fltout             1005b1e6 f   libucrt:cfout.obj
 0001:0005b979       ?has_big_buffer@__crt_stdio_stream@@QBE_NXZ 1005c979 f i libucrt:_flsbuf.obj
 0001:0005ba0a       ___acrt_stdio_flush_and_write_narrow_nolock 1005ca0a f   libucrt:_flsbuf.obj
 0001:0005ba15       ___acrt_stdio_flush_and_write_wide_nolock 1005ca15 f   libucrt:_flsbuf.obj
 0001:0005ba20       ??$?RUlconv@@@__crt_internal_free_policy@@QBEXQBUlconv@@@Z 1005ca20 f i libucrt:initmon.obj
 0001:0005ba32       ??0?$__crt_unique_heap_ptr@Ulconv@@U__crt_internal_free_policy@@@@QAE@QAUlconv@@@Z 1005ca32 f i libucrt:initmon.obj
 0001:0005ba42       ??1?$__crt_unique_heap_ptr@Ulconv@@U__crt_internal_free_policy@@@@QAE@XZ 1005ca42 f i libucrt:initmon.obj
 0001:0005ba54       ?detach@?$__crt_unique_heap_ptr@Ulconv@@U__crt_internal_free_policy@@@@QAEPAUlconv@@XZ 1005ca54 f i libucrt:initmon.obj
 0001:0005ba5a       ?release@?$__crt_unique_heap_ptr@Ulconv@@U__crt_internal_free_policy@@@@QAEXXZ 1005ca5a f i libucrt:initmon.obj
 0001:0005ba6c       ___acrt_locale_free_monetary 1005ca6c f   libucrt:initmon.obj
 0001:0005bb6a       ___acrt_locale_initialize_monetary 1005cb6a f   libucrt:initmon.obj
 0001:0005bf59       ___acrt_locale_free_numeric 1005cf59 f   libucrt:initnum.obj
 0001:0005bfc2       ___acrt_locale_initialize_numeric 1005cfc2 f   libucrt:initnum.obj
 0001:0005c209       ??$?RU__crt_lc_time_data@@@__crt_internal_free_policy@@QBEXQBU__crt_lc_time_data@@@Z 1005d209 f i libucrt:inittime.obj
 0001:0005c28d       ??0?$__crt_unique_heap_ptr@U__crt_lc_time_data@@U__crt_internal_free_policy@@@@QAE@QAU__crt_lc_time_data@@@Z 1005d28d f i libucrt:inittime.obj
 0001:0005c29d       ??1?$__crt_unique_heap_ptr@U__crt_lc_time_data@@U__crt_internal_free_policy@@@@QAE@XZ 1005d29d f i libucrt:inittime.obj
 0001:0005c2af       ??B?$__crt_unique_heap_ptr@U__crt_lc_time_data@@U__crt_internal_free_policy@@@@QBE_NXZ 1005d2af f i libucrt:inittime.obj
 0001:0005c2b6       ?detach@?$__crt_unique_heap_ptr@U__crt_lc_time_data@@U__crt_internal_free_policy@@@@QAEPAU__crt_lc_time_data@@XZ 1005d2b6 f i libucrt:inittime.obj
 0001:0005c2f4       ?get@?$__crt_unique_heap_ptr@U__crt_lc_time_data@@U__crt_internal_free_policy@@@@QBEPAU__crt_lc_time_data@@XZ 1005d2f4 f i libucrt:inittime.obj
 0001:0005c5d4       ?is_valid@?$__crt_unique_heap_ptr@U__crt_lc_time_data@@U__crt_internal_free_policy@@@@QBE_NXZ 1005d5d4 f i libucrt:inittime.obj
 0001:0005c5db       ?release@?$__crt_unique_heap_ptr@U__crt_lc_time_data@@U__crt_internal_free_policy@@@@QAEXXZ 1005d5db f i libucrt:inittime.obj
 0001:0005c5ed       ___acrt_locale_free_time   1005d5ed f   libucrt:inittime.obj
 0001:0005c6d1       ___acrt_locale_initialize_time 1005d6d1 f   libucrt:inittime.obj
 0001:0005c7be       _wcscat_s                  1005d7be f   libucrt:wcscat_s.obj
 0001:0005c91a       _wcsncat_s                 1005d91a f   libucrt:wcsncat_s.obj
 0001:0005c925       _wcscspn                   1005d925 f   libucrt:wcscspn.obj
 0001:0005d0c0       ___acrt_get_qualified_locale 1005e0c0 f   libucrt:get_qualified_locale.obj
 0001:0005da3f       ___acrt_get_qualified_locale_downlevel 1005ea3f f   libucrt:getqloc_downlevel.obj
 0001:0005dc34       ___acrt_GetStringTypeW     1005ec34 f   libucrt:getstringtypew.obj
 0001:0005dcc5       __d_int                    1005ecc5 f   libucrt:_test.obj
 0001:0005ddcb       __dtest                    1005edcb f   libucrt:_test.obj
 0001:0005de2f       __fd_int                   1005ee2f f   libucrt:_test.obj
 0001:0005defc       __fdtest                   1005eefc f   libucrt:_test.obj
 0001:0005df4a       __fperrraise               1005ef4a f   libucrt:_test.obj
 0001:0005df6b       __ld_int                   1005ef6b f   libucrt:_test.obj
 0001:0005df76       __ldtest                   1005ef76 f   libucrt:_test.obj
 0001:0005df90       __trandisp1                1005ef90 f   libucrt:87disp.obj
 0001:0005e005       __trandisp2                1005f005 f   libucrt:87disp.obj
 0001:0005e09f       __rttospopde               1005f09f     libucrt:87disp.obj
 0001:0005e0a4       __rttospop                 1005f0a4     libucrt:87disp.obj
 0001:0005e0b0       __rtnospop                 1005f0b0 f   libucrt:87disp.obj
 0001:0005e0c0       __rttosnpop                1005f0c0 f   libucrt:87disp.obj
 0001:0005e0c1       __rtnospopde               1005f0c1     libucrt:87disp.obj
 0001:0005e0c8       __rtzeropop                1005f0c8     libucrt:87disp.obj
 0001:0005e0ca       __rtzeronpop               1005f0ca     libucrt:87disp.obj
 0001:0005e0d0       __rtzerospop               1005f0d0 f   libucrt:87disp.obj
 0001:0005e0dd       __rtonepop                 1005f0dd     libucrt:87disp.obj
 0001:0005e0e0       __rtonenpop                1005f0e0 f   libucrt:87disp.obj
 0001:0005e0f0       __tosnan1                  1005f0f0 f   libucrt:87disp.obj
 0001:0005e120       __nosnan2                  1005f120 f   libucrt:87disp.obj
 0001:0005e130       __tosnan2                  1005f130 f   libucrt:87disp.obj
 0001:0005e160       __nan2                     1005f160 f   libucrt:87disp.obj
 0001:0005e1a0       __rtindfpop                1005f1a0 f   libucrt:87disp.obj
 0001:0005e1a2       __rtindfnpop               1005f1a2     libucrt:87disp.obj
 0001:0005e1b3       __rttosnpopde              1005f1b3     libucrt:87disp.obj
 0001:0005e1c0       __rtatan2inf               1005f1c0 f   libucrt:87disp.obj
 0001:0005e1dd       __rtchsifneg               1005f1dd     libucrt:87disp.obj
 0001:0005e1e4       ___setfflag                1005f1e4 f   libucrt:fp_flags.obj
 0001:0005e200       __twoToTOS                 1005f200 f   libucrt:common.obj
 0001:0005e215       __load_CW                  1005f215 f   libucrt:common.obj
 0001:0005e22c       __convertTOStoQNaN         1005f22c f   libucrt:common.obj
 0001:0005e245       __fload_withFB             1005f245 f   libucrt:common.obj
 0001:0005e288       __checkTOS_withFB          1005f288 f   libucrt:common.obj
 0001:0005e29e       __fast_exit                1005f29e f   libucrt:common.obj
 0001:0005e2ab       __math_exit                1005f2ab f   libucrt:common.obj
 0001:0005e2d5       __check_overflow_exit      1005f2d5 f   libucrt:common.obj
 0001:0005e2e9       __check_range_exit         1005f2e9 f   libucrt:common.obj
 0001:0005e390       __startTwoArgErrorHandling 1005f390 f   libucrt:genexcep.obj
 0001:0005e3a7       __startOneArgErrorHandling 1005f3a7 f   libucrt:genexcep.obj
 0001:0005e3e3       ___strncnt                 1005f3e3 f   libucrt:strncnt.obj
 0001:0005e3ff       ___acrt_CompareStringW     1005f3ff f   libucrt:comparestringw.obj
 0001:0005e464       ___ascii_wcsnicmp          1005f464 f   libucrt:wcsnicmp.obj
 0001:0005e4b3       __towlower_fast_internal   1005f4b3 f i libucrt:wcsnicmp.obj
 0001:0005e4de       __towlower_internal        1005f4de f i libucrt:wcsnicmp.obj
 0001:0005e51d       __wcsnicmp                 1005f51d f   libucrt:wcsnicmp.obj
 0001:0005e569       __wcsnicmp_l               1005f569 f   libucrt:wcsnicmp.obj
 0001:0005e63c       __strnicmp                 1005f63c f   libucrt:strnicmp.obj
 0001:0005e6a9       __strnicmp_l               1005f6a9 f   libucrt:strnicmp.obj
 0001:0005e9fd       ___acrt_CompareStringA     1005f9fd f   libucrt:comparestringa.obj
 0001:0005eae1       ___acrt_report_runtime_error 1005fae1 f   libucrt:report_runtime_error.obj
 0001:0005ebf6       __query_app_type           1005fbf6 f   libucrt:report_runtime_error.obj
 0001:0005ebfc       __set_app_type             1005fbfc f   libucrt:report_runtime_error.obj
 0001:0005ef9b       __lseek                    1005ff9b f   libucrt:lseek.obj
 0001:0005efa6       __lseek_nolock             1005ffa6 f   libucrt:lseek.obj
 0001:0005efb1       __lseeki64                 1005ffb1 f   libucrt:lseek.obj
 0001:0005efcc       __lseeki64_nolock          1005ffcc f   libucrt:lseek.obj
 0001:0005f0c8       __putwch                   100600c8 f   libucrt:putwch.obj
 0001:0005f0f5       __putwch_nolock            100600f5 f   libucrt:putwch.obj
 0001:0005f68f       __read                     1006068f f   libucrt:read.obj
 0001:0005f7a3       __read_nolock              100607a3 f   libucrt:read.obj
 0001:0005fb53       __fclose_nolock            10060b53 f   libucrt:fclose.obj
 0001:0005fbca       _fclose                    10060bca f   libucrt:fclose.obj
 0001:0005fc4e       ?__mbrtoc32_utf8@__crt_mbstring@@YAIPA_UPBDIPAU_Mbstatet@@@Z 10060c4e f   libucrt:mbrtoc32.obj
 0001:0005fdf5       _mbrtoc32                  10060df5 f   libucrt:mbrtoc32.obj
 0001:0005fedf       ___acrt_GetLocaleInfoA     10060edf f   libucrt:getlocaleinfoa.obj
 0001:0006008f       _fegetenv                  1006108f f   libucrt:fegetenv.obj
 0001:000600ac       _fesetenv                  100610ac f   libucrt:fesetenv.obj
 0001:000600f7       _feholdexcept              100610f7 f   libucrt:feholdexcept.obj
 0001:00060150       __CIlog10                  10061150 f   libucrt:log10_impl.obj
 0001:0006018b       __CIlog10_default          1006118b f   libucrt:log10_impl.obj
 0001:0006019f       __log10_default            1006119f     libucrt:log10_impl.obj
 0001:00060260       _ceil                      10061260 f   libucrt:ceil_pentium4.obj
 0001:000602a0       __ceil_pentium4            100612a0 f   libucrt:ceil_pentium4.obj
 0001:0006037d       ___acrt_stdio_allocate_buffer_nolock 1006137d f   libucrt:_getbuf.obj
 0001:00060896       __i64toa                   10061896 f   libucrt:xtoa.obj
 0001:000608d7       __i64toa_s                 100618d7 f   libucrt:xtoa.obj
 0001:00060916       __i64tow                   10061916 f   libucrt:xtoa.obj
 0001:00060957       __i64tow_s                 10061957 f   libucrt:xtoa.obj
 0001:00060996       __itoa                     10061996 f   libucrt:xtoa.obj
 0001:000609cb       __itoa_s                   100619cb f   libucrt:xtoa.obj
 0001:000609fe       __itow                     100619fe f   libucrt:xtoa.obj
 0001:00060a33       __itow_s                   10061a33 f   libucrt:xtoa.obj
 0001:00060a66       __ltoa                     10061a66 f   libucrt:xtoa.obj
 0001:00060a9b       __ltoa_s                   10061a9b f   libucrt:xtoa.obj
 0001:00060ace       __ltow                     10061ace f   libucrt:xtoa.obj
 0001:00060b03       __ltow_s                   10061b03 f   libucrt:xtoa.obj
 0001:00060b36       __ui64toa                  10061b36 f   libucrt:xtoa.obj
 0001:00060b58       __ui64toa_s                10061b58 f   libucrt:xtoa.obj
 0001:00060b78       __ui64tow                  10061b78 f   libucrt:xtoa.obj
 0001:00060b9a       __ui64tow_s                10061b9a f   libucrt:xtoa.obj
 0001:00060bba       __ultoa                    10061bba f   libucrt:xtoa.obj
 0001:00060bd9       __ultoa_s                  10061bd9 f   libucrt:xtoa.obj
 0001:00060bf6       __ultow                    10061bf6 f   libucrt:xtoa.obj
 0001:00060c15       __ultow_s                  10061c15 f   libucrt:xtoa.obj
 0001:00060c32       ___ascii_wcsicmp           10061c32 f   libucrt:wcsicmp.obj
 0001:00060c6f       __wcsicmp                  10061c6f f   libucrt:wcsicmp.obj
 0001:00060cb8       __wcsicmp_l                10061cb8 f   libucrt:wcsicmp.obj
 0001:00060d70       ??_4@YAAAW4__acrt_fenv_abstract_status@@AAW40@W40@@Z 10061d70 f i libucrt:fegetexceptflag.obj
 0001:00060d7f       _fegetexceptflag           10061d7f f   libucrt:fegetexceptflag.obj
 0001:00060db0       ??I@YA?AW4__acrt_fenv_abstract_status@@W40@0@Z 10061db0 f i libucrt:fesetexceptflag.obj
 0001:00060dbd       ??S@YA?AW4__acrt_fenv_abstract_status@@W40@@Z 10061dbd f i libucrt:fesetexceptflag.obj
 0001:00060dc9       ??_5@YAAAW4__acrt_fenv_abstract_status@@AAW40@W40@@Z 10061dc9 f i libucrt:fesetexceptflag.obj
 0001:00060dd8       _fesetexceptflag           10061dd8 f   libucrt:fesetexceptflag.obj
 0001:00060e31       ??$__acrt_fenv_shift_bits@W4__acrt_fenv_abstract_control@@@@YA?AW4__acrt_fenv_abstract_control@@W40@0I@Z 10061e31 f i libucrt:_fenvutils.obj
 0001:00060e43       ??$__acrt_fenv_shift_bits@W4__acrt_fenv_abstract_status@@@@YA?AW4__acrt_fenv_abstract_status@@W40@0I@Z 10061e43 f i libucrt:_fenvutils.obj
 0001:00060e55       ??$__acrt_fenv_translate_bit@W4__acrt_fenv_abstract_control@@W4__acrt_fenv_machine_sse_control@@@@YA?AW4__acrt_fenv_abstract_control@@W4__acrt_fenv_machine_sse_control@@0W40@1@Z 10061e55 f i libucrt:_fenvutils.obj
 0001:00060e6d       ??$__acrt_fenv_translate_bit@W4__acrt_fenv_abstract_control@@W4__acrt_fenv_machine_x87_control@@@@YA?AW4__acrt_fenv_abstract_control@@W4__acrt_fenv_machine_x87_control@@0W40@1@Z 10061e6d f i libucrt:_fenvutils.obj
 0001:00060e85       ??$__acrt_fenv_translate_bit@W4__acrt_fenv_abstract_status@@W4__acrt_fenv_machine_sse_status@@@@YA?AW4__acrt_fenv_abstract_status@@W4__acrt_fenv_machine_sse_status@@0W40@1@Z 10061e85 f i libucrt:_fenvutils.obj
 0001:00060e9a       ??$__acrt_fenv_translate_bit@W4__acrt_fenv_abstract_status@@W4__acrt_fenv_machine_x87_status@@@@YA?AW4__acrt_fenv_abstract_status@@W4__acrt_fenv_machine_x87_status@@0W40@1@Z 10061e9a f i libucrt:_fenvutils.obj
 0001:00060eaf       ??$__acrt_fenv_translate_bit@W4__acrt_fenv_machine_sse_control@@W4__acrt_fenv_abstract_control@@@@YA?AW4__acrt_fenv_machine_sse_control@@W4__acrt_fenv_abstract_control@@0W40@1@Z 10061eaf f i libucrt:_fenvutils.obj
 0001:00060ec6       ??$__acrt_fenv_translate_bit@W4__acrt_fenv_machine_sse_status@@W4__acrt_fenv_abstract_status@@@@YA?AW4__acrt_fenv_machine_sse_status@@W4__acrt_fenv_abstract_status@@0W40@1@Z 10061ec6 f i libucrt:_fenvutils.obj
 0001:00060edb       ??$__acrt_fenv_translate_bit@W4__acrt_fenv_machine_x87_control@@W4__acrt_fenv_abstract_control@@@@YA?AW4__acrt_fenv_machine_x87_control@@W4__acrt_fenv_abstract_control@@0W40@1@Z 10061edb f i libucrt:_fenvutils.obj
 0001:00060ef2       ??$__acrt_fenv_translate_bit@W4__acrt_fenv_machine_x87_status@@W4__acrt_fenv_abstract_status@@@@YA?AW4__acrt_fenv_machine_x87_status@@W4__acrt_fenv_abstract_status@@0W40@1@Z 10061ef2 f i libucrt:_fenvutils.obj
 0001:00060f07       ??$__acrt_fenv_unshift_bits@W4__acrt_fenv_abstract_control@@@@YA?AW4__acrt_fenv_abstract_control@@W40@0I@Z 10061f07 f i libucrt:_fenvutils.obj
 0001:00060f19       ??$__acrt_fenv_unshift_bits@W4__acrt_fenv_abstract_status@@@@YA?AW4__acrt_fenv_abstract_status@@W40@0I@Z 10061f19 f i libucrt:_fenvutils.obj
 0001:000613be       ??I@YA?AW4__acrt_fenv_abstract_control@@W40@0@Z 100623be f i libucrt:_fenvutils.obj
 0001:000613cb       ??I@YA?AW4__acrt_fenv_machine_sse_control@@W40@0@Z 100623cb f i libucrt:_fenvutils.obj
 0001:000613d8       ??I@YA?AW4__acrt_fenv_machine_sse_status@@W40@0@Z 100623d8 f i libucrt:_fenvutils.obj
 0001:000613e5       ??I@YA?AW4__acrt_fenv_machine_x87_control@@W40@0@Z 100623e5 f i libucrt:_fenvutils.obj
 0001:000613f2       ??I@YA?AW4__acrt_fenv_machine_x87_status@@W40@0@Z 100623f2 f i libucrt:_fenvutils.obj
 0001:000613ff       ??U@YA?AW4__acrt_fenv_abstract_control@@W40@0@Z 100623ff f i libucrt:_fenvutils.obj
 0001:0006140c       ??U@YA?AW4__acrt_fenv_abstract_status@@W40@0@Z 1006240c f i libucrt:_fenvutils.obj
 0001:00061419       ??U@YA?AW4__acrt_fenv_machine_sse_control@@W40@0@Z 10062419 f i libucrt:_fenvutils.obj
 0001:00061426       ??U@YA?AW4__acrt_fenv_machine_x87_control@@W40@0@Z 10062426 f i libucrt:_fenvutils.obj
 0001:00061433       ??_5@YAAAW4__acrt_fenv_abstract_control@@AAW40@W40@@Z 10062433 f i libucrt:_fenvutils.obj
 0001:00061442       ??_5@YAAAW4__acrt_fenv_machine_sse_control@@AAW40@W40@@Z 10062442 f i libucrt:_fenvutils.obj
 0001:00061453       ??_5@YAAAW4__acrt_fenv_machine_sse_status@@AAW40@W40@@Z 10062453 f i libucrt:_fenvutils.obj
 0001:00061462       ??_5@YAAAW4__acrt_fenv_machine_x87_control@@AAW40@W40@@Z 10062462 f i libucrt:_fenvutils.obj
 0001:00061473       ??_5@YAAAW4__acrt_fenv_machine_x87_status@@AAW40@W40@@Z 10062473 f i libucrt:_fenvutils.obj
 0001:00061482       ?__acrt_fenv_shift_abstract_sse_control@@YA?AW4__acrt_fenv_abstract_control@@W41@@Z 10062482 f i libucrt:_fenvutils.obj
 0001:0006149f       ?__acrt_fenv_shift_abstract_sse_status@@YA?AW4__acrt_fenv_abstract_status@@W41@@Z 1006249f f i libucrt:_fenvutils.obj
 0001:000614af       ?__acrt_fenv_shift_abstract_x87_control@@YA?AW4__acrt_fenv_abstract_control@@W41@@Z 100624af f i libucrt:_fenvutils.obj
 0001:000614cc       ?__acrt_fenv_shift_abstract_x87_status@@YA?AW4__acrt_fenv_abstract_status@@W41@@Z 100624cc f i libucrt:_fenvutils.obj
 0001:000614dc       ?__acrt_fenv_unshift_abstract_sse_control@@YA?AW4__acrt_fenv_abstract_control@@W41@@Z 100624dc f i libucrt:_fenvutils.obj
 0001:000614fb       ?__acrt_fenv_unshift_abstract_sse_status@@YA?AW4__acrt_fenv_abstract_status@@W41@@Z 100624fb f i libucrt:_fenvutils.obj
 0001:0006150b       ?__acrt_fenv_unshift_abstract_x87_control@@YA?AW4__acrt_fenv_abstract_control@@W41@@Z 1006250b f i libucrt:_fenvutils.obj
 0001:0006152a       ?__acrt_fenv_unshift_abstract_x87_status@@YA?AW4__acrt_fenv_abstract_status@@W41@@Z 1006252a f i libucrt:_fenvutils.obj
 0001:00061a89       ___acrt_fenv_expand_round_control 10062a89 f   libucrt:_fenvutils.obj
 0001:00061abf       ___acrt_fenv_get_common_round_control 10062abf f   libucrt:_fenvutils.obj
 0001:00061ae1       ___acrt_fenv_get_control   10062ae1 f   libucrt:_fenvutils.obj
 0001:00061b61       ___acrt_fenv_get_fp_status_word_from_exception_mask 10062b61 f   libucrt:_fenvutils.obj
 0001:00061b7b       ___acrt_fenv_get_status    10062b7b f   libucrt:_fenvutils.obj
 0001:00061c33       ___acrt_fenv_set_control   10062c33 f   libucrt:_fenvutils.obj
 0001:00061c9b       ___acrt_fenv_set_status    10062c9b f   libucrt:_fenvutils.obj
 0001:00061d92       __87except                 10062d92 f   libucrt:87except.obj
 0001:00061e9c       __towlower_l               10062e9c f   libucrt:towlower.obj
 0001:00061f3e       _towlower                  10062f3e f   libucrt:towlower.obj
 0001:00061f60       ___ascii_strnicmp          10062f60 f   libucrt:_strnicm.obj
 0001:00061fc1       __set_error_mode           10062fc1 f   libucrt:set_error_mode.obj
 0001:000620fb       ??$message_box@$$TABQBDABQBDK@?$__crt_char_traits@D@@SAH$$QA$$TABQBD1$$QAK@Z 100630fb f i libucrt:crtmbox.obj
 0001:0006211b       ??$message_box@$$TABQB_WABQB_WK@?$__crt_char_traits@_W@@SAH$$QA$$TABQB_W1$$QAK@Z 1006311b f i libucrt:crtmbox.obj
 0001:0006213b       ??$message_box@PAUHWND__@@ABQBDABQBDABI@?$__crt_char_traits@D@@SAH$$QAPAUHWND__@@ABQBD1ABI@Z 1006313b f i libucrt:crtmbox.obj
 0001:0006215b       ??$message_box@PAUHWND__@@ABQB_WABQB_WABI@?$__crt_char_traits@_W@@SAH$$QAPAUHWND__@@ABQB_W1ABI@Z 1006315b f i libucrt:crtmbox.obj
 0001:0006217b       ??$output_debug_string@ABQBD@?$__crt_char_traits@D@@SAXABQBD@Z 1006317b f i libucrt:crtmbox.obj
 0001:0006218c       ??$output_debug_string@ABQB_W@?$__crt_char_traits@_W@@SAXABQB_W@Z 1006318c f i libucrt:crtmbox.obj
 0001:0006219e       ___acrt_show_narrow_message_box 1006319e f   libucrt:crtmbox.obj
 0001:000621a9       ___acrt_show_wide_message_box 100631a9 f   libucrt:crtmbox.obj
 0001:00062264       ___dcrt_lowio_ensure_console_output_initialized 10063264 f   libucrt:initcon.obj
 0001:00062283       ___dcrt_terminate_console_output 10063283 f   libucrt:initcon.obj
 0001:0006229a       ___dcrt_write_console      1006329a f   libucrt:initcon.obj
 0001:0006248a       __close                    1006348a f   libucrt:close.obj
 0001:00062517       __close_nolock             10063517 f   libucrt:close.obj
 0001:000625b3       ??$?RU__crt_stdio_stream_data@@@__crt_internal_free_policy@@QBEXQBU__crt_stdio_stream_data@@@Z 100635b3 f i libucrt:stream.obj
 0001:000625c5       ??0?$__crt_unique_heap_ptr@U__crt_stdio_stream_data@@U__crt_internal_free_policy@@@@QAE@QAU__crt_stdio_stream_data@@@Z 100635c5 f i libucrt:stream.obj
 0001:000625d5       ??0__crt_stdio_stream@@QAE@XZ 100635d5 f i libucrt:stream.obj
 0001:000625db       ??1?$__crt_unique_heap_ptr@U__crt_stdio_stream_data@@U__crt_internal_free_policy@@@@QAE@XZ 100635db f i libucrt:stream.obj
 0001:000625ed       ?__acrt_stdio_allocate_stream@@YA?AV__crt_stdio_stream@@XZ 100635ed f   libucrt:stream.obj
 0001:00062656       ?__acrt_stdio_free_stream@@YAXV__crt_stdio_stream@@@Z 10063656 f   libucrt:stream.obj
 0001:00062691       ?deallocate@__crt_stdio_stream@@QAEXXZ 10063691 f i libucrt:stream.obj
 0001:0006269b       ?detach@?$__crt_unique_heap_ptr@U__crt_stdio_stream_data@@U__crt_internal_free_policy@@@@QAEPAU__crt_stdio_stream_data@@XZ 1006369b f i libucrt:stream.obj
 0001:00062763       ?lock@__crt_stdio_stream@@QBEXXZ 10063763 f i libucrt:stream.obj
 0001:0006276c       ?release@?$__crt_unique_heap_ptr@U__crt_stdio_stream_data@@U__crt_internal_free_policy@@@@QAEXXZ 1006376c f i libucrt:stream.obj
 0001:0006277e       ?try_allocate@__crt_stdio_stream@@QAE_NXZ 1006377e f i libucrt:stream.obj
 0001:0006279e       ?unlock@__crt_stdio_stream@@QBEXXZ 1006379e f i libucrt:stream.obj
 0001:000628ea       ___control87_2             100638ea f   libucrt:ieee87.obj
 0001:00062d82       ___fpreset_sse2            10063d82 f   libucrt:ieee87.obj
 0001:00062f58       __clearfp                  10063f58 f   libucrt:ieee87.obj
 0001:00063036       __control87                10064036 f   libucrt:ieee87.obj
 0001:00063337       __controlfp                10064337 f   libucrt:ieee87.obj
 0001:00063351       __fpreset                  10064351 f   libucrt:ieee87.obj
 0001:00063421       __set_controlfp            10064421 f   libucrt:ieee87.obj
 0001:00063494       __statusfp                 10064494 f   libucrt:ieee87.obj
 0001:0006352f       __statusfp2                1006452f f   libucrt:ieee87.obj
 0001:000635a0       __CIlog10_pentium4         100645a0 f   libucrt:log10_pentium4.obj
 0001:000635b8       __log10_pentium4           100645b8     libucrt:log10_pentium4.obj
 0001:00063850       __fFEXP                    10064850 f   libucrt:87tran.obj
 0001:000638a7       __rtinfpopse               100648a7     libucrt:87tran.obj
 0001:000638a9       __rtinfnpopse              100648a9     libucrt:87tran.obj
 0001:000638b9       __fFLN                     100648b9     libucrt:87tran.obj
 0001:0006396e       __rtinfpop                 1006496e     libucrt:87tran.obj
 0001:00063970       __rtinfnpop                10064970     libucrt:87tran.obj
 0001:00063980       __rtforexpinf              10064980 f   libucrt:87tran.obj
 0001:0006398d       __ffexpm1                  1006498d     libucrt:87tran.obj
 0001:00063a36       ___libm_error_support      10064a36 f   libucrt:libm_error.obj
 0001:00063c2a       ___libm_setusermatherr     10064c2a f   libucrt:libm_error.obj
 0001:00063c51       __ceil_default             10064c51 f   libucrt:ceil.obj
 0001:00063d06       _fetestexcept              10064d06 f   libucrt:fetestexcept.obj
 0001:00063d26       ___acrt_LCMapStringW       10064d26 f   libucrt:lcmapstringw.obj
 0001:00063d64       ___acrt_OutputDebugStringA@4 10064d64 f   libucrt:outputdebugstringa.obj
 0001:00063dd3       __controlfp_s              10064dd3 f   libucrt:contrlfp.obj
 0001:00063e32       __d_inttype                10064e32 f   libucrt:powhlp.obj
 0001:00063e9a       __powhlp                   10064e9a f   libucrt:powhlp.obj
 0001:00063fc5       __frnd                     10064fc5 f   libucrt:frnd.obj
 0001:0006417c       __mbstowcs_l               1006517c f   libucrt:mbstowcs.obj
 0001:00064187       __mbstowcs_s_l             10065187 f   libucrt:mbstowcs.obj
 0001:00064267       _mbstowcs                  10065267 f   libucrt:mbstowcs.obj
 0001:00064291       _mbstowcs_s                10065291 f   libucrt:mbstowcs.obj
 0001:000642b1       _RaiseException@16         100652b1 f   kernel32:KERNEL32.dll
 0001:000642b7       _GetLastError@0            100652b7 f   kernel32:KERNEL32.dll
 0001:000642bd       _GetSystemInfo@4           100652bd f   kernel32:KERNEL32.dll
 0001:000642c3       _VirtualProtect@16         100652c3 f   kernel32:KERNEL32.dll
 0001:000642c9       _VirtualQuery@12           100652c9 f   kernel32:KERNEL32.dll
 0001:000642cf       _FreeLibrary@4             100652cf f   kernel32:KERNEL32.dll
 0001:000642d5       _GetModuleHandleW@4        100652d5 f   kernel32:KERNEL32.dll
 0001:000642db       _GetProcAddress@8          100652db f   kernel32:KERNEL32.dll
 0001:000642e1       _LoadLibraryExA@12         100652e1 f   kernel32:KERNEL32.dll
 0001:000642e7       _InitializeSListHead@4     100652e7 f   kernel32:KERNEL32.dll
 0001:000642ed       _IsProcessorFeaturePresent@4 100652ed f   kernel32:KERNEL32.dll
 0001:000642f3       _QueryPerformanceCounter@4 100652f3 f   kernel32:KERNEL32.dll
 0001:000642f9       _GetCurrentProcessId@0     100652f9 f   kernel32:KERNEL32.dll
 0001:000642ff       _GetCurrentThreadId@0      100652ff f   kernel32:KERNEL32.dll
 0001:00064305       _GetSystemTimeAsFileTime@4 10065305 f   kernel32:KERNEL32.dll
 0001:0006430b       _IsDebuggerPresent@0       1006530b f   kernel32:KERNEL32.dll
 0001:00064311       _UnhandledExceptionFilter@4 10065311 f   kernel32:KERNEL32.dll
 0001:00064317       _SetUnhandledExceptionFilter@4 10065317 f   kernel32:KERNEL32.dll
 0001:0006431d       _GetStartupInfoW@4         1006531d f   kernel32:KERNEL32.dll
 0001:00064323       _GetCurrentProcess@0       10065323 f   kernel32:KERNEL32.dll
 0001:00064329       _TerminateProcess@8        10065329 f   kernel32:KERNEL32.dll
 0001:0006432f       _InterlockedPushEntrySList@8 1006532f f   kernel32:KERNEL32.dll
 0001:00064335       _InterlockedFlushSList@4   10065335 f   kernel32:KERNEL32.dll
 0001:0006433b       _RtlUnwind@16              1006533b f   kernel32:KERNEL32.dll
 0001:00064341       _SetLastError@4            10065341 f   kernel32:KERNEL32.dll
 0001:00064347       _EnterCriticalSection@4    10065347 f   kernel32:KERNEL32.dll
 0001:0006434d       _LeaveCriticalSection@4    1006534d f   kernel32:KERNEL32.dll
 0001:00064353       _DeleteCriticalSection@4   10065353 f   kernel32:KERNEL32.dll
 0001:00064359       _InitializeCriticalSectionAndSpinCount@8 10065359 f   kernel32:KERNEL32.dll
 0001:0006435f       _TlsAlloc@0                1006535f f   kernel32:KERNEL32.dll
 0001:00064365       _TlsGetValue@4             10065365 f   kernel32:KERNEL32.dll
 0001:0006436b       _TlsSetValue@8             1006536b f   kernel32:KERNEL32.dll
 0001:00064371       _TlsFree@4                 10065371 f   kernel32:KERNEL32.dll
 0001:00064377       _LoadLibraryExW@12         10065377 f   kernel32:KERNEL32.dll
 0001:0006437d       _EncodePointer@4           1006537d f   kernel32:KERNEL32.dll
 0001:00064383       _ExitProcess@4             10065383 f   kernel32:KERNEL32.dll
 0001:00064389       _GetModuleHandleExW@12     10065389 f   kernel32:KERNEL32.dll
 0001:0006438f       _GetModuleFileNameW@12     1006538f f   kernel32:KERNEL32.dll
 0001:00064395       _HeapFree@12               10065395 f   kernel32:KERNEL32.dll
 0001:0006439b       _GetCurrentThread@0        1006539b f   kernel32:KERNEL32.dll
 0001:000643a1       _HeapAlloc@12              100653a1 f   kernel32:KERNEL32.dll
 0001:000643a7       _FindClose@4               100653a7 f   kernel32:KERNEL32.dll
 0001:000643ad       _FindFirstFileExW@24       100653ad f   kernel32:KERNEL32.dll
 0001:000643b3       _FindNextFileW@8           100653b3 f   kernel32:KERNEL32.dll
 0001:000643b9       _IsValidCodePage@4         100653b9 f   kernel32:KERNEL32.dll
 0001:000643bf       _GetACP@0                  100653bf f   kernel32:KERNEL32.dll
 0001:000643c5       _GetOEMCP@0                100653c5 f   kernel32:KERNEL32.dll
 0001:000643cb       _GetCPInfo@8               100653cb f   kernel32:KERNEL32.dll
 0001:000643d1       _GetCommandLineA@0         100653d1 f   kernel32:KERNEL32.dll
 0001:000643d7       _GetCommandLineW@0         100653d7 f   kernel32:KERNEL32.dll
 0001:000643dd       _MultiByteToWideChar@24    100653dd f   kernel32:KERNEL32.dll
 0001:000643e3       _WideCharToMultiByte@32    100653e3 f   kernel32:KERNEL32.dll
 0001:000643e9       _GetEnvironmentStringsW@0  100653e9 f   kernel32:KERNEL32.dll
 0001:000643ef       _FreeEnvironmentStringsW@4 100653ef f   kernel32:KERNEL32.dll
 0001:000643f5       _SetEnvironmentVariableW@8 100653f5 f   kernel32:KERNEL32.dll
 0001:000643fb       _GetDateFormatW@24         100653fb f   kernel32:KERNEL32.dll
 0001:00064401       _GetTimeFormatW@24         10065401 f   kernel32:KERNEL32.dll
 0001:00064407       _CompareStringW@24         10065407 f   kernel32:KERNEL32.dll
 0001:0006440d       _LCMapStringW@24           1006540d f   kernel32:KERNEL32.dll
 0001:00064413       _GetLocaleInfoW@16         10065413 f   kernel32:KERNEL32.dll
 0001:00064419       _IsValidLocale@8           10065419 f   kernel32:KERNEL32.dll
 0001:0006441f       _GetUserDefaultLCID@0      1006541f f   kernel32:KERNEL32.dll
 0001:00064425       _EnumSystemLocalesW@8      10065425 f   kernel32:KERNEL32.dll
 0001:0006442b       _GetProcessHeap@0          1006542b f   kernel32:KERNEL32.dll
 0001:00064431       _GetStdHandle@4            10065431 f   kernel32:KERNEL32.dll
 0001:00064437       _GetFileType@4             10065437 f   kernel32:KERNEL32.dll
 0001:0006443d       _SetConsoleCtrlHandler@8   1006543d f   kernel32:KERNEL32.dll
 0001:00064443       _GetStringTypeW@16         10065443 f   kernel32:KERNEL32.dll
 0001:00064449       _HeapSize@12               10065449 f   kernel32:KERNEL32.dll
 0001:0006444f       _HeapReAlloc@16            1006544f f   kernel32:KERNEL32.dll
 0001:00064455       _SetStdHandle@8            10065455 f   kernel32:KERNEL32.dll
 0001:0006445b       _FlushFileBuffers@4        1006545b f   kernel32:KERNEL32.dll
 0001:00064461       _WriteFile@20              10065461 f   kernel32:KERNEL32.dll
 0001:00064467       _GetConsoleCP@0            10065467 f   kernel32:KERNEL32.dll
 0001:0006446d       _GetConsoleMode@8          1006546d f   kernel32:KERNEL32.dll
 0001:00064473       _GetFileSizeEx@8           10065473 f   kernel32:KERNEL32.dll
 0001:00064479       _SetFilePointerEx@20       10065479 f   kernel32:KERNEL32.dll
 0001:0006447f       _ReadFile@20               1006547f f   kernel32:KERNEL32.dll
 0001:00064485       _ReadConsoleW@20           10065485 f   kernel32:KERNEL32.dll
 0001:0006448b       _OutputDebugStringW@4      1006548b f   kernel32:KERNEL32.dll
 0001:00064491       _CreateFileW@28            10065491 f   kernel32:KERNEL32.dll
 0001:00064497       _CloseHandle@4             10065497 f   kernel32:KERNEL32.dll
 0001:0006449d       _WriteConsoleW@20          1006549d f   kernel32:KERNEL32.dll
 0001:000644a3       _DecodePointer@4           100654a3 f   kernel32:KERNEL32.dll
 0001:000644b0       __FindPESection            100654b0 f   LIBCMT:pesect.obj
 0001:00064500       __IsNonwritableInCurrentImage 10065500 f   LIBCMT:pesect.obj
 0001:000645c0       __ValidateImageBase        100655c0 f   LIBCMT:pesect.obj
 0001:000645f3       __EH_epilog3               100655f3 f   LIBCMT:ehprolg3.obj
 0001:00064608       __EH_epilog3_GS            10065608 f   LIBCMT:ehprolg3.obj
 0001:00064619       __EH_epilog3_catch_GS      10065619 f   LIBCMT:ehprolg3.obj
 0001:0006462a       __EH_prolog3               1006562a f   LIBCMT:ehprolg3.obj
 0001:0006465e       __EH_prolog3_GS            1006565e f   LIBCMT:ehprolg3.obj
 0001:00064695       __EH_prolog3_catch         10065695 f   LIBCMT:ehprolg3.obj
 0001:000646cc       __EH_prolog3_catch_GS      100656cc f   LIBCMT:ehprolg3.obj
 0001:00064710       __aulldvrm                 10065710 f   LIBCMT:ulldvrm.obj
 0001:000647b0       __allmul                   100657b0 f   LIBCMT:llmul.obj
 0001:000647f0       __alldvrm                  100657f0 f   LIBCMT:lldvrm.obj
 0001:000648d0       __aullshr                  100658d0 f   LIBCMT:ullshr.obj
 0001:000648f0       __allshl                   100658f0 f   LIBCMT:llshl.obj
 0001:00064910       __ftol2_sse_excpt          10065910     LIBCMT:ftol2.obj
 0001:00064910       __ftoi2                    10065910 f   LIBCMT:ftol2.obj
 0001:00064910       __ftol2_sse                10065910     LIBCMT:ftol2.obj
 0001:00064990       __ftoui2                   10065990 f   LIBCMT:ftol2.obj
 0001:00064a40       __ftol2                    10065a40 f   LIBCMT:ftol2.obj
 0001:00064af0       __ftoul2                   10065af0 f   LIBCMT:ftol2.obj
 0001:00064ba9       __initialize_default_precision 10065ba9 f   LIBCMT:default_precision.obj
 0001:00064bca       _wcschr                    10065bca f   libvcruntime:wcschr.obj
 0001:00064ca0       _strrchr                   10065ca0 f   libvcruntime:strrchr.obj
 0001:00064ecc       _memcmp                    10065ecc f   libvcruntime:memcmp.obj
 0001:00066c1c       __filter_x86_sse2_floating_point_exception 10067c1c f   LIBCMT:x86_exception_filter.obj
 0001:00066c1c       __filter_x86_sse2_floating_point_exception_default 10067c1c f   LIBCMT:x86_exception_filter.obj
 0002:00000000       __imp__LoadLibraryA@4      10068000     kernel32:KERNEL32.dll
 0002:00000004       __imp__WriteConsoleW@20    10068004     kernel32:KERNEL32.dll
 0002:00000008       __imp__RaiseException@16   10068008     kernel32:KERNEL32.dll
 0002:0000000c       __imp__GetLastError@0      1006800c     kernel32:KERNEL32.dll
 0002:00000010       __imp__GetSystemInfo@4     10068010     kernel32:KERNEL32.dll
 0002:00000014       __imp__VirtualProtect@16   10068014     kernel32:KERNEL32.dll
 0002:00000018       __imp__VirtualQuery@12     10068018     kernel32:KERNEL32.dll
 0002:0000001c       __imp__FreeLibrary@4       1006801c     kernel32:KERNEL32.dll
 0002:00000020       __imp__GetModuleHandleW@4  10068020     kernel32:KERNEL32.dll
 0002:00000024       __imp__GetProcAddress@8    10068024     kernel32:KERNEL32.dll
 0002:00000028       __imp__LoadLibraryExA@12   10068028     kernel32:KERNEL32.dll
 0002:0000002c       __imp__InitializeSListHead@4 1006802c     kernel32:KERNEL32.dll
 0002:00000030       __imp__IsProcessorFeaturePresent@4 10068030     kernel32:KERNEL32.dll
 0002:00000034       __imp__QueryPerformanceCounter@4 10068034     kernel32:KERNEL32.dll
 0002:00000038       __imp__GetCurrentProcessId@0 10068038     kernel32:KERNEL32.dll
 0002:0000003c       __imp__GetCurrentThreadId@0 1006803c     kernel32:KERNEL32.dll
 0002:00000040       __imp__GetSystemTimeAsFileTime@4 10068040     kernel32:KERNEL32.dll
 0002:00000044       __imp__IsDebuggerPresent@0 10068044     kernel32:KERNEL32.dll
 0002:00000048       __imp__UnhandledExceptionFilter@4 10068048     kernel32:KERNEL32.dll
 0002:0000004c       __imp__SetUnhandledExceptionFilter@4 1006804c     kernel32:KERNEL32.dll
 0002:00000050       __imp__GetStartupInfoW@4   10068050     kernel32:KERNEL32.dll
 0002:00000054       __imp__GetCurrentProcess@0 10068054     kernel32:KERNEL32.dll
 0002:00000058       __imp__TerminateProcess@8  10068058     kernel32:KERNEL32.dll
 0002:0000005c       __imp__InterlockedPushEntrySList@8 1006805c     kernel32:KERNEL32.dll
 0002:00000060       __imp__InterlockedFlushSList@4 10068060     kernel32:KERNEL32.dll
 0002:00000064       __imp__RtlUnwind@16        10068064     kernel32:KERNEL32.dll
 0002:00000068       __imp__SetLastError@4      10068068     kernel32:KERNEL32.dll
 0002:0000006c       __imp__EnterCriticalSection@4 1006806c     kernel32:KERNEL32.dll
 0002:00000070       __imp__LeaveCriticalSection@4 10068070     kernel32:KERNEL32.dll
 0002:00000074       __imp__DeleteCriticalSection@4 10068074     kernel32:KERNEL32.dll
 0002:00000078       __imp__InitializeCriticalSectionAndSpinCount@8 10068078     kernel32:KERNEL32.dll
 0002:0000007c       __imp__TlsAlloc@0          1006807c     kernel32:KERNEL32.dll
 0002:00000080       __imp__TlsGetValue@4       10068080     kernel32:KERNEL32.dll
 0002:00000084       __imp__TlsSetValue@8       10068084     kernel32:KERNEL32.dll
 0002:00000088       __imp__TlsFree@4           10068088     kernel32:KERNEL32.dll
 0002:0000008c       __imp__LoadLibraryExW@12   1006808c     kernel32:KERNEL32.dll
 0002:00000090       __imp__EncodePointer@4     10068090     kernel32:KERNEL32.dll
 0002:00000094       __imp__ExitProcess@4       10068094     kernel32:KERNEL32.dll
 0002:00000098       __imp__GetModuleHandleExW@12 10068098     kernel32:KERNEL32.dll
 0002:0000009c       __imp__GetModuleFileNameW@12 1006809c     kernel32:KERNEL32.dll
 0002:000000a0       __imp__HeapFree@12         100680a0     kernel32:KERNEL32.dll
 0002:000000a4       __imp__GetCurrentThread@0  100680a4     kernel32:KERNEL32.dll
 0002:000000a8       __imp__HeapAlloc@12        100680a8     kernel32:KERNEL32.dll
 0002:000000ac       __imp__FindClose@4         100680ac     kernel32:KERNEL32.dll
 0002:000000b0       __imp__FindFirstFileExW@24 100680b0     kernel32:KERNEL32.dll
 0002:000000b4       __imp__FindNextFileW@8     100680b4     kernel32:KERNEL32.dll
 0002:000000b8       __imp__IsValidCodePage@4   100680b8     kernel32:KERNEL32.dll
 0002:000000bc       __imp__GetACP@0            100680bc     kernel32:KERNEL32.dll
 0002:000000c0       __imp__GetOEMCP@0          100680c0     kernel32:KERNEL32.dll
 0002:000000c4       __imp__GetCPInfo@8         100680c4     kernel32:KERNEL32.dll
 0002:000000c8       __imp__GetCommandLineA@0   100680c8     kernel32:KERNEL32.dll
 0002:000000cc       __imp__GetCommandLineW@0   100680cc     kernel32:KERNEL32.dll
 0002:000000d0       __imp__MultiByteToWideChar@24 100680d0     kernel32:KERNEL32.dll
 0002:000000d4       __imp__WideCharToMultiByte@32 100680d4     kernel32:KERNEL32.dll
 0002:000000d8       __imp__GetEnvironmentStringsW@0 100680d8     kernel32:KERNEL32.dll
 0002:000000dc       __imp__FreeEnvironmentStringsW@4 100680dc     kernel32:KERNEL32.dll
 0002:000000e0       __imp__SetEnvironmentVariableW@8 100680e0     kernel32:KERNEL32.dll
 0002:000000e4       __imp__GetDateFormatW@24   100680e4     kernel32:KERNEL32.dll
 0002:000000e8       __imp__GetTimeFormatW@24   100680e8     kernel32:KERNEL32.dll
 0002:000000ec       __imp__CompareStringW@24   100680ec     kernel32:KERNEL32.dll
 0002:000000f0       __imp__LCMapStringW@24     100680f0     kernel32:KERNEL32.dll
 0002:000000f4       __imp__GetLocaleInfoW@16   100680f4     kernel32:KERNEL32.dll
 0002:000000f8       __imp__IsValidLocale@8     100680f8     kernel32:KERNEL32.dll
 0002:000000fc       __imp__GetUserDefaultLCID@0 100680fc     kernel32:KERNEL32.dll
 0002:00000100       __imp__EnumSystemLocalesW@8 10068100     kernel32:KERNEL32.dll
 0002:00000104       __imp__GetProcessHeap@0    10068104     kernel32:KERNEL32.dll
 0002:00000108       __imp__GetStdHandle@4      10068108     kernel32:KERNEL32.dll
 0002:0000010c       __imp__GetFileType@4       1006810c     kernel32:KERNEL32.dll
 0002:00000110       __imp__SetConsoleCtrlHandler@8 10068110     kernel32:KERNEL32.dll
 0002:00000114       __imp__GetStringTypeW@16   10068114     kernel32:KERNEL32.dll
 0002:00000118       __imp__HeapSize@12         10068118     kernel32:KERNEL32.dll
 0002:0000011c       __imp__HeapReAlloc@16      1006811c     kernel32:KERNEL32.dll
 0002:00000120       __imp__SetStdHandle@8      10068120     kernel32:KERNEL32.dll
 0002:00000124       __imp__FlushFileBuffers@4  10068124     kernel32:KERNEL32.dll
 0002:00000128       __imp__WriteFile@20        10068128     kernel32:KERNEL32.dll
 0002:0000012c       __imp__GetConsoleCP@0      1006812c     kernel32:KERNEL32.dll
 0002:00000130       __imp__GetConsoleMode@8    10068130     kernel32:KERNEL32.dll
 0002:00000134       __imp__GetFileSizeEx@8     10068134     kernel32:KERNEL32.dll
 0002:00000138       __imp__SetFilePointerEx@20 10068138     kernel32:KERNEL32.dll
 0002:0000013c       __imp__ReadFile@20         1006813c     kernel32:KERNEL32.dll
 0002:00000140       __imp__ReadConsoleW@20     10068140     kernel32:KERNEL32.dll
 0002:00000144       __imp__OutputDebugStringW@4 10068144     kernel32:KERNEL32.dll
 0002:00000148       __imp__CreateFileW@28      10068148     kernel32:KERNEL32.dll
 0002:0000014c       __imp__CloseHandle@4       1006814c     kernel32:KERNEL32.dll
 0002:00000150       __imp__DecodePointer@4     10068150     kernel32:KERNEL32.dll
 0002:00000154       \177KERNEL32_NULL_THUNK_DATA 10068154     kernel32:KERNEL32.dll
 0002:00000158       ___guard_check_icall_fptr  10068158     LIBCMT:guard_support.obj
 0002:0000015c       ___guard_xfg_check_icall_fptr 1006815c     LIBCMT:guard_support.obj
 0002:00000160       ___xc_a                    10068160     LIBCMT:initializers.obj
 0002:00000254       ___xc_z                    10068254     LIBCMT:initializers.obj
 0002:00000258       ___xi_a                    10068258     LIBCMT:initializers.obj
 0002:0000025c       ___acrt_multibyte_initializer 1006825c     libucrt:multibyte_initializer.obj
 0002:00000260       ___acrt_stdio_initializer  10068260     libucrt:stdio_initializer.obj
 0002:00000264       ___acrt_tran_sse2_initializer 10068264     libucrt:sse2_initializer.obj
 0002:00000268       ___xi_z                    10068268     LIBCMT:initializers.obj
 0002:0000026c       ___xp_a                    1006826c     LIBCMT:initializers.obj
 0002:00000270       ___acrt_locale_terminator  10068270     libucrt:locale_initializer.obj
 0002:00000274       ___dcrt_console_output_terminator 10068274     libucrt:console_output_initializer.obj
 0002:00000278       ___acrt_stdio_terminator   10068278     libucrt:stdio_initializer.obj
 0002:0000027c       ___xp_z                    1006827c     LIBCMT:initializers.obj
 0002:00000280       ___xt_a                    10068280     LIBCMT:initializers.obj
 0002:00000284       ___xt_z                    10068284     LIBCMT:initializers.obj
 0002:00000290       ??_7PxFoundation@physx@@6B@ 10068290     Adjacencies.obj
 0002:000002b0       ??_C@_0DC@DMHHONHL@Adjacencies?3?3GetBoundaryVertice@ 100682b0     Adjacencies.obj
 0002:000002e8       ??_C@_0EP@LKFEPHJ@C?3?2Users?248511?2Desktop?2PhysX?94?4@ 100682e8     Adjacencies.obj
 0002:00000338       ??_C@_0CK@KKNAOLHI@Adjacencies?3?3MakeLastRef?3?5NULL?5@ 10068338     Adjacencies.obj
 0002:00000364       ??_C@_0DA@FMEHLBKI@Adjacencies?3?3UpdateLink?3?5invali@ 10068364     Adjacencies.obj
 0002:00000398       ??_C@_0EA@CPHOACLK@Adjacencies?3?3CreateDatabase?3?5ca@ 10068398     Adjacencies.obj
 0002:000003d8       ??_C@_0BM@OIFKLHDN@?$DMallocation?5names?5disabled?$DO@ 100683d8     Adjacencies.obj
 0002:00000400       ?g_PXSinCoefficients0@aos@shdfnd@physx@@3UPX_VECTORF32@123@B 10068400     Cooking.obj
 0002:00000410       ?g_PXSinCoefficients1@aos@shdfnd@physx@@3UPX_VECTORF32@123@B 10068410     Cooking.obj
 0002:00000420       ?g_PXSinCoefficients2@aos@shdfnd@physx@@3UPX_VECTORF32@123@B 10068420     Cooking.obj
 0002:00000430       ?g_PXCosCoefficients0@aos@shdfnd@physx@@3UPX_VECTORF32@123@B 10068430     Cooking.obj
 0002:00000440       ?g_PXCosCoefficients1@aos@shdfnd@physx@@3UPX_VECTORF32@123@B 10068440     Cooking.obj
 0002:00000450       ?g_PXCosCoefficients2@aos@shdfnd@physx@@3UPX_VECTORF32@123@B 10068450     Cooking.obj
 0002:00000460       ?g_PXTanCoefficients0@aos@shdfnd@physx@@3UPX_VECTORF32@123@B 10068460     Cooking.obj
 0002:00000470       ?g_PXTanCoefficients1@aos@shdfnd@physx@@3UPX_VECTORF32@123@B 10068470     Cooking.obj
 0002:00000480       ?g_PXTanCoefficients2@aos@shdfnd@physx@@3UPX_VECTORF32@123@B 10068480     Cooking.obj
 0002:00000490       ?g_PXASinCoefficients0@aos@shdfnd@physx@@3UPX_VECTORF32@123@B 10068490     Cooking.obj
 0002:000004a0       ?g_PXASinCoefficients1@aos@shdfnd@physx@@3UPX_VECTORF32@123@B 100684a0     Cooking.obj
 0002:000004b0       ?g_PXASinCoefficients2@aos@shdfnd@physx@@3UPX_VECTORF32@123@B 100684b0     Cooking.obj
 0002:000004c0       ?g_PXATanCoefficients0@aos@shdfnd@physx@@3UPX_VECTORF32@123@B 100684c0     Cooking.obj
 0002:000004d0       ?g_PXATanCoefficients1@aos@shdfnd@physx@@3UPX_VECTORF32@123@B 100684d0     Cooking.obj
 0002:000004e0       ?g_PXATanCoefficients2@aos@shdfnd@physx@@3UPX_VECTORF32@123@B 100684e0     Cooking.obj
 0002:000004f0       ?g_PXSinEstCoefficients@aos@shdfnd@physx@@3UPX_VECTORF32@123@B 100684f0     Cooking.obj
 0002:00000500       ?g_PXCosEstCoefficients@aos@shdfnd@physx@@3UPX_VECTORF32@123@B 10068500     Cooking.obj
 0002:00000510       ?g_PXTanEstCoefficients@aos@shdfnd@physx@@3UPX_VECTORF32@123@B 10068510     Cooking.obj
 0002:00000520       ?g_PXATanEstCoefficients@aos@shdfnd@physx@@3UPX_VECTORF32@123@B 10068520     Cooking.obj
 0002:00000530       ?g_PXASinEstCoefficients@aos@shdfnd@physx@@3UPX_VECTORF32@123@B 10068530     Cooking.obj
 0002:00000540       ?g_PXASinEstConstants@aos@shdfnd@physx@@3UPX_VECTORF32@123@B 10068540     Cooking.obj
 0002:00000550       ?g_PXPiConstants0@aos@shdfnd@physx@@3UPX_VECTORF32@123@B 10068550     Cooking.obj
 0002:00000560       ?g_PXReciprocalTwoPi@aos@shdfnd@physx@@3UPX_VECTORF32@123@B 10068560     Cooking.obj
 0002:00000570       ?g_PXTwoPi@aos@shdfnd@physx@@3UPX_VECTORF32@123@B 10068570     Cooking.obj
 0002:000005a0       ?sBufferSize@DebugText@Cm@physx@@2HB 100685a0     Cooking.obj
 0002:000005a4       ??_C@_06EJKDJEDO@PxBase@   100685a4     Cooking.obj
 0002:000005ac       ??_C@_0N@CDGINLLF@PxConvexMesh@ 100685ac     Cooking.obj
 0002:000005bc       ??_C@_0O@PBAKPCEC@PxHeightField@ 100685bc     Cooking.obj
 0002:000005cc       ??_7PxBase@physx@@6B@      100685cc     Cooking.obj
 0002:000005e0       ??_7PxCooking@physx@@6B@   100685e0     Cooking.obj
 0002:00000620       ??_7Cooking@physx@@6B@     10068620     Cooking.obj
 0002:00000660       ??_C@_0FC@PJIHAFK@Cooking?3?3validateTriangleMesh?3?5@ 10068660     Cooking.obj
 0002:000006b8       ??_C@_0EL@BDMINHJM@C?3?2Users?248511?2Desktop?2PhysX?94?4@ 100686b8     Cooking.obj
 0002:00000708       ??_C@_0EK@EKAIJEBL@Cooking?3?3cookConvexMesh?3?5user?9p@ 10068708     Cooking.obj
 0002:00000758       ??_C@_0FA@GFFGAPML@Cooking?3?3cookConvexMesh?3?5provid@ 10068758     Cooking.obj
 0002:000007a8       ??_C@_0EP@PKDCPNNO@Cooking?3?3cookConvexMesh?3?5provid@ 100687a8     Cooking.obj
 0002:000007f8       ??_C@_0EO@LKFMMDE@Cooking?3?3cookConvexMesh?3?5user?9p@ 100687f8     Cooking.obj
 0002:00000848       ??_C@_0EN@FCEPCAFC@Cooking?3?3createHeightField?3?5use@ 10068848     Cooking.obj
 0002:00000898       ??_C@_0EL@BIKALDPB@C?3?2Users?248511?2Desktop?2PhysX?94?4@ 10068898     Cooking.obj
 0002:000008e4       __real@3a83126f            100688e4     Cooking.obj
 0002:000008e8       __real@3f800000            100688e8     Cooking.obj
 0002:000008ec       __real@ba83126f            100688ec     Cooking.obj
 0002:000008f0       __xmm@000000003a83126f3a83126f3a83126f 100688f0     Cooking.obj
 0002:00000900       __xmm@00000000ba83126fba83126fba83126f 10068900     Cooking.obj
 0002:00000910       __xmm@80000000800000008000000080000000 10068910     Cooking.obj
 0002:00000920       ??_C@_0FA@PFLOOHHH@C?3?2Users?248511?2Desktop?2PhysX?94?4@ 10068920     CookingUtils.obj
 0002:00000970       ??_C@_06KDGGGLIJ@PxVec3@   10068970     CookingUtils.obj
 0002:00000978       ??_C@_08MOINBLFP@EdgeData@ 10068978     EdgeList.obj
 0002:00000988       ??_C@_0EM@LNAAPNFL@C?3?2Users?248511?2Desktop?2PhysX?94?4@ 10068988     EdgeList.obj
 0002:000009d4       ??_C@_0BB@OMGANHJB@EdgeTriangleData@ 100689d4     EdgeList.obj
 0002:000009e8       ??_C@_0N@HMDODPCO@EdgeDescData@ 100689e8     EdgeList.obj
 0002:000009f8       ??_C@_0BG@GLJDPFLF@EdgeList?5FacesByEdges@ 100689f8     EdgeList.obj
 0002:00000a10       ??_C@_0CO@GBNJFPN@EdgeList?3?3CreateFacesToEdges?3?5N@ 10068a10     EdgeList.obj
 0002:00000a40       ??_C@_0BN@EPPJDECF@EdgeListBuilder?5FacesByEdges@ 10068a40     EdgeList.obj
 0002:00000a60       ??_C@_0CO@EHJBBMNK@EdgeList?3?3ComputeActiveEdges?3?5N@ 10068a60     EdgeList.obj
 0002:00000a90       ??_C@_0DI@GBHLFOFP@ActiveEdges?3?3ComputeConvexEdges@ 10068a90     EdgeList.obj
 0002:00000ac8       ??_C@_0DM@JOGBLHDI@ActiveEdges?3?3ComputeConvexEdges@ 10068ac8     EdgeList.obj
 0002:00000b08       ??_C@_0ED@FEMJKPEL@ActiveEdges?3?3ComputeConvexEdges@ 10068b08     EdgeList.obj
 0002:00000b50       ??_C@_0EB@BFDPMFCD@ActiveEdges?3?3ComputeConvexEdges@ 10068b50     EdgeList.obj
 0002:00000b94       ??_C@_04DDKJGDCM@bool@     10068b94     EdgeList.obj
 0002:00000b9c       __real@00000000            10068b9c     EdgeList.obj
 0002:00000ba0       __real@bf7fbe77            10068ba0     EdgeList.obj
 0002:00000bb0       __xmm@7fffffff7fffffff7fffffff7fffffff 10068bb0     EdgeList.obj
 0002:00000bc0       ??_C@_0M@GOCDBJNH@MeshCleaner@ 10068bc0     MeshCleaner.obj
 0002:00000bd0       ??_C@_0EP@COPOGCCN@C?3?2Users?248511?2Desktop?2PhysX?94?4@ 10068bd0     MeshCleaner.obj
 0002:00000c20       __real@3f000000            10068c20     MeshCleaner.obj
 0002:00000c24       __real@4b000000            10068c24     MeshCleaner.obj
 0002:00000c28       __real@80000000            10068c28     MeshCleaner.obj
 0002:00000c2c       ??_7Quantizer@physx@@6B@   10068c2c     Quantizer.obj
 0002:00000c40       ??_7QuantizerImpl@@6B@     10068c40     Quantizer.obj
 0002:00000c58       ??_C@_0EN@DFOJPNGD@C?3?2Users?248511?2Desktop?2PhysX?94?4@ 10068c58     Quantizer.obj
 0002:00000ca8       ??_C@_05LMJPANIN@PxU32@    10068ca8     Quantizer.obj
 0002:00000cb0       __real@3f8020c5            10068cb0     Quantizer.obj
 0002:00000cb4       __real@7f7fffff            10068cb4     Quantizer.obj
 0002:00000cb8       __real@fe7fffff            10068cb8     Quantizer.obj
 0002:00000cc0       __xmm@41f00000000000000000000000000000 10068cc0     Quantizer.obj
 0002:00000cd0       __xmm@fe7fffff7e7fffff7e7fffff7e7fffff 10068cd0     Quantizer.obj
 0002:00000d00       ??_C@_09JDCJAPKD@PxBounds3@ 10068d00     BVHStructureBuilder.obj
 0002:00000d10       ??_C@_0FH@IEONEHKP@C?3?2Users?248511?2Desktop?2PhysX?94?4@ 10068d10     BVHStructureBuilder.obj
 0002:00000d68       ??_C@_0BA@KPLGFFHA@AABB?5tree?5nodes@ 10068d68     BVHStructureBuilder.obj
 0002:00000d78       __real@3ba3d70a            10068d78     BVHStructureBuilder.obj
 0002:00000da0       ?reductionFactors@SubSortQuick@physx@@2QBMB 10068da0     RTreeCooking.obj
 0002:00000dac       ?stopAtTrisPerLeaf1@SubSortQuick@physx@@2QBIB 10068dac     RTreeCooking.obj
 0002:00000e48       ??_C@_0BA@DLCJDKDM@NonTrackedAlloc@ 10068e48     RTreeCooking.obj
 0002:00000e58       ??_C@_07ELGPMHDP@metricL@  10068e58     RTreeCooking.obj
 0002:00000e60       ??_C@_0FF@EMKLGBKC@C?3?2Users?248511?2Desktop?2PhysX?94?4@ 10068e60     RTreeCooking.obj
 0002:00000eb8       ??_C@_07JPCOPIOA@metricR@  10068eb8     RTreeCooking.obj
 0002:00000ec0       ??_C@_0M@OKCMHFAG@tempPermute@ 10068ec0     RTreeCooking.obj
 0002:00000ecc       ??_C@_09CMNIGKAE@tempRanks@ 10068ecc     RTreeCooking.obj
 0002:00000ed8       ??_C@_0EK@LDIDIEAE@C?3?2Users?248511?2Desktop?2PhysX?94?4@ 10068ed8     RTreeCooking.obj
 0002:00000f28       ??_C@_0FD@LOPPIHIE@C?3?2Users?248511?2Desktop?2PhysX?94?4@ 10068f28     RTreeCooking.obj
 0002:00000f7c       __real@37800080            10068f7c     RTreeCooking.obj
 0002:00000f80       __real@3a03126f            10068f80     RTreeCooking.obj
 0002:00000f84       __real@41100000            10068f84     RTreeCooking.obj
 0002:00000f88       __real@41700000            10068f88     RTreeCooking.obj
 0002:00000f8c       __real@42200000            10068f8c     RTreeCooking.obj
 0002:00000f90       __real@ff7fffff            10068f90     RTreeCooking.obj
 0002:00000fa0       __xmm@00000004000000030000000200000001 10068fa0     RTreeCooking.obj
 0002:00000fd0       __real@34800000            10068fd0     MeshBuilder.obj
 0002:00001000       ??_7MeshDataBase@Gu@physx@@6B@ 10069000     TriangleMeshBuilder.obj
 0002:00001008       ??_C@_0EO@FPLDPOLN@C?3?2Users?248511?2Desktop?2PhysX?94?4@ 10069008     TriangleMeshBuilder.obj
 0002:00001058       ??_7TriangleMeshData@Gu@physx@@6B@ 10069058     TriangleMeshBuilder.obj
 0002:0000105c       ??_C@_0L@KBOFAKLO@mTriangles@ 1006905c     TriangleMeshBuilder.obj
 0002:00001068       ??_C@_0BA@OCOIGPII@mGRB_triIndices@ 10069068     TriangleMeshBuilder.obj
 0002:00001078       ??_7RTreeTriangleData@Gu@physx@@6B@ 10069078     TriangleMeshBuilder.obj
 0002:0000107c       ??_7BV4TriangleData@Gu@physx@@6B@ 1006907c     TriangleMeshBuilder.obj
 0002:00001080       ??_7RemapCallback@RTreeCooker@physx@@6B@ 10069080     TriangleMeshBuilder.obj
 0002:00001088       ??_7TriangleMeshBuilder@physx@@6B@ 10069088     TriangleMeshBuilder.obj
 0002:0000109c       ??_7RTreeTriangleMeshBuilder@physx@@6B@ 1006909c     TriangleMeshBuilder.obj
 0002:000010b0       ??_7BV4TriangleMeshBuilder@physx@@6B@ 100690b0     TriangleMeshBuilder.obj
 0002:000010c4       ??_C@_0M@OJJHBOGG@edgeLookups@ 100690c4     TriangleMeshBuilder.obj
 0002:000010d0       ??_C@_0FN@JMFIAEAL@C?3?2Users?248511?2Desktop?2PhysX?94?4@ 100690d0     TriangleMeshBuilder.obj
 0002:00001130       ??_C@_0BF@CCKBOJFO@Gu?3?3TriangleT?$DMPxU32?$DO@ 10069130     TriangleMeshBuilder.obj
 0002:00001148       ??_C@_0FM@GOOEPDNJ@C?3?2Users?248511?2Desktop?2PhysX?94?4@ 10069148     TriangleMeshBuilder.obj
 0002:000011a4       ??_C@_0DJ@IGODLHLP@TriangleMesh?3?5Enable?5mesh?5weldi@ 100691a4     TriangleMeshBuilder.obj
 0002:000011e0       ??_C@_0FJ@HHJLKGDF@TriangleMesh?3?5triangles?5are?5too@ 100691e0     TriangleMeshBuilder.obj
 0002:0000123c       ??_C@_0CN@KGPHHHLK@TriangleMesh?3?5mesh?5is?5too?5big?5f@ 1006923c     TriangleMeshBuilder.obj
 0002:0000126c       ??_C@_0BL@DLEDFNFP@tempNormalsPerTri_prealloc@ 1006926c     TriangleMeshBuilder.obj
 0002:00001288       ??_C@_0BD@NDAFHHFF@GRB_triAdjacencies@ 10069288     TriangleMeshBuilder.obj
 0002:0000129c       ??_C@_0DD@CMJGDCNN@TriangleMesh?3?3loadFromDesc?3?5des@ 1006929c     TriangleMeshBuilder.obj
 0002:000012d0       ??_C@_0ED@ILJJNHIP@TriangleMesh?3?3loadFromDesc?3?5mPa@ 100692d0     TriangleMeshBuilder.obj
 0002:00001314       ??_C@_0CK@BJFFGDPK@input?5mesh?5contains?5corrupted?5v@ 10069314     TriangleMeshBuilder.obj
 0002:00001340       ??_C@_0BJ@BKHDBBHO@cleaning?5the?5mesh?5failed@ 10069340     TriangleMeshBuilder.obj
 0002:0000135c       ??_C@_0BK@JIDHMMCE@BV4?5tree?5failed?5to?5build?4@ 1006935c     TriangleMeshBuilder.obj
 0002:00001378       ??_C@_0BL@DHNECNBE@BV32?5tree?5failed?5to?5build?4@ 10069378     TriangleMeshBuilder.obj
 0002:00001394       ??_7RTreeCookerRemap@physx@@6B@ 10069394     TriangleMeshBuilder.obj
 0002:0000139c       __real@48742400            1006939c     TriangleMeshBuilder.obj
 0002:000013a0       __xmm@00000003000000020000000100000000 100693a0     TriangleMeshBuilder.obj
 0002:000013d0       ??_C@_0FP@CHMJMFPO@C?3?2Users?248511?2Desktop?2PhysX?94?4@ 100693d0     BigConvexDataBuilder.obj
 0002:00001430       ??_C@_0BD@PGLLAGCI@BigConvexData?5data@ 10069430     BigConvexDataBuilder.obj
 0002:00001444       __real@40000000            10069444     BigConvexDataBuilder.obj
 0002:00001470       ??_C@_0FM@PMFKBBLM@C?3?2Users?248511?2Desktop?2PhysX?94?4@ 10069470     ConvexHullBuilder.obj
 0002:000014d0       ??_C@_0EB@DCEIFDGC@ConvexHullBuilder?3?3init?3?5convex@ 100694d0     ConvexHullBuilder.obj
 0002:00001514       ??_C@_0BE@KOOOMNLC@Gu?3?3HullPolygonData@ 10069514     ConvexHullBuilder.obj
 0002:00001528       ??_C@_0FM@KICBLCBH@Gu?3?3ConvexMesh?3?3checkHullPolygo@ 10069528     ConvexHullBuilder.obj
 0002:00001588       ??_C@_0GO@HBFIOGLL@Gu?3?3ConvexMesh?3?3checkHullPolygo@ 10069588     ConvexHullBuilder.obj
 0002:000015f8       ??_C@_0BE@EJGGFHND@ConvexHullData?5data@ 100695f8     ConvexHullBuilder.obj
 0002:00001610       ??_C@_0HF@OLJFBIEL@ConvexHullBuilder?3?5convex?5hull?5@ 10069610     ConvexHullBuilder.obj
 0002:00001688       ??_C@_0OG@JNHFOIL@ConvexHullBuilder?3?5convex?5hull?5@ 10069688     ConvexHullBuilder.obj
 0002:00001770       ??_C@_0EJ@NIOIBAKH@Cooking?3?3cookConvexMesh?3?5non?9ma@ 10069770     ConvexHullBuilder.obj
 0002:000017bc       __real@3ca3d70a            100697bc     ConvexHullBuilder.obj
 0002:000017c0       __real@3eaaaaab            100697c0     ConvexHullBuilder.obj
 0002:000017c4       ??_7ConvexHullLib@physx@@6B@ 100697c4     ConvexHullLib.obj
 0002:000017d8       ??_C@_0FI@IBALPPJH@C?3?2Users?248511?2Desktop?2PhysX?94?4@ 100697d8     ConvexHullLib.obj
 0002:00001830       ??_C@_0JE@PABBNGEL@ConvexHullLib?3?3cleanupVertices?3@ 10069830     ConvexHullLib.obj
 0002:000018c4       __real@358637bd            100698c4     ConvexHullLib.obj
 0002:000018c8       __real@38d1b717            100698c8     ConvexHullLib.obj
 0002:000018cc       __real@3c23d70a            100698cc     ConvexHullLib.obj
 0002:000018d0       __real@3d4ccccd            100698d0     ConvexHullLib.obj
 0002:00001900       ??_C@_0FK@KGFPJPLP@C?3?2Users?248511?2Desktop?2PhysX?94?4@ 10069900     ConvexHullUtils.obj
 0002:0000195c       ??_C@_04NCKNBPPK@PxU8@     1006995c     ConvexHullUtils.obj
 0002:00001964       ??_C@_05CDCIKCPI@Vec4V@    10069964     ConvexHullUtils.obj
 0002:0000196c       __real@00800000            1006996c     ConvexHullUtils.obj
 0002:00001970       __real@3e20d97c            10069970     ConvexHullUtils.obj
 0002:00001974       __real@4e6e6b28            10069974     ConvexHullUtils.obj
 0002:00001978       __real@bf000000            10069978     ConvexHullUtils.obj
 0002:000019a0       ??_C@_0DF@LLFJIJGM@Gu?3?3ConvexMesh?3?3loadFromDesc?3?5d@ 100699a0     ConvexMeshBuilder.obj
 0002:000019d8       ??_C@_0FM@DCPOLBOJ@C?3?2Users?248511?2Desktop?2PhysX?94?4@ 100699d8     ConvexMeshBuilder.obj
 0002:00001a38       ??_C@_0HK@JOGKIEAA@Gu?3?3ConvexMesh?3?5Mesh?5has?5a?5nega@ 10069a38     ConvexMeshBuilder.obj
 0002:00001ab4       ??_C@_0DH@NJPPHFFD@Gu?3?3ConvexMesh?3?5Error?5computing@ 10069ab4     ConvexMeshBuilder.obj
 0002:00001aec       ??_C@_0DJ@LJDLGLDJ@Gu?3?3ConvexMesh?3?3loadConvexHull?3@ 10069aec     ConvexMeshBuilder.obj
 0002:00001b28       ??_C@_0HJ@KJANPPOE@ConvexMeshBuilder?3?3computeHullP@ 10069b28     ConvexMeshBuilder.obj
 0002:00001ba4       ??_C@_0O@JMAGMMGG@PxHullPolygon@ 10069ba4     ConvexMeshBuilder.obj
 0002:00001bb4       __real@33d6bf95            10069bb4     ConvexMeshBuilder.obj
 0002:00001bb8       __real@3f13cd3a            10069bb8     ConvexMeshBuilder.obj
 0002:00001bbc       __real@b3d6bf95            10069bbc     ConvexMeshBuilder.obj
 0002:00001bc0       __xmm@80000000000000008000000000000000 10069bc0     ConvexMeshBuilder.obj
 0002:00001bd0       __xmm@cdcdcdcdcdcdcdcdcdcdcdcdcdcdcdcd 10069bd0     ConvexMeshBuilder.obj
 0002:00001be0       ??_C@_0DP@PJBJBEGF@Meshmerizer?3?3extractHullPolygon@ 10069be0     ConvexPolygonsBuilder.obj
 0002:00001c20       ??_C@_0GA@NOIMKOJB@C?3?2Users?248511?2Desktop?2PhysX?94?4@ 10069c20     ConvexPolygonsBuilder.obj
 0002:00001c80       ??_C@_0BL@MFNKFFFN@Reduced?5vertices?5hull?5data@ 10069c80     ConvexPolygonsBuilder.obj
 0002:00001c9c       ??_C@_0DL@IAFKOCCK@ConvexHullBuilder?3?5convex?5hull?5@ 10069c9c     ConvexPolygonsBuilder.obj
 0002:00001cd8       ??_C@_0GF@OJLJHAMH@ConvexHullBuilder?3?3CreateTriang@ 10069cd8     ConvexPolygonsBuilder.obj
 0002:00001d40       __real@bf800000            10069d40     ConvexPolygonsBuilder.obj
 0002:00001d44       ??_7QuickHullConvexHullLib@physx@@6B@ 10069d44     QuickHullConvexHullLib.obj
 0002:00001d54       ??_C@_0BA@BPKNMKIA@QuickHullVertex@ 10069d54     QuickHullConvexHullLib.obj
 0002:00001d68       ??_C@_0GB@GMFHAEGI@C?3?2Users?248511?2Desktop?2PhysX?94?4@ 10069d68     QuickHullConvexHullLib.obj
 0002:00001dd0       ??_C@_0GA@EPPAEJPM@QuickHullConvexHullLib?3?3findSim@ 10069dd0     QuickHullConvexHullLib.obj
 0002:00001e30       ??_C@_0FB@NEBIJMML@QuickHullConvexHullLib?3?3findSim@ 10069e30     QuickHullConvexHullLib.obj
 0002:00001e88       ??_C@_0FB@CLLCBEMM@QuickHullConvexHullLib?3?3findSim@ 10069e88     QuickHullConvexHullLib.obj
 0002:00001edc       ??_C@_0P@OFIBMBPE@ConvexMeshDesc@ 10069edc     QuickHullConvexHullLib.obj
 0002:00001eec       ??_C@_0BD@NDHBJDBB@Quickhull?5MemBlock@ 10069eec     QuickHullConvexHullLib.obj
 0002:00001f00       __real@34c00000            10069f00     QuickHullConvexHullLib.obj
 0002:00001f04       __real@3e800000            10069f04     QuickHullConvexHullLib.obj
 0002:00001f30       __real@3c088889            10069f30     VolumeIntegration.obj
 0002:00001f34       __real@3c888889            10069f34     VolumeIntegration.obj
 0002:00001f38       __real@3d2aaaab            10069f38     VolumeIntegration.obj
 0002:00001f3c       __real@3e2aaaab            10069f3c     VolumeIntegration.obj
 0002:00001f40       __real@3f91111111111111    10069f40     VolumeIntegration.obj
 0002:00001f48       __real@3fa5555555555555    10069f48     VolumeIntegration.obj
 0002:00001f50       __real@3fa999999999999a    10069f50     VolumeIntegration.obj
 0002:00001f58       __real@3fb5555555555555    10069f58     VolumeIntegration.obj
 0002:00001f60       __real@3fc5555555555555    10069f60     VolumeIntegration.obj
 0002:00001f68       __real@3fd5555555555555    10069f68     VolumeIntegration.obj
 0002:00001f70       __real@3fe0000000000000    10069f70     VolumeIntegration.obj
 0002:00001f78       __real@3ff0000000000000    10069f78     VolumeIntegration.obj
 0002:00001f80       __real@4008000000000000    10069f80     VolumeIntegration.obj
 0002:00001f88       __real@4010000000000000    10069f88     VolumeIntegration.obj
 0002:00001f90       __real@bf91111111111111    10069f90     VolumeIntegration.obj
 0002:00001f98       __real@bfa999999999999a    10069f98     VolumeIntegration.obj
 0002:00001fa0       __real@bfb5555555555555    10069fa0     VolumeIntegration.obj
 0002:00001fa8       __real@bfc5555555555555    10069fa8     VolumeIntegration.obj
 0002:00001fb0       __xmm@3f811111111111113f81111111111111 10069fb0     VolumeIntegration.obj
 0002:00001fc0       __xmm@3f811111111111113f91111111111111 10069fc0     VolumeIntegration.obj
 0002:00001fd0       __xmm@3f911111111111113f91111111111111 10069fd0     VolumeIntegration.obj
 0002:00001fe0       __xmm@3fa55555555555553fa5555555555555 10069fe0     VolumeIntegration.obj
 0002:00001ff0       __xmm@3fa55555555555553fc5555555555555 10069ff0     VolumeIntegration.obj
 0002:00002000       ??_C@_0BA@EGLNOO@PhysXFoundation@ 1006a000     WindowsCookingDelayLoadHook.obj
 0002:00002010       ??_C@_0M@ILKNCJKN@PhysXCommon@ 1006a010     WindowsCookingDelayLoadHook.obj
 0002:00002020       __sz_PhysXCommon_32_dll    1006a020     PhysXCommon_32:PhysXCommon_32.dll
 0002:00002040       __sz_PhysXFoundation_32_dll 1006a040     PhysXFoundation_32:PhysXFoundation_32.dll
 0002:00002058       ??_C@_1BK@DBDEIDLH@?$AAK?$AAE?$AAR?$AAN?$AAE?$AAL?$AA3?$AA2?$AA?4?$AAD?$AAL?$AAL@ 1006a058     Delayimp:delayhlp.obj
 0002:00002074       ??_C@_0BI@OMNLIJDB@AcquireSRWLockExclusive@ 1006a074     Delayimp:delayhlp.obj
 0002:0000208c       ??_C@_0BI@HMIEPCNJ@ReleaseSRWLockExclusive@ 1006a08c     Delayimp:delayhlp.obj
 0002:000020a4       ___pfnDliFailureHook2      1006a0a4     Delayimp:delayhk1.obj
 0002:000020ac       ??_7type_info@@6B@         1006a0ac     LIBCMT:std_type_info_static.obj
 0002:00002130       __pDefaultRawDllMain       1006a130     LIBCMT:dll_dllmain.obj
 0002:00002130       __pRawDllMain              1006a130     LIBCMT:dll_dllmain.obj
 0002:00002138       __load_config_used         1006a138     LIBCMT:loadcfg.obj
 0002:000021f8       __pDestructExceptionObject 1006a1f8     libvcruntime:ehhelpers.obj
 0002:00002580       ??_C@_08EHJDFFNH@__based?$CI@ 1006a580     libvcruntime:undname.obj
 0002:0000258c       ??_C@_07KOLFKCDI@__cdecl@  1006a58c     libvcruntime:undname.obj
 0002:00002594       ??_C@_08GHMPAG@__pascal@   1006a594     libvcruntime:undname.obj
 0002:000025a0       ??_C@_09IFJBGAPI@__stdcall@ 1006a5a0     libvcruntime:undname.obj
 0002:000025ac       ??_C@_0L@NPHFGOKO@__thiscall@ 1006a5ac     libvcruntime:undname.obj
 0002:000025b8       ??_C@_0L@JMKHOMEK@__fastcall@ 1006a5b8     libvcruntime:undname.obj
 0002:000025c4       ??_C@_0N@BCKKPABJ@__vectorcall@ 1006a5c4     libvcruntime:undname.obj
 0002:000025d4       ??_C@_09HIJEGCPM@__clrcall@ 1006a5d4     libvcruntime:undname.obj
 0002:000025e0       ??_C@_06GHPCKEAG@__eabi@   1006a5e0     libvcruntime:undname.obj
 0002:000025e8       ??_C@_09IOPIDJLG@__swift_1@ 1006a5e8     libvcruntime:undname.obj
 0002:000025f4       ??_C@_09KFNFGKHF@__swift_2@ 1006a5f4     libvcruntime:undname.obj
 0002:00002600       ??_C@_07JOMMBBKO@__ptr64@  1006a600     libvcruntime:undname.obj
 0002:00002608       ??_C@_0L@PILCLIHE@__restrict@ 1006a608     libvcruntime:undname.obj
 0002:00002614       ??_C@_0M@GFIIJFMG@__unaligned@ 1006a614     libvcruntime:undname.obj
 0002:00002620       ??_C@_09DHDLOLLB@restrict?$CI@ 1006a620     libvcruntime:undname.obj
 0002:0000262a       ??_C@_00CNPNBAHC@@         1006a62a     libvcruntime:undname.obj
 0002:0000262c       ??_C@_04NIHEBCM@?5new@     1006a62c     libvcruntime:undname.obj
 0002:00002634       ??_C@_07FPCDHGMM@?5delete@ 1006a634     libvcruntime:undname.obj
 0002:0000263c       ??_C@_01NEMOKFLO@?$DN@     1006a63c     libvcruntime:undname.obj
 0002:00002640       ??_C@_02GPIOPFAK@?$DO?$DO@ 1006a640     libvcruntime:undname.obj
 0002:00002644       ??_C@_02FODMEDOG@?$DM?$DM@ 1006a644     libvcruntime:undname.obj
 0002:00002648       ??_C@_01DCLJPIOD@?$CB@     1006a648     libvcruntime:undname.obj
 0002:0000264c       ??_C@_02EGOFBIJA@?$DN?$DN@ 1006a64c     libvcruntime:undname.obj
 0002:00002650       ??_C@_02FDNJECIE@?$CB?$DN@ 1006a650     libvcruntime:undname.obj
 0002:00002654       ??_C@_02GPECMEKF@?$FL?$FN@ 1006a654     libvcruntime:undname.obj
 0002:00002658       ??_C@_08LHJFAFGD@operator@ 1006a658     libvcruntime:undname.obj
 0002:00002664       ??_C@_02HBOOOICD@?9?$DO@   1006a664     libvcruntime:undname.obj
 0002:00002668       ??_C@_01NBENCBCI@?$CK@     1006a668     libvcruntime:undname.obj
 0002:0000266c       ??_C@_02ECNGHCIF@?$CL?$CL@ 1006a66c     libvcruntime:undname.obj
 0002:00002670       ??_C@_02BAABKJLB@?9?9@     1006a670     libvcruntime:undname.obj
 0002:00002674       ??_C@_01JOAMLHOP@?9@       1006a674     libvcruntime:undname.obj
 0002:00002678       ??_C@_01MIFGBAGJ@?$CL@     1006a678     libvcruntime:undname.obj
 0002:0000267c       ??_C@_01HNPIGOCE@?$CG@     1006a67c     libvcruntime:undname.obj
 0002:00002680       ??_C@_03MNHNFDLC@?9?$DO?$CK@ 1006a680     libvcruntime:undname.obj
 0002:00002684       ??_C@_01KMDKNFGN@?1@       1006a684     libvcruntime:undname.obj
 0002:00002688       ??_C@_01FGNFDNOH@?$CF@     1006a688     libvcruntime:undname.obj
 0002:0000268c       ??_C@_01MNNFJEPP@?$DM@     1006a68c     libvcruntime:undname.obj
 0002:00002690       ??_C@_02EHCHHCKH@?$DM?$DN@ 1006a690     libvcruntime:undname.obj
 0002:00002694       ??_C@_01PPODPGHN@?$DO@     1006a694     libvcruntime:undname.obj
 0002:00002698       ??_C@_02EEKDKGMJ@?$DO?$DN@ 1006a698     libvcruntime:undname.obj
 0002:0000269c       ??_C@_01IHBHIGKO@?0@       1006a69c     libvcruntime:undname.obj
 0002:000026a0       ??_C@_02HCKGKOFO@?$CI?$CJ@ 1006a6a0     libvcruntime:undname.obj
 0002:000026a4       ??_C@_01PJKLJHI@?$HO@      1006a6a4     libvcruntime:undname.obj
 0002:000026a8       ??_C@_01JKBOJNNK@?$FO@     1006a6a8     libvcruntime:undname.obj
 0002:000026ac       ??_C@_01DNKMNLPK@?$HM@     1006a6ac     libvcruntime:undname.obj
 0002:000026b0       ??_C@_02PPKAJPJL@?$CG?$CG@ 1006a6b0     libvcruntime:undname.obj
 0002:000026b4       ??_C@_02NONPIBCD@?$HM?$HM@ 1006a6b4     libvcruntime:undname.obj
 0002:000026b8       ??_C@_02FPIMKNGF@?$CK?$DN@ 1006a6b8     libvcruntime:undname.obj
 0002:000026bc       ??_C@_02FOEOMHFC@?$CL?$DN@ 1006a6bc     libvcruntime:undname.obj
 0002:000026c0       ??_C@_02FKMDLLOA@?9?$DN@   1006a6c0     libvcruntime:undname.obj
 0002:000026c4       ??_C@_02FJEHGPIO@?1?$DN@   1006a6c4     libvcruntime:undname.obj
 0002:000026c8       ??_C@_02FENAOKFI@?$CF?$DN@ 1006a6c8     libvcruntime:undname.obj
 0002:000026cc       ??_C@_03IKFCCPFF@?$DO?$DO?$DN@ 1006a6cc     libvcruntime:undname.obj
 0002:000026d0       ??_C@_03CDNPDDLA@?$DM?$DM?$DN@ 1006a6d0     libvcruntime:undname.obj
 0002:000026d4       ??_C@_02FGJGFEAB@?$CG?$DN@ 1006a6d4     libvcruntime:undname.obj
 0002:000026d8       ??_C@_02DHLNPPGH@?$HM?$DN@ 1006a6d8     libvcruntime:undname.obj
 0002:000026dc       ??_C@_02MHEGNOJ@?$FO?$DN@  1006a6dc     libvcruntime:undname.obj
 0002:000026e0       ??_C@_09IFPLHPGF@?$GAvftable?8@ 1006a6e0     libvcruntime:undname.obj
 0002:000026ec       ??_C@_09BLBHBJP@?$GAvbtable?8@ 1006a6ec     libvcruntime:undname.obj
 0002:000026f8       ??_C@_07FEEIOKP@?$GAvcall?8@ 1006a6f8     libvcruntime:undname.obj
 0002:00002700       ??_C@_08LLFFHHDJ@?$GAtypeof?8@ 1006a700     libvcruntime:undname.obj
 0002:0000270c       ??_C@_0BF@KDPPACIK@?$GAlocal?5static?5guard?8@ 1006a70c     libvcruntime:undname.obj
 0002:00002724       ??_C@_08OBABFOLI@?$GAstring?8@ 1006a724     libvcruntime:undname.obj
 0002:00002730       ??_C@_0BD@JDLKDPAB@?$GAvbase?5destructor?8@ 1006a730     libvcruntime:undname.obj
 0002:00002744       ??_C@_0BN@DEGPLNFK@?$GAvector?5deleting?5destructor?8@ 1006a744     libvcruntime:undname.obj
 0002:00002764       ??_C@_0BO@OBMKPJIG@?$GAdefault?5constructor?5closure?8@ 1006a764     libvcruntime:undname.obj
 0002:00002784       ??_C@_0BN@IMDCHIKM@?$GAscalar?5deleting?5destructor?8@ 1006a784     libvcruntime:undname.obj
 0002:000027a4       ??_C@_0BO@PFGOCPJJ@?$GAvector?5constructor?5iterator?8@ 1006a7a4     libvcruntime:undname.obj
 0002:000027c4       ??_C@_0BN@LFPFMEDL@?$GAvector?5destructor?5iterator?8@ 1006a7c4     libvcruntime:undname.obj
 0002:000027e4       ??_C@_0CE@IKBNEHA@?$GAvector?5vbase?5constructor?5itera@ 1006a7e4     libvcruntime:undname.obj
 0002:00002808       ??_C@_0BL@NILFHHPC@?$GAvirtual?5displacement?5map?8@ 1006a808     libvcruntime:undname.obj
 0002:00002824       ??_C@_0CB@JONCMFFK@?$GAeh?5vector?5constructor?5iterator@ 1006a824     libvcruntime:undname.obj
 0002:00002848       ??_C@_0CA@GCEOPDGL@?$GAeh?5vector?5destructor?5iterator?8@ 1006a848     libvcruntime:undname.obj
 0002:00002868       ??_C@_0CH@OOJPLCPH@?$GAeh?5vector?5vbase?5constructor?5it@ 1006a868     libvcruntime:undname.obj
 0002:00002890       ??_C@_0BL@LLKPOHJI@?$GAcopy?5constructor?5closure?8@ 1006a890     libvcruntime:undname.obj
 0002:000028ac       ??_C@_0BA@KBCDOMBN@?$GAudt?5returning?8@ 1006a8ac     libvcruntime:undname.obj
 0002:000028bc       ??_C@_03KLGMFNMG@?$GAEH@   1006a8bc     libvcruntime:undname.obj
 0002:000028c0       ??_C@_05KHLCHHI@?$GARTTI@  1006a8c0     libvcruntime:undname.obj
 0002:000028c8       ??_C@_0BA@KKLDJDLB@?$GAlocal?5vftable?8@ 1006a8c8     libvcruntime:undname.obj
 0002:000028d8       ??_C@_0CE@IIHCMGGL@?$GAlocal?5vftable?5constructor?5clos@ 1006a8d8     libvcruntime:undname.obj
 0002:000028fc       ??_C@_06FHBGPFGH@?5new?$FL?$FN@ 1006a8fc     libvcruntime:undname.obj
 0002:00002904       ??_C@_09LBNFPBCA@?5delete?$FL?$FN@ 1006a904     libvcruntime:undname.obj
 0002:00002910       ??_C@_0P@HJKNJFNN@?$GAomni?5callsig?8@ 1006a910     libvcruntime:undname.obj
 0002:00002920       ??_C@_0BL@CNOONJFP@?$GAplacement?5delete?5closure?8@ 1006a920     libvcruntime:undname.obj
 0002:0000293c       ??_C@_0BN@CKNJLHMB@?$GAplacement?5delete?$FL?$FN?5closure?8@ 1006a93c     libvcruntime:undname.obj
 0002:0000295c       ??_C@_0CG@CFDHKGGD@?$GAmanaged?5vector?5constructor?5ite@ 1006a95c     libvcruntime:undname.obj
 0002:00002984       ??_C@_0CF@IMGKMJNO@?$GAmanaged?5vector?5destructor?5iter@ 1006a984     libvcruntime:undname.obj
 0002:000029ac       ??_C@_0CG@HLDDJMAG@?$GAeh?5vector?5copy?5constructor?5ite@ 1006a9ac     libvcruntime:undname.obj
 0002:000029d4       ??_C@_0CM@FCBBDIGB@?$GAeh?5vector?5vbase?5copy?5construct@ 1006a9d4     libvcruntime:undname.obj
 0002:00002a00       ??_C@_0BL@CLIPGLGB@?$GAdynamic?5initializer?5for?5?8@ 1006aa00     libvcruntime:undname.obj
 0002:00002a1c       ??_C@_0CB@PDBIFEP@?$GAdynamic?5atexit?5destructor?5for?5@ 1006aa1c     libvcruntime:undname.obj
 0002:00002a40       ??_C@_0CD@CGAJBKEJ@?$GAvector?5copy?5constructor?5iterat@ 1006aa40     libvcruntime:undname.obj
 0002:00002a64       ??_C@_0CJ@GJELGAMM@?$GAvector?5vbase?5copy?5constructor?5@ 1006aa64     libvcruntime:undname.obj
 0002:00002a90       ??_C@_0CL@FGIJHLCE@?$GAmanaged?5vector?5copy?5constructo@ 1006aa90     libvcruntime:undname.obj
 0002:00002abc       ??_C@_0BM@PMGGMLDN@?$GAlocal?5static?5thread?5guard?8@ 1006aabc     libvcruntime:undname.obj
 0002:00002ad8       ??_C@_0N@BDNMDMOL@operator?5?$CC?$CC?5@ 1006aad8     libvcruntime:undname.obj
 0002:00002ae8       ??_C@_0BC@GGEBGALA@operator?5co_await@ 1006aae8     libvcruntime:undname.obj
 0002:00002afc       ??_C@_0M@GAAIMMOH@operator?$DM?$DN?$DO@ 1006aafc     libvcruntime:undname.obj
 0002:00002b08       ??_C@_0BC@DAFEJGAK@?5Type?5Descriptor?8@ 1006ab08     libvcruntime:undname.obj
 0002:00002b1c       ??_C@_0BM@LDKODKLH@?5Base?5Class?5Descriptor?5at?5?$CI@ 1006ab1c     libvcruntime:undname.obj
 0002:00002b38       ??_C@_0BD@LGICGFMM@?5Base?5Class?5Array?8@ 1006ab38     libvcruntime:undname.obj
 0002:00002b4c       ??_C@_0BN@MECKDCOJ@?5Class?5Hierarchy?5Descriptor?8@ 1006ab4c     libvcruntime:undname.obj
 0002:00002b6c       ??_C@_0BK@CFCOFLF@?5Complete?5Object?5Locator?8@ 1006ab6c     libvcruntime:undname.obj
 0002:00002b88       ??_C@_0BG@JNJLAMPM@?$GAanonymous?5namespace?8@ 1006ab88     libvcruntime:undname.obj
 0002:00002ba0       ??_C@_04HEJADOOB@CV?3?5@   1006aba0     libvcruntime:undname.obj
 0002:00002ba8       ??_C@_02MOLJINC@?3?3@      1006aba8     libvcruntime:undname.obj
 0002:00002bac       ??_C@_0BE@JAEOCHPE@template?9parameter?9@ 1006abac     libvcruntime:undname.obj
 0002:00002bc0       ??_C@_0BF@LNLGBBNL@?$GAtemplate?9parameter?9@ 1006abc0     libvcruntime:undname.obj
 0002:00002bd8       ??_C@_0O@KHGCOMHP@generic?9type?9@ 1006abd8     libvcruntime:undname.obj
 0002:00002be8       ??_C@_0P@ODDENDLM@?$GAgeneric?9type?9@ 1006abe8     libvcruntime:undname.obj
 0002:00002bf8       ??_C@_02OHHJMEON@?8?8@     1006abf8     libvcruntime:undname.obj
 0002:00002bfc       ??_C@_0BN@IBLMMFAP@?$GAnon?9type?9template?9parameter@ 1006abfc     libvcruntime:undname.obj
 0002:00002c1c       ??_C@_03DLDNIBIK@?$CFlf@   1006ac1c     libvcruntime:undname.obj
 0002:00002c20       ??_C@_04OFALKAJ@?$DP?$DP_C@ 1006ac20     libvcruntime:undname.obj
 0002:00002c28       ??_C@_03KHICJKCI@?4?4?4@   1006ac28     libvcruntime:undname.obj
 0002:00002c2c       ??_C@_04HIBGFPH@NULL@      1006ac2c     libvcruntime:undname.obj
 0002:00002c34       ??_C@_02DPKJAMEF@?$CFd@    1006ac34     libvcruntime:undname.obj
 0002:00002c38       ??_C@_0BK@IHCCFNEL@?$GAtemplate?9type?9parameter?9@ 1006ac38     libvcruntime:undname.obj
 0002:00002c54       ??_C@_0BK@OFCNNNKO@?$GAgeneric?9class?9parameter?9@ 1006ac54     libvcruntime:undname.obj
 0002:00002c70       ??_C@_0BL@NGJBLFIL@?$GAgeneric?9method?9parameter?9@ 1006ac70     libvcruntime:undname.obj
 0002:00002c8c       ??_C@_04GKJNKENE@void@     1006ac8c     libvcruntime:undname.obj
 0002:00002c94       ??_C@_0BE@EODMJLIF@?$GAtemplate?9parameter@ 1006ac94     libvcruntime:undname.obj
 0002:00002ca8       ??_C@_03OPGICMGF@?$HN?8?5@ 1006aca8     libvcruntime:undname.obj
 0002:00002cac       ??_C@_02IGFCGPIL@?$HN?8@   1006acac     libvcruntime:undname.obj
 0002:00002cb0       ??_C@_0N@CBHHHENL@?$GAvtordispex?$HL@ 1006acb0     libvcruntime:undname.obj
 0002:00002cc0       ??_C@_0L@GHPFDFH@?$GAvtordisp?$HL@ 1006acc0     libvcruntime:undname.obj
 0002:00002ccc       ??_C@_0L@HNGCOGAE@?$GAadjustor?$HL@ 1006accc     libvcruntime:undname.obj
 0002:00002cd8       ??_C@_0CB@KJDOOODE@?$GAlocal?5static?5destructor?5helper@ 1006acd8     libvcruntime:undname.obj
 0002:00002cfc       ??_C@_0DB@ILEFOCIJ@?$GAtemplate?5static?5data?5member?5co@ 1006acfc     libvcruntime:undname.obj
 0002:00002d30       ??_C@_0DA@HGFJFBBE@?$GAtemplate?5static?5data?5member?5de@ 1006ad30     libvcruntime:undname.obj
 0002:00002d60       ??_C@_07PGOEDBHP@static?5@ 1006ad60     libvcruntime:undname.obj
 0002:00002d68       ??_C@_08NIEOINHE@virtual?5@ 1006ad68     libvcruntime:undname.obj
 0002:00002d74       ??_C@_09LAPHOOG@private?3?5@ 1006ad74     libvcruntime:undname.obj
 0002:00002d80       ??_C@_0M@GAIFPFIP@protected?3?5@ 1006ad80     libvcruntime:undname.obj
 0002:00002d8c       ??_C@_08GPDDCMKI@public?3?5@ 1006ad8c     libvcruntime:undname.obj
 0002:00002d98       ??_C@_08KJLFOPNE@?$FLthunk?$FN?3@ 1006ad98     libvcruntime:undname.obj
 0002:00002da4       ??_C@_0M@DHNBOJMP@extern?5?$CCC?$CC?5@ 1006ada4     libvcruntime:undname.obj
 0002:00002db0       ??_C@_02KCKGHPCA@?$CJ?5@   1006adb0     libvcruntime:undname.obj
 0002:00002db4       ??_C@_05CIHEBHNO@char?5@   1006adb4     libvcruntime:undname.obj
 0002:00002dbc       ??_C@_06EHJMALKF@short?5@  1006adbc     libvcruntime:undname.obj
 0002:00002dc4       ??_C@_04LAHKHJMA@int?5@    1006adc4     libvcruntime:undname.obj
 0002:00002dcc       ??_C@_05CJIMAING@long?5@   1006adcc     libvcruntime:undname.obj
 0002:00002dd4       ??_C@_09EBBEKKIH@unsigned?5@ 1006add4     libvcruntime:undname.obj
 0002:00002de0       ??_C@_05BEFAKPML@void?5@   1006ade0     libvcruntime:undname.obj
 0002:00002de8       ??_C@_09GAIEOBLP@volatile?5@ 1006ade8     libvcruntime:undname.obj
 0002:00002df4       ??_C@_08PABEKFH@volatile@  1006adf4     libvcruntime:undname.obj
 0002:00002e00       ??_C@_0BA@LKIJLKPP@std?3?3nullptr_t?5@ 1006ae00     libvcruntime:undname.obj
 0002:00002e10       ??_C@_0P@GCOCNKDM@std?3?3nullptr_t@ 1006ae10     libvcruntime:undname.obj
 0002:00002e20       ??_C@_0L@EGPHHEKN@?$DMellipsis?$DO@ 1006ae20     libvcruntime:undname.obj
 0002:00002e2c       ??_C@_04EENFHACM@?0?4?4?4@ 1006ae2c     libvcruntime:undname.obj
 0002:00002e34       ??_C@_0M@ELJOJFFH@?0?$DMellipsis?$DO@ 1006ae34     libvcruntime:undname.obj
 0002:00002e40       ??_C@_09DNHFEOJI@?5noexcept@ 1006ae40     libvcruntime:undname.obj
 0002:00002e4c       ??_C@_03PBJBJNON@cpu@      1006ae4c     libvcruntime:undname.obj
 0002:00002e50       ??_C@_03DCBBJBAA@amp@      1006ae50     libvcruntime:undname.obj
 0002:00002e54       ??_C@_02KEGNLNML@?0?5@     1006ae54     libvcruntime:undname.obj
 0002:00002e58       ??_C@_04ENMBGAPA@char@     1006ae58     libvcruntime:undname.obj
 0002:00002e60       ??_C@_05BFKKPKCG@short@    1006ae60     libvcruntime:undname.obj
 0002:00002e68       ??_C@_03JBIPMCLC@int@      1006ae68     libvcruntime:undname.obj
 0002:00002e6c       ??_C@_04GOKPGOLB@long@     1006ae6c     libvcruntime:undname.obj
 0002:00002e74       ??_C@_05KNFBNCOH@float@    1006ae74     libvcruntime:undname.obj
 0002:00002e7c       ??_C@_06BNJCAIGJ@double@   1006ae7c     libvcruntime:undname.obj
 0002:00002e84       ??_C@_06EBGKOKIG@__int8@   1006ae84     libvcruntime:undname.obj
 0002:00002e8c       ??_C@_07ICFHOGAF@__int16@  1006ae8c     libvcruntime:undname.obj
 0002:00002e94       ??_C@_07OFLPPHGP@__int32@  1006ae94     libvcruntime:undname.obj
 0002:00002e9c       ??_C@_07LFCOJCAC@__int64@  1006ae9c     libvcruntime:undname.obj
 0002:00002ea4       ??_C@_08GAHOLHEO@__int128@ 1006aea4     libvcruntime:undname.obj
 0002:00002eb0       ??_C@_09EEKGDCPH@?$DMunknown?$DO@ 1006aeb0     libvcruntime:undname.obj
 0002:00002ebc       ??_C@_07CFHGOPCN@char8_t@  1006aebc     libvcruntime:undname.obj
 0002:00002ec4       ??_C@_08HBIPOFJB@char16_t@ 1006aec4     libvcruntime:undname.obj
 0002:00002ed0       ??_C@_08IECNCBKG@char32_t@ 1006aed0     libvcruntime:undname.obj
 0002:00002edc       ??_C@_07CLGGIAMF@wchar_t@  1006aedc     libvcruntime:undname.obj
 0002:00002ee4       ??_C@_06GCICPBLB@__w64?5@  1006aee4     libvcruntime:undname.obj
 0002:00002eec       ??_C@_07NFANNNEC@UNKNOWN@  1006aeec     libvcruntime:undname.obj
 0002:00002ef4       ??_C@_07EDHNAJHC@signed?5@ 1006aef4     libvcruntime:undname.obj
 0002:00002efc       ??_C@_05BNCCCJPP@const@    1006aefc     libvcruntime:undname.obj
 0002:00002f04       ??_C@_09EFNPDFFP@?5volatile@ 1006af04     libvcruntime:undname.obj
 0002:00002f10       ??_C@_0P@GCIFDJCJ@?$GAunknown?5ecsu?8@ 1006af10     libvcruntime:undname.obj
 0002:00002f20       ??_C@_06MOJHIBMG@union?5@  1006af20     libvcruntime:undname.obj
 0002:00002f28       ??_C@_07DIBCDNGL@struct?5@ 1006af28     libvcruntime:undname.obj
 0002:00002f30       ??_C@_06LJBABKPM@class?5@  1006af30     libvcruntime:undname.obj
 0002:00002f38       ??_C@_08KOFANOFK@coclass?5@ 1006af38     libvcruntime:undname.obj
 0002:00002f44       ??_C@_0N@DLIEFKNA@cointerface?5@ 1006af44     libvcruntime:undname.obj
 0002:00002f54       ??_C@_05LJGMCFOG@enum?5@   1006af54     libvcruntime:undname.obj
 0002:00002f5c       ??_C@_06LIJLOJAG@const?5@  1006af5c     libvcruntime:undname.obj
 0002:00002f64       ??_C@_02KJPKDIBN@?$CG?5@   1006af64     libvcruntime:undname.obj
 0002:00002f68       ??_C@_03PCKGMOPB@?$CG?$CG?5@ 1006af68     libvcruntime:undname.obj
 0002:00002f6c       ??_C@_0M@EALIELKG@cli?3?3array?$DM@ 1006af6c     libvcruntime:undname.obj
 0002:00002f78       ??_C@_0O@GKABPPIF@cli?3?3pin_ptr?$DM@ 1006af78     libvcruntime:undname.obj
 0002:00002f88       ??_C@_02GOGNNPBN@?$CJ?$FL@ 1006af88     libvcruntime:undname.obj
 0002:00002f8c       ??_C@_06EEGAIFAK@?$HLflat?$HN@ 1006af8c     libvcruntime:undname.obj
 0002:00002f94       ??_C@_05JIBOFOHK@?$HLfor?5@ 1006af94     libvcruntime:undname.obj
 0002:00002f9c       ??_C@_02MDINNEEG@s?5@      1006af9c     libvcruntime:undname.obj
 0002:00002fa4       ??_7DNameNode@@6B@         1006afa4     libvcruntime:undname.obj
 0002:00002fb8       ??_7charNode@@6B@          1006afb8     libvcruntime:undname.obj
 0002:00002fcc       ??_7pcharNode@@6B@         1006afcc     libvcruntime:undname.obj
 0002:00002fe0       ??_7pDNameNode@@6B@        1006afe0     libvcruntime:undname.obj
 0002:00002ff4       ??_7DNameStatusNode@@6B@   1006aff4     libvcruntime:undname.obj
 0002:00003008       ??_7pairNode@@6B@          1006b008     libvcruntime:undname.obj
 0002:00003118       ??_C@_04OKOHEJBO@?5?$DP?$DP?5@ 1006b118     libvcruntime:undname.obj
 0002:00003120       ?nodes@?1??make@DNameStatusNode@@SAPBV2@W4DNameStatus@@@Z@4QBV2@B 1006b120     libvcruntime:undname.obj
 0002:0000315c       ??_C@_1DM@KHCHBNEB@?$AAa?$AAp?$AAi?$AA?9?$AAm?$AAs?$AA?9?$AAw?$AAi?$AAn?$AA?9?$AAc?$AAo?$AAr?$AAe@ 1006b15c     libvcruntime:winapi_downlevel.obj
 0002:00003198       ??_C@_1DK@LPPGFMPP@?$AAa?$AAp?$AAi?$AA?9?$AAm?$AAs?$AA?9?$AAw?$AAi?$AAn?$AA?9?$AAc?$AAo?$AAr?$AAe@ 1006b198     libvcruntime:winapi_downlevel.obj
 0002:000031d4       ??_C@_1BC@GDMECMAK@?$AAk?$AAe?$AAr?$AAn?$AAe?$AAl?$AA3?$AA2@ 1006b1d4     libvcruntime:winapi_downlevel.obj
 0002:000031e8       ??_C@_1BA@PFFKHIOG@?$AAa?$AAp?$AAi?$AA?9?$AAm?$AAs?$AA?9@ 1006b1e8     libvcruntime:winapi_downlevel.obj
 0002:00003200       ??_C@_08KNHFBNJ@FlsAlloc@  1006b200     libvcruntime:winapi_downlevel.obj
 0002:00003214       ??_C@_07PEJMOBNF@FlsFree@  1006b214     libvcruntime:winapi_downlevel.obj
 0002:00003224       ??_C@_0M@GDNOONDI@FlsGetValue@ 1006b224     libvcruntime:winapi_downlevel.obj
 0002:00003238       ??_C@_0M@JCPCPOEF@FlsSetValue@ 1006b238     libvcruntime:winapi_downlevel.obj
 0002:0000324c       ??_C@_0BM@HCFOFFN@InitializeCriticalSectionEx@ 1006b24c     libvcruntime:winapi_downlevel.obj
 0002:0000326c       ??_7exception@std@@6B@     1006b26c     libvcruntime:frame.obj
 0002:00003274       ??_C@_0BC@EOODALEL@Unknown?5exception@ 1006b274     libvcruntime:frame.obj
 0002:0000328c       ??_7bad_exception@std@@6B@ 1006b28c     libvcruntime:frame.obj
 0002:00003294       ??_C@_0O@DPKOEFFH@bad?5exception@ 1006b294     libvcruntime:frame.obj
 0002:00003868       __real@0000000000000000    1006b868     libucrt:ieeemisc.obj
 0002:00003a18       ??_C@_03KHJOGHMM@exp@      1006ba18     libucrt:fpexcept.obj
 0002:00003a1c       ??_C@_03JGHBODFD@pow@      1006ba1c     libucrt:fpexcept.obj
 0002:00003a20       ??_C@_03MGHMBJCF@log@      1006ba20     libucrt:fpexcept.obj
 0002:00003a24       ??_C@_05HGHHAHAP@log10@    1006ba24     libucrt:fpexcept.obj
 0002:00003a2c       ??_C@_04COOMCNPB@sinh@     1006ba2c     libucrt:fpexcept.obj
 0002:00003a34       ??_C@_04HPJJNFIM@cosh@     1006ba34     libucrt:fpexcept.obj
 0002:00003a3c       ??_C@_04FJHINJAO@tanh@     1006ba3c     libucrt:fpexcept.obj
 0002:00003a44       ??_C@_04FIHNOPOL@asin@     1006ba44     libucrt:fpexcept.obj
 0002:00003a4c       ??_C@_04PDIFKINK@acos@     1006ba4c     libucrt:fpexcept.obj
 0002:00003a54       ??_C@_04MLLJIGOK@atan@     1006ba54     libucrt:fpexcept.obj
 0002:00003a5c       ??_C@_05KNGEOGJB@atan2@    1006ba5c     libucrt:fpexcept.obj
 0002:00003a64       ??_C@_04EIAKFFMI@sqrt@     1006ba64     libucrt:fpexcept.obj
 0002:00003a6c       ??_C@_03BLEJJJBH@sin@      1006ba6c     libucrt:fpexcept.obj
 0002:00003a70       ??_C@_03LALBNOCG@cos@      1006ba70     libucrt:fpexcept.obj
 0002:00003a74       ??_C@_03IIINPABG@tan@      1006ba74     libucrt:fpexcept.obj
 0002:00003a78       ??_C@_04GFPJNGEK@ceil@     1006ba78     libucrt:fpexcept.obj
 0002:00003a80       ??_C@_05PBJFFIGL@floor@    1006ba80     libucrt:fpexcept.obj
 0002:00003a88       ??_C@_04ODHECPBC@fabs@     1006ba88     libucrt:fpexcept.obj
 0002:00003a90       ??_C@_04EHEDPDJG@modf@     1006ba90     libucrt:fpexcept.obj
 0002:00003a98       ??_C@_05CEJMAHNP@ldexp@    1006ba98     libucrt:fpexcept.obj
 0002:00003aa0       ??_C@_05KBKMEMPO@_cabs@    1006baa0     libucrt:fpexcept.obj
 0002:00003aa8       ??_C@_06MEIMCGCF@_hypot@   1006baa8     libucrt:fpexcept.obj
 0002:00003ab0       ??_C@_04KEPJIHGP@fmod@     1006bab0     libucrt:fpexcept.obj
 0002:00003ab8       ??_C@_05GKKHEGJL@frexp@    1006bab8     libucrt:fpexcept.obj
 0002:00003ac0       ??_C@_03MJLDFKDL@_y0@      1006bac0     libucrt:fpexcept.obj
 0002:00003ac4       ??_C@_03NAKIGLHK@_y1@      1006bac4     libucrt:fpexcept.obj
 0002:00003ac8       ??_C@_03ONILCKOB@_yn@      1006bac8     libucrt:fpexcept.obj
 0002:00003acc       ??_C@_05JGDBENOH@_logb@    1006bacc     libucrt:fpexcept.obj
 0002:00003ad4       ??_C@_0L@KDOEJCKC@_nextafter@ 1006bad4     libucrt:fpexcept.obj
 0002:00003ae0       ___acrt_exception_action_table 1006bae0     libucrt:exception_filter.obj
 0002:00003b70       ___acrt_signal_action_table_count 1006bb70     libucrt:exception_filter.obj
 0002:00003b74       ___acrt_signal_action_table_size 1006bb74     libucrt:exception_filter.obj
 0002:00003b78       ___acrt_signal_action_first_fpe_index 1006bb78     libucrt:exception_filter.obj
 0002:00003b7c       ___acrt_signal_action_fpe_count 1006bb7c     libucrt:exception_filter.obj
 0002:00003b80       _RtlNtPathSeperatorString  1006bb80     libucrt:exit.obj
 0002:00003b88       ??_C@_13FPGAJAPJ@?$AA?2@   1006bb88     libucrt:exit.obj
 0002:00003b8c       _RtlDosPathSeperatorsString 1006bb8c     libucrt:exit.obj
 0002:00003b94       ??_C@_15MNCACJLI@?$AA?2?$AA?1@ 1006bb94     libucrt:exit.obj
 0002:00003b9c       _RtlAlternateDosPathSeperatorString 1006bb9c     libucrt:exit.obj
 0002:00003ba4       ??_C@_13CGOKJPIL@?$AA?1@   1006bba4     libucrt:exit.obj
 0002:00003ba8       ??_C@_1BI@BGOHAHKC@?$AAm?$AAs?$AAc?$AAo?$AAr?$AAe?$AAe?$AA?4?$AAd?$AAl?$AAl@ 1006bba8     libucrt:exit.obj
 0002:00003bc0       ??_C@_0P@MIGLKIOC@CorExitProcess@ 1006bbc0     libucrt:exit.obj
 0002:00003c50       _standard_lookup_table     1006bc50     libucrt:output.obj
 0002:00003cb0       _format_validation_lookup_table 1006bcb0     libucrt:output.obj
 0002:00003d0c       ??_C@_1O@CEDCILHN@?$AA?$CI?$AAn?$AAu?$AAl?$AAl?$AA?$CJ@ 1006bd0c     libucrt:output.obj
 0002:00003d1c       ??_C@_06OJHGLDPL@?$CInull?$CJ@ 1006bd1c     libucrt:output.obj
 0002:00003d24       __Fenv1                    1006bd24     libucrt:atox.obj
 0002:00003d30       __d_inf                    1006bd30     libucrt:util.obj
 0002:00003d38       __d_ind                    1006bd38     libucrt:util.obj
 0002:00003d40       __d_max                    1006bd40     libucrt:util.obj
 0002:00003d48       __d_min                    1006bd48     libucrt:util.obj
 0002:00003d50       __d_mzero                  1006bd50     libucrt:util.obj
 0002:00003d70       ___acrt_cosf_sinf_ctable   1006bd70     libucrt:cosf_sinf_ctable.obj
 0002:000042e8       ??_C@_1M@HPNHIDJI@?$AAj?$AAa?$AA?9?$AAJ?$AAP@ 1006c2e8     libucrt:mbctype.obj
 0002:000042f4       ??_C@_1M@BIBDDEMK@?$AAz?$AAh?$AA?9?$AAC?$AAN@ 1006c2f4     libucrt:mbctype.obj
 0002:00004300       ??_C@_1M@JLOOOEGK@?$AAk?$AAo?$AA?9?$AAK?$AAR@ 1006c300     libucrt:mbctype.obj
 0002:0000430c       ??_C@_1M@CLNBBOPM@?$AAz?$AAh?$AA?9?$AAT?$AAW@ 1006c30c     libucrt:mbctype.obj
 0002:00004368       ??_C@_1EA@JGEFHKEI@?$AAa?$AAp?$AAi?$AA?9?$AAm?$AAs?$AA?9?$AAw?$AAi?$AAn?$AA?9?$AAc?$AAo?$AAr?$AAe@ 1006c368     libucrt:winapi_thunks.obj
 0002:000043a8       ??_C@_1DI@IJCEHOCB@?$AAa?$AAp?$AAi?$AA?9?$AAm?$AAs?$AA?9?$AAw?$AAi?$AAn?$AA?9?$AAc?$AAo?$AAr?$AAe@ 1006c3a8     libucrt:winapi_thunks.obj
 0002:000043e0       ??_C@_1EI@MPIAOHOC@?$AAa?$AAp?$AAi?$AA?9?$AAm?$AAs?$AA?9?$AAw?$AAi?$AAn?$AA?9?$AAc?$AAo?$AAr?$AAe@ 1006c3e0     libucrt:winapi_thunks.obj
 0002:00004428       ??_C@_1FK@FPHCKFIE@?$AAa?$AAp?$AAi?$AA?9?$AAm?$AAs?$AA?9?$AAw?$AAi?$AAn?$AA?9?$AAc?$AAo?$AAr?$AAe@ 1006c428     libucrt:winapi_thunks.obj
 0002:00004488       ??_C@_1EM@DILCGIIO@?$AAa?$AAp?$AAi?$AA?9?$AAm?$AAs?$AA?9?$AAw?$AAi?$AAn?$AA?9?$AAc?$AAo?$AAr?$AAe@ 1006c488     libucrt:winapi_thunks.obj
 0002:000044d4       ??_C@_1DM@LNCGDDPN@?$AAa?$AAp?$AAi?$AA?9?$AAm?$AAs?$AA?9?$AAw?$AAi?$AAn?$AA?9?$AAc?$AAo?$AAr?$AAe@ 1006c4d4     libucrt:winapi_thunks.obj
 0002:00004510       ??_C@_1DO@FPAPJEMD@?$AAa?$AAp?$AAi?$AA?9?$AAm?$AAs?$AA?9?$AAw?$AAi?$AAn?$AA?9?$AAc?$AAo?$AAr?$AAe@ 1006c510     libucrt:winapi_thunks.obj
 0002:00004550       ??_C@_1DK@NDHNAHIO@?$AAa?$AAp?$AAi?$AA?9?$AAm?$AAs?$AA?9?$AAw?$AAi?$AAn?$AA?9?$AAc?$AAo?$AAr?$AAe@ 1006c550     libucrt:winapi_thunks.obj
 0002:0000458c       ??_C@_1DM@KGHDGBCM@?$AAa?$AAp?$AAi?$AA?9?$AAm?$AAs?$AA?9?$AAw?$AAi?$AAn?$AA?9?$AAc?$AAo?$AAr?$AAe@ 1006c58c     libucrt:winapi_thunks.obj
 0002:000045c8       ??_C@_1EO@IJIOEFOH@?$AAa?$AAp?$AAi?$AA?9?$AAm?$AAs?$AA?9?$AAw?$AAi?$AAn?$AA?9?$AAr?$AAt?$AAc?$AAo@ 1006c5c8     libucrt:winapi_thunks.obj
 0002:00004618       ??_C@_1FG@HHGEKANL@?$AAa?$AAp?$AAi?$AA?9?$AAm?$AAs?$AA?9?$AAw?$AAi?$AAn?$AA?9?$AAs?$AAe?$AAc?$AAu@ 1006c618     libucrt:winapi_thunks.obj
 0002:00004670       ??_C@_1EG@DBIOJECG@?$AAe?$AAx?$AAt?$AA?9?$AAm?$AAs?$AA?9?$AAw?$AAi?$AAn?$AA?9?$AAn?$AAt?$AAu?$AAs@ 1006c670     libucrt:winapi_thunks.obj
 0002:000046b8       ??_C@_1EO@FIHMJCLF@?$AAe?$AAx?$AAt?$AA?9?$AAm?$AAs?$AA?9?$AAw?$AAi?$AAn?$AA?9?$AAn?$AAt?$AAu?$AAs@ 1006c6b8     libucrt:winapi_thunks.obj
 0002:00004708       ??_C@_1BC@DNHGCMLG@?$AAa?$AAd?$AAv?$AAa?$AAp?$AAi?$AA3?$AA2@ 1006c708     libucrt:winapi_thunks.obj
 0002:0000471c       ??_C@_1M@OAIMIKLP@?$AAn?$AAt?$AAd?$AAl?$AAl@ 1006c71c     libucrt:winapi_thunks.obj
 0002:00004728       ??_C@_1EG@DPGNFKGC@?$AAa?$AAp?$AAi?$AA?9?$AAm?$AAs?$AA?9?$AAw?$AAi?$AAn?$AA?9?$AAa?$AAp?$AAp?$AAm@ 1006c728     libucrt:winapi_thunks.obj
 0002:00004770       ??_C@_1O@BCCLBEOE@?$AAu?$AAs?$AAe?$AAr?$AA3?$AA2@ 1006c770     libucrt:winapi_thunks.obj
 0002:00004780       ??_C@_1BA@IAIFMGEF@?$AAe?$AAx?$AAt?$AA?9?$AAm?$AAs?$AA?9@ 1006c780     libucrt:winapi_thunks.obj
 0002:00004794       ??_C@_0BA@FHFNEAED@AreFileApisANSI@ 1006c794     libucrt:winapi_thunks.obj
 0002:000047ac       ??_C@_0BA@IHGNDAEB@CompareStringEx@ 1006c7ac     libucrt:winapi_thunks.obj
 0002:000047c4       ??_C@_0BE@LJANKFHF@EnumSystemLocalesEx@ 1006c7c4     libucrt:winapi_thunks.obj
 0002:00004800       ??_C@_0BA@HNOPNCHB@GetActiveWindow@ 1006c800     libucrt:winapi_thunks.obj
 0002:00004818       ??_C@_0BA@EPCJIIPD@GetDateFormatEx@ 1006c818     libucrt:winapi_thunks.obj
 0002:00004830       ??_C@_0BJ@DIBIJBHA@GetEnabledXStateFeatures@ 1006c830     libucrt:winapi_thunks.obj
 0002:00004854       ??_C@_0BD@HHGDFDBJ@GetLastActivePopup@ 1006c854     libucrt:winapi_thunks.obj
 0002:00004870       ??_C@_0BA@ONOKGCMP@GetLocaleInfoEx@ 1006c870     libucrt:winapi_thunks.obj
 0002:00004888       ??_C@_0BI@DFKBFLJE@GetProcessWindowStation@ 1006c888     libucrt:winapi_thunks.obj
 0002:000048a4       ??_C@_0BP@FPNJPEJC@GetSystemTimePreciseAsFileTime@ 1006c8a4     libucrt:winapi_thunks.obj
 0002:000048cc       ??_C@_0BA@CIJJKCJJ@GetTimeFormatEx@ 1006c8cc     libucrt:winapi_thunks.obj
 0002:000048e4       ??_C@_0BJ@PBCCBIPI@GetUserDefaultLocaleName@ 1006c8e4     libucrt:winapi_thunks.obj
 0002:00004908       ??_C@_0BK@DEKFELLI@GetUserObjectInformationW@ 1006c908     libucrt:winapi_thunks.obj
 0002:0000492c       ??_C@_0BG@IKLDMBLM@GetXStateFeaturesMask@ 1006c92c     libucrt:winapi_thunks.obj
 0002:00004954       ??_C@_0BC@CELBKLLA@IsValidLocaleName@ 1006c954     libucrt:winapi_thunks.obj
 0002:00004970       ??_C@_0O@KKBNKAPF@LCMapStringEx@ 1006c970     libucrt:winapi_thunks.obj
 0002:00004988       ??_C@_0BB@CDHDDLLP@LCIDToLocaleName@ 1006c988     libucrt:winapi_thunks.obj
 0002:000049a4       ??_C@_0BB@HBDEELFH@LocaleNameToLCID@ 1006c9a4     libucrt:winapi_thunks.obj
 0002:000049c0       ??_C@_0BE@KINNKFDA@LocateXStateFeature@ 1006c9c0     libucrt:winapi_thunks.obj
 0002:000049dc       ??_C@_0M@CHKKJDAI@MessageBoxA@ 1006c9dc     libucrt:winapi_thunks.obj
 0002:000049f0       ??_C@_0M@DLDCCGNP@MessageBoxW@ 1006c9f0     libucrt:winapi_thunks.obj
 0002:00004a00       ??_C@_0N@PPOMPGGK@RoInitialize@ 1006ca00     libucrt:winapi_thunks.obj
 0002:00004a14       ??_C@_0P@LLFHBIJD@RoUninitialize@ 1006ca14     libucrt:winapi_thunks.obj
 0002:00004a28       ??_C@_0CF@OJOFEIGO@AppPolicyGetProcessTerminationM@ 1006ca28     libucrt:winapi_thunks.obj
 0002:00004a54       ??_C@_0CF@NNDFDCOC@AppPolicyGetThreadInitializatio@ 1006ca54     libucrt:winapi_thunks.obj
 0002:00004a80       ??_C@_0CE@OICFMIKE@AppPolicyGetShowDeveloperDiagno@ 1006ca80     libucrt:winapi_thunks.obj
 0002:00004aa8       ??_C@_0BL@ODDJNEDA@AppPolicyGetWindowingModel@ 1006caa8     libucrt:winapi_thunks.obj
 0002:00004acc       ??_C@_0BI@BKLFFAPO@SetThreadStackGuarantee@ 1006cacc     libucrt:winapi_thunks.obj
 0002:00004aec       ??_C@_0BC@JEAENNKH@SystemFunction036@ 1006caec     libucrt:winapi_thunks.obj
 0002:00004b00       ___lc_time_c               1006cb00     libucrt:nlsdata.obj
 0002:00004c64       ??_C@_03KOEHGMDN@Sun@      1006cc64     libucrt:nlsdata.obj
 0002:00004c68       ??_C@_03PDAGKDH@Mon@       1006cc68     libucrt:nlsdata.obj
 0002:00004c6c       ??_C@_03NAGEINEP@Tue@      1006cc6c     libucrt:nlsdata.obj
 0002:00004c70       ??_C@_03MHOMLAJA@Wed@      1006cc70     libucrt:nlsdata.obj
 0002:00004c74       ??_C@_03IOFIKPDN@Thu@      1006cc74     libucrt:nlsdata.obj
 0002:00004c78       ??_C@_03IDIOELNC@Fri@      1006cc78     libucrt:nlsdata.obj
 0002:00004c7c       ??_C@_03FEFJNEK@Sat@       1006cc7c     libucrt:nlsdata.obj
 0002:00004c80       ??_C@_06OOPIFAJ@Sunday@    1006cc80     libucrt:nlsdata.obj
 0002:00004c88       ??_C@_06JLEDEDGH@Monday@   1006cc88     libucrt:nlsdata.obj
 0002:00004c90       ??_C@_07BAAGCFCM@Tuesday@  1006cc90     libucrt:nlsdata.obj
 0002:00004c98       ??_C@_09DLIGFAKA@Wednesday@ 1006cc98     libucrt:nlsdata.obj
 0002:00004ca4       ??_C@_08HACCIKIA@Thursday@ 1006cca4     libucrt:nlsdata.obj
 0002:00004cb0       ??_C@_06JECMNKMI@Friday@   1006ccb0     libucrt:nlsdata.obj
 0002:00004cb8       ??_C@_08INBOOONO@Saturday@ 1006ccb8     libucrt:nlsdata.obj
 0002:00004cc4       ??_C@_03JIHJHPIE@Jan@      1006ccc4     libucrt:nlsdata.obj
 0002:00004cc8       ??_C@_03HJBDCHOM@Feb@      1006ccc8     libucrt:nlsdata.obj
 0002:00004ccc       ??_C@_03ODNJBKGA@Mar@      1006cccc     libucrt:nlsdata.obj
 0002:00004cd0       ??_C@_03LEOLGMJP@Apr@      1006ccd0     libucrt:nlsdata.obj
 0002:00004cd4       ??_C@_03CNMDKL@May@        1006ccd4     libucrt:nlsdata.obj
 0002:00004cd8       ??_C@_03IDFGHECI@Jun@      1006ccd8     libucrt:nlsdata.obj
 0002:00004cdc       ??_C@_03LBGABGKK@Jul@      1006ccdc     libucrt:nlsdata.obj
 0002:00004ce0       ??_C@_03IFJFEIGA@Aug@      1006cce0     libucrt:nlsdata.obj
 0002:00004ce4       ??_C@_03GGCAPAJC@Sep@      1006cce4     libucrt:nlsdata.obj
 0002:00004ce8       ??_C@_03BMAOKBAD@Oct@      1006cce8     libucrt:nlsdata.obj
 0002:00004cec       ??_C@_03JPJOFNIA@Nov@      1006ccec     libucrt:nlsdata.obj
 0002:00004cf0       ??_C@_03MKABNOCG@Dec@      1006ccf0     libucrt:nlsdata.obj
 0002:00004cf4       ??_C@_07CGJPFGJA@January@  1006ccf4     libucrt:nlsdata.obj
 0002:00004cfc       ??_C@_08GNJGEPFN@February@ 1006ccfc     libucrt:nlsdata.obj
 0002:00004d08       ??_C@_05HPCKOFNC@March@    1006cd08     libucrt:nlsdata.obj
 0002:00004d10       ??_C@_05DMJDNLEJ@April@    1006cd10     libucrt:nlsdata.obj
 0002:00004d18       ??_C@_04CNLMGBGM@June@     1006cd18     libucrt:nlsdata.obj
 0002:00004d20       ??_C@_04MIEPOIFP@July@     1006cd20     libucrt:nlsdata.obj
 0002:00004d28       ??_C@_06LBBHFDDG@August@   1006cd28     libucrt:nlsdata.obj
 0002:00004d30       ??_C@_09BHHEALKD@September@ 1006cd30     libucrt:nlsdata.obj
 0002:00004d3c       ??_C@_07JJNFCEND@October@  1006cd3c     libucrt:nlsdata.obj
 0002:00004d44       ??_C@_08HCHEGEOA@November@ 1006cd44     libucrt:nlsdata.obj
 0002:00004d50       ??_C@_08EDHMEBNP@December@ 1006cd50     libucrt:nlsdata.obj
 0002:00004d5c       ??_C@_02DEDBPAFC@AM@       1006cd5c     libucrt:nlsdata.obj
 0002:00004d60       ??_C@_02CJNFDJBF@PM@       1006cd60     libucrt:nlsdata.obj
 0002:00004d64       ??_C@_08BPBNCDIB@MM?1dd?1yy@ 1006cd64     libucrt:nlsdata.obj
 0002:00004d70       ??_C@_0BE@CKGJFCPC@dddd?0?5MMMM?5dd?0?5yyyy@ 1006cd70     libucrt:nlsdata.obj
 0002:00004d84       ??_C@_08JCCMCCIL@HH?3mm?3ss@ 1006cd84     libucrt:nlsdata.obj
 0002:00004d90       ??_C@_17MBGCMIPB@?$AAS?$AAu?$AAn@ 1006cd90     libucrt:nlsdata.obj
 0002:00004d98       ??_C@_17KBOMKBF@?$AAM?$AAo?$AAn@ 1006cd98     libucrt:nlsdata.obj
 0002:00004da0       ??_C@_17BMKGEGOJ@?$AAT?$AAu?$AAe@ 1006cda0     libucrt:nlsdata.obj
 0002:00004da8       ??_C@_17CJEDCEPE@?$AAW?$AAe?$AAd@ 1006cda8     libucrt:nlsdata.obj
 0002:00004db0       ??_C@_17PDPHAADD@?$AAT?$AAh?$AAu@ 1006cdb0     libucrt:nlsdata.obj
 0002:00004db8       ??_C@_17HFOLPPLP@?$AAF?$AAr?$AAi@ 1006cdb8     libucrt:nlsdata.obj
 0002:00004dc0       ??_C@_17GGIBDPIH@?$AAS?$AAa?$AAt@ 1006cdc0     libucrt:nlsdata.obj
 0002:00004dc8       ??_C@_1O@IHNHDHPB@?$AAS?$AAu?$AAn?$AAd?$AAa?$AAy@ 1006cdc8     libucrt:nlsdata.obj
 0002:00004dd8       ??_C@_1O@MMNBFLIA@?$AAM?$AAo?$AAn?$AAd?$AAa?$AAy@ 1006cdd8     libucrt:nlsdata.obj
 0002:00004de8       ??_C@_1BA@ENFBFFEK@?$AAT?$AAu?$AAe?$AAs?$AAd?$AAa?$AAy@ 1006cde8     libucrt:nlsdata.obj
 0002:00004df8       ??_C@_1BE@EBOGMDOH@?$AAW?$AAe?$AAd?$AAn?$AAe?$AAs?$AAd?$AAa?$AAy@ 1006cdf8     libucrt:nlsdata.obj
 0002:00004e0c       ??_C@_1BC@HHMNLIHE@?$AAT?$AAh?$AAu?$AAr?$AAs?$AAd?$AAa?$AAy@ 1006ce0c     libucrt:nlsdata.obj
 0002:00004e20       ??_C@_1O@PDICJHAG@?$AAF?$AAr?$AAi?$AAd?$AAa?$AAy@ 1006ce20     libucrt:nlsdata.obj
 0002:00004e30       ??_C@_1BC@ENMNNPAJ@?$AAS?$AAa?$AAt?$AAu?$AAr?$AAd?$AAa?$AAy@ 1006ce30     libucrt:nlsdata.obj
 0002:00004e44       ??_C@_17DKNBKCHM@?$AAJ?$AAa?$AAn@ 1006ce44     libucrt:nlsdata.obj
 0002:00004e4c       ??_C@_17LMDJEKJN@?$AAF?$AAe?$AAb@ 1006ce4c     libucrt:nlsdata.obj
 0002:00004e54       ??_C@_17CKNLEDEC@?$AAM?$AAa?$AAr@ 1006ce54     libucrt:nlsdata.obj
 0002:00004e5c       ??_C@_17LFPOIHDD@?$AAA?$AAp?$AAr@ 1006ce5c     libucrt:nlsdata.obj
 0002:00004e64       ??_C@_17PNNKMEED@?$AAM?$AAa?$AAy@ 1006ce64     libucrt:nlsdata.obj
 0002:00004e6c       ??_C@_17KCJGOCPB@?$AAJ?$AAu?$AAn@ 1006ce6c     libucrt:nlsdata.obj
 0002:00004e74       ??_C@_17IJPCKHK@?$AAJ?$AAu?$AAl@ 1006ce74     libucrt:nlsdata.obj
 0002:00004e7c       ??_C@_17ICPELBCN@?$AAA?$AAu?$AAg@ 1006ce7c     libucrt:nlsdata.obj
 0002:00004e84       ??_C@_17HCHCOKMG@?$AAS?$AAe?$AAp@ 1006ce84     libucrt:nlsdata.obj
 0002:00004e8c       ??_C@_17FNLKOI@?$AAO?$AAc?$AAt@ 1006ce8c     libucrt:nlsdata.obj
 0002:00004e94       ??_C@_17BBDMLCIG@?$AAN?$AAo?$AAv@ 1006ce94     libucrt:nlsdata.obj
 0002:00004e9c       ??_C@_17EGKACKIF@?$AAD?$AAe?$AAc@ 1006ce9c     libucrt:nlsdata.obj
 0002:00004ea4       ??_C@_1BA@EFMEIEBA@?$AAJ?$AAa?$AAn?$AAu?$AAa?$AAr?$AAy@ 1006cea4     libucrt:nlsdata.obj
 0002:00004eb4       ??_C@_1BC@JGDDFFAM@?$AAF?$AAe?$AAb?$AAr?$AAu?$AAa?$AAr?$AAy@ 1006ceb4     libucrt:nlsdata.obj
 0002:00004ec8       ??_C@_1M@IKEENEDF@?$AAM?$AAa?$AAr?$AAc?$AAh@ 1006cec8     libucrt:nlsdata.obj
 0002:00004ed4       ??_C@_1M@GJNLMHFD@?$AAA?$AAp?$AAr?$AAi?$AAl@ 1006ced4     libucrt:nlsdata.obj
 0002:00004ee0       ??_C@_19EPFLPGAP@?$AAJ?$AAu?$AAn?$AAe@ 1006cee0     libucrt:nlsdata.obj
 0002:00004eec       ??_C@_19BIFMLPCD@?$AAJ?$AAu?$AAl?$AAy@ 1006ceec     libucrt:nlsdata.obj
 0002:00004ef8       ??_C@_1O@PAHLKOAC@?$AAA?$AAu?$AAg?$AAu?$AAs?$AAt@ 1006cef8     libucrt:nlsdata.obj
 0002:00004f08       ??_C@_1BE@DKAAMBJL@?$AAS?$AAe?$AAp?$AAt?$AAe?$AAm?$AAb?$AAe?$AAr@ 1006cf08     libucrt:nlsdata.obj
 0002:00004f1c       ??_C@_1BA@EPANDLNG@?$AAO?$AAc?$AAt?$AAo?$AAb?$AAe?$AAr@ 1006cf1c     libucrt:nlsdata.obj
 0002:00004f2c       ??_C@_1BC@BGLIFPF@?$AAN?$AAo?$AAv?$AAe?$AAm?$AAb?$AAe?$AAr@ 1006cf2c     libucrt:nlsdata.obj
 0002:00004f40       ??_C@_1BC@FEMKIFH@?$AAD?$AAe?$AAc?$AAe?$AAm?$AAb?$AAe?$AAr@ 1006cf40     libucrt:nlsdata.obj
 0002:00004f54       ??_C@_15ODEHAHHF@?$AAA?$AAM@ 1006cf54     libucrt:nlsdata.obj
 0002:00004f5c       ??_C@_15CLMNNGEL@?$AAP?$AAM@ 1006cf5c     libucrt:nlsdata.obj
 0002:00004f64       ??_C@_1BC@IEBCMHCM@?$AAM?$AAM?$AA?1?$AAd?$AAd?$AA?1?$AAy?$AAy@ 1006cf64     libucrt:nlsdata.obj
 0002:00004f78       ??_C@_1CI@KNAKOEBC@?$AAd?$AAd?$AAd?$AAd?$AA?0?$AA?5?$AAM?$AAM?$AAM?$AAM?$AA?5?$AAd?$AAd?$AA?0?$AA?5@ 1006cf78     libucrt:nlsdata.obj
 0002:00004fa0       ??_C@_1BC@GDGBMEMK@?$AAH?$AAH?$AA?3?$AAm?$AAm?$AA?3?$AAs?$AAs@ 1006cfa0     libucrt:nlsdata.obj
 0002:00004fb4       ??_C@_1M@BMHNFIME@?$AAe?$AAn?$AA?9?$AAU?$AAS@ 1006cfb4     libucrt:nlsdata.obj
 0002:00005000       ??_C@_03OEIAHPBN@INF@      1006d000     libucrt:cvt.obj
 0002:00005004       ??_C@_03OJHLLCGB@inf@      1006d004     libucrt:cvt.obj
 0002:00005008       ??_C@_03LKNCIKJB@NAN@      1006d008     libucrt:cvt.obj
 0002:0000500c       ??_C@_03LHCJEHON@nan@      1006d00c     libucrt:cvt.obj
 0002:00005010       ??_C@_09OFJJIMPC@NAN?$CISNAN?$CJ@ 1006d010     libucrt:cvt.obj
 0002:0000501c       ??_C@_09IPFBKMDL@nan?$CIsnan?$CJ@ 1006d01c     libucrt:cvt.obj
 0002:00005028       ??_C@_08IKHNHAJ@NAN?$CIIND?$CJ@ 1006d028     libucrt:cvt.obj
 0002:00005034       ??_C@_08OFCDMILK@nan?$CIind?$CJ@ 1006d034     libucrt:cvt.obj
 0002:00005040       ??_C@_05KLBDPFGC@e?$CL000@ 1006d040     libucrt:cvt.obj
 0002:000050c8       ___lc_category             1006d0c8     libucrt:wsetlocale.obj
 0002:00005110       ??_C@_1O@GIFLHMA@?$AAL?$AAC?$AA_?$AAA?$AAL?$AAL@ 1006d110     libucrt:wsetlocale.obj
 0002:00005120       ??_C@_1BG@PPOMIBNJ@?$AAL?$AAC?$AA_?$AAC?$AAO?$AAL?$AAL?$AAA?$AAT?$AAE@ 1006d120     libucrt:wsetlocale.obj
 0002:00005138       ??_C@_1BC@FFJGAPJM@?$AAL?$AAC?$AA_?$AAC?$AAT?$AAY?$AAP?$AAE@ 1006d138     libucrt:wsetlocale.obj
 0002:0000514c       ??_C@_1BI@PCKFNJFB@?$AAL?$AAC?$AA_?$AAM?$AAO?$AAN?$AAE?$AAT?$AAA?$AAR?$AAY@ 1006d14c     libucrt:wsetlocale.obj
 0002:00005164       ??_C@_1BG@ENIEDKID@?$AAL?$AAC?$AA_?$AAN?$AAU?$AAM?$AAE?$AAR?$AAI?$AAC@ 1006d164     libucrt:wsetlocale.obj
 0002:0000517c       ??_C@_1BA@HAAOMIIG@?$AAL?$AAC?$AA_?$AAT?$AAI?$AAM?$AAE@ 1006d17c     libucrt:wsetlocale.obj
 0002:0000518c       ??_C@_15NBPDDFIP@?$AA?$DN?$AA?$DL@ 1006d18c     libucrt:wsetlocale.obj
 0002:00005194       ??_C@_13PJJBFPED@?$AA?$DL@ 1006d194     libucrt:wsetlocale.obj
 0002:00005198       ??_C@_13NMPKAAJP@?$AA?$DN@ 1006d198     libucrt:wsetlocale.obj
 0002:0000519c       ??_C@_13IMODFHAA@?$AA?9@   1006d19c     libucrt:wsetlocale.obj
 0002:000051a0       ??_C@_17EFJLDFDO@?$AA?9?$AA_?$AA?4@ 1006d1a0     libucrt:wsetlocale.obj
 0002:000051a8       ??_C@_13FHBKNHDA@?$AAC@    1006d1a8     libucrt:wsetlocale.obj
 0002:000051ac       ??_C@_17MBJJLFDM@?$AA_?$AA?4?$AA?0@ 1006d1ac     libucrt:wsetlocale.obj
 0002:000051b4       ??_C@_13ENNFDPBH@?$AA_@    1006d1b4     libucrt:wsetlocale.obj
 0002:000051b8       ??_C@_13JOFGPIOO@?$AA?4@   1006d1b8     libucrt:wsetlocale.obj
 0002:000051c0       ___newctype                1006d1c0     libucrt:ctype.obj
 0002:000054c0       ___newclmap                1006d4c0     libucrt:ctype.obj
 0002:00005640       ___newcumap                1006d640     libucrt:ctype.obj
 0002:000057c0       __wctype                   1006d7c0     libucrt:ctype.obj
 0002:00006260       ??_C@_15EMKDOKLE@?$AAa?$AAr@ 1006e260     libucrt:lcidtoname_downlevel.obj
 0002:00006268       ??_C@_15KNPADPLH@?$AAb?$AAg@ 1006e268     libucrt:lcidtoname_downlevel.obj
 0002:00006270       ??_C@_15EDMHLDMO@?$AAc?$AAa@ 1006e270     libucrt:lcidtoname_downlevel.obj
 0002:00006278       ??_C@_1O@BPEAJADD@?$AAz?$AAh?$AA?9?$AAC?$AAH?$AAS@ 1006e278     libucrt:lcidtoname_downlevel.obj
 0002:00006288       ??_C@_15LJNHCMNK@?$AAc?$AAs@ 1006e288     libucrt:lcidtoname_downlevel.obj
 0002:00006290       ??_C@_15FOMCIDHG@?$AAd?$AAa@ 1006e290     libucrt:lcidtoname_downlevel.obj
 0002:00006298       ??_C@_15NBKABECB@?$AAd?$AAe@ 1006e298     libucrt:lcidtoname_downlevel.obj
 0002:000062a0       ??_C@_15GHPEIIAO@?$AAe?$AAl@ 1006e2a0     libucrt:lcidtoname_downlevel.obj
 0002:000062a8       ??_C@_15MNPNEAIF@?$AAe?$AAn@ 1006e2a8     libucrt:lcidtoname_downlevel.obj
 0002:000062b0       ??_C@_15GPIOMPMH@?$AAe?$AAs@ 1006e2b0     libucrt:lcidtoname_downlevel.obj
 0002:000062b8       ??_C@_15NGLOAKJC@?$AAf?$AAi@ 1006e2b8     libucrt:lcidtoname_downlevel.obj
 0002:000062c0       ??_C@_15FBKGNKAM@?$AAf?$AAr@ 1006e2c0     libucrt:lcidtoname_downlevel.obj
 0002:000062c8       ??_C@_15KGGCNEFK@?$AAh?$AAe@ 1006e2c8     libucrt:lcidtoname_downlevel.obj
 0002:000062d0       ??_C@_15PGHLIDMF@?$AAh?$AAu@ 1006e2d0     libucrt:lcidtoname_downlevel.obj
 0002:000062d8       ??_C@_15BIEMAPLM@?$AAi?$AAs@ 1006e2d8     libucrt:lcidtoname_downlevel.obj
 0002:000062e0       ??_C@_15IFJLDHAF@?$AAi?$AAt@ 1006e2e0     libucrt:lcidtoname_downlevel.obj
 0002:000062e8       ??_C@_15GEMIOCAG@?$AAj?$AAa@ 1006e2e8     libucrt:lcidtoname_downlevel.obj
 0002:000062f0       ??_C@_15EPELEGJA@?$AAk?$AAo@ 1006e2f0     libucrt:lcidtoname_downlevel.obj
 0002:000062f8       ??_C@_15NDDHIMN@?$AAn?$AAl@ 1006e2f8     libucrt:lcidtoname_downlevel.obj
 0002:00006300       ??_C@_15BPIGNHCD@?$AAn?$AAo@ 1006e300     libucrt:lcidtoname_downlevel.obj
 0002:00006308       ??_C@_15DEOPBLCG@?$AAp?$AAl@ 1006e308     libucrt:lcidtoname_downlevel.obj
 0002:00006310       ??_C@_15KBECGEFG@?$AAp?$AAt@ 1006e310     libucrt:lcidtoname_downlevel.obj
 0002:00006318       ??_C@_15GLJCBFMD@?$AAr?$AAo@ 1006e318     libucrt:lcidtoname_downlevel.obj
 0002:00006320       ??_C@_15FEDGKCDI@?$AAr?$AAu@ 1006e320     libucrt:lcidtoname_downlevel.obj
 0002:00006328       ??_C@_15GLKMLLHM@?$AAh?$AAr@ 1006e328     libucrt:lcidtoname_downlevel.obj
 0002:00006330       ??_C@_15CPKMFBDB@?$AAs?$AAk@ 1006e330     libucrt:lcidtoname_downlevel.obj
 0002:00006338       ??_C@_15BAAIOGMK@?$AAs?$AAq@ 1006e338     libucrt:lcidtoname_downlevel.obj
 0002:00006340       ??_C@_15INNPNOHD@?$AAs?$AAv@ 1006e340     libucrt:lcidtoname_downlevel.obj
 0002:00006348       ??_C@_15CABMMOGH@?$AAt?$AAh@ 1006e348     libucrt:lcidtoname_downlevel.obj
 0002:00006350       ??_C@_15BPLIHJJM@?$AAt?$AAr@ 1006e350     libucrt:lcidtoname_downlevel.obj
 0002:00006358       ??_C@_15NEOEKKDJ@?$AAu?$AAr@ 1006e358     libucrt:lcidtoname_downlevel.obj
 0002:00006360       ??_C@_15NFICGAJK@?$AAi?$AAd@ 1006e360     libucrt:lcidtoname_downlevel.obj
 0002:00006368       ??_C@_15PJPFLCCM@?$AAu?$AAk@ 1006e368     libucrt:lcidtoname_downlevel.obj
 0002:00006370       ??_C@_15HPJPHDM@?$AAb?$AAe@ 1006e370     libucrt:lcidtoname_downlevel.obj
 0002:00006378       ??_C@_15LCHLGJII@?$AAs?$AAl@ 1006e378     libucrt:lcidtoname_downlevel.obj
 0002:00006380       ??_C@_15PCFJPHHO@?$AAe?$AAt@ 1006e380     libucrt:lcidtoname_downlevel.obj
 0002:00006388       ??_C@_15HPFPGODN@?$AAl?$AAv@ 1006e388     libucrt:lcidtoname_downlevel.obj
 0002:00006390       ??_C@_15NFFGKGLG@?$AAl?$AAt@ 1006e390     libucrt:lcidtoname_downlevel.obj
 0002:00006398       ??_C@_15BDAKCCHN@?$AAf?$AAa@ 1006e398     libucrt:lcidtoname_downlevel.obj
 0002:000063a0       ??_C@_15NFGIAIAJ@?$AAv?$AAi@ 1006e3a0     libucrt:lcidtoname_downlevel.obj
 0002:000063a8       ??_C@_15LMKNDMHN@?$AAh?$AAy@ 1006e3a8     libucrt:lcidtoname_downlevel.obj
 0002:000063b0       ??_C@_15IJBHMCFL@?$AAa?$AAz@ 1006e3b0     libucrt:lcidtoname_downlevel.obj
 0002:000063b8       ??_C@_15EKOFJABL@?$AAe?$AAu@ 1006e3b8     libucrt:lcidtoname_downlevel.obj
 0002:000063c0       ??_C@_15BGHADCNK@?$AAm?$AAk@ 1006e3c0     libucrt:lcidtoname_downlevel.obj
 0002:000063c8       ??_C@_15JDNICKHM@?$AAa?$AAf@ 1006e3c8     libucrt:lcidtoname_downlevel.obj
 0002:000063d0       ??_C@_15KPJEDBKD@?$AAk?$AAa@ 1006e3d0     libucrt:lcidtoname_downlevel.obj
 0002:000063d8       ??_C@_15PDNFFFEO@?$AAf?$AAo@ 1006e3d8     libucrt:lcidtoname_downlevel.obj
 0002:000063e0       ??_C@_15OMLEGLOC@?$AAh?$AAi@ 1006e3e0     libucrt:lcidtoname_downlevel.obj
 0002:000063e8       ??_C@_15IDNNENKK@?$AAm?$AAs@ 1006e3e8     libucrt:lcidtoname_downlevel.obj
 0002:000063f0       ??_C@_15MACJNBMH@?$AAk?$AAk@ 1006e3f0     libucrt:lcidtoname_downlevel.obj
 0002:000063f8       ??_C@_15DKDJEOND@?$AAk?$AAy@ 1006e3f8     libucrt:lcidtoname_downlevel.obj
 0002:00006400       ??_C@_15DFGDLJBG@?$AAs?$AAw@ 1006e400     libucrt:lcidtoname_downlevel.obj
 0002:00006408       ??_C@_15BBFAICNG@?$AAu?$AAz@ 1006e408     libucrt:lcidtoname_downlevel.obj
 0002:00006410       ??_C@_15DKNDCGEA@?$AAt?$AAt@ 1006e410     libucrt:lcidtoname_downlevel.obj
 0002:00006418       ??_C@_15MGIFMDPL@?$AAp?$AAa@ 1006e418     libucrt:lcidtoname_downlevel.obj
 0002:00006420       ??_C@_15HCNDBBA@?$AAg?$AAu@ 1006e420     libucrt:lcidtoname_downlevel.obj
 0002:00006428       ??_C@_15FNBEIBON@?$AAt?$AAa@ 1006e428     libucrt:lcidtoname_downlevel.obj
 0002:00006430       ??_C@_15NCHGBGLK@?$AAt?$AAe@ 1006e430     libucrt:lcidtoname_downlevel.obj
 0002:00006438       ??_C@_15PHPHCBPF@?$AAk?$AAn@ 1006e438     libucrt:lcidtoname_downlevel.obj
 0002:00006440       ??_C@_15DLGBCKMP@?$AAm?$AAr@ 1006e440     libucrt:lcidtoname_downlevel.obj
 0002:00006448       ??_C@_15EABBLBFF@?$AAs?$AAa@ 1006e448     libucrt:lcidtoname_downlevel.obj
 0002:00006450       ??_C@_15CBKOMCOI@?$AAm?$AAn@ 1006e450     libucrt:lcidtoname_downlevel.obj
 0002:00006458       ??_C@_15CKDMCJAF@?$AAg?$AAl@ 1006e458     libucrt:lcidtoname_downlevel.obj
 0002:00006460       ??_C@_17CNJFBPG@?$AAk?$AAo?$AAk@ 1006e460     libucrt:lcidtoname_downlevel.obj
 0002:00006468       ??_C@_17FFBJICPL@?$AAs?$AAy?$AAr@ 1006e468     libucrt:lcidtoname_downlevel.obj
 0002:00006470       ??_C@_17KPNDCPAF@?$AAd?$AAi?$AAv@ 1006e470     libucrt:lcidtoname_downlevel.obj
 0002:00006478       ??_C@_11LOCGONAA@@         1006e478     libucrt:lcidtoname_downlevel.obj
 0002:0000647c       ??_C@_1M@OKAHONE@?$AAa?$AAr?$AA?9?$AAS?$AAA@ 1006e47c     libucrt:lcidtoname_downlevel.obj
 0002:00006488       ??_C@_1M@FFFIGIGK@?$AAb?$AAg?$AA?9?$AAB?$AAG@ 1006e488     libucrt:lcidtoname_downlevel.obj
 0002:00006494       ??_C@_1M@BJNKEDC@?$AAc?$AAa?$AA?9?$AAE?$AAS@ 1006e494     libucrt:lcidtoname_downlevel.obj
 0002:000064a0       ??_C@_1M@IJJHFJHA@?$AAc?$AAs?$AA?9?$AAC?$AAZ@ 1006e4a0     libucrt:lcidtoname_downlevel.obj
 0002:000064ac       ??_C@_1M@CLPEOBGI@?$AAd?$AAa?$AA?9?$AAD?$AAK@ 1006e4ac     libucrt:lcidtoname_downlevel.obj
 0002:000064b8       ??_C@_1M@MCMADGCB@?$AAd?$AAe?$AA?9?$AAD?$AAE@ 1006e4b8     libucrt:lcidtoname_downlevel.obj
 0002:000064c4       ??_C@_1M@OOCKEMAM@?$AAe?$AAl?$AA?9?$AAG?$AAR@ 1006e4c4     libucrt:lcidtoname_downlevel.obj
 0002:000064d0       ??_C@_1M@DDNJFGID@?$AAf?$AAi?$AA?9?$AAF?$AAI@ 1006e4d0     libucrt:lcidtoname_downlevel.obj
